

Microchip MPLAB XC8 Assembler V2.20 build 20200408173844 
                                                                                               Mon Jun 22 17:06:51 2020

Microchip MPLAB XC8 C Compiler v2.20 (Free license) build 20200408173844 Og1 
     1                           	processor	16F1509
     2                           	pagewidth 120
     3                           	opt	flic
     4                           	psect	idataCOMMON,global,class=CODE,delta=2,noexec
     5                           	psect	idataBANK0,global,class=CODE,delta=2,noexec
     6                           	psect	stringtext1,global,class=STRCODE,delta=2,noexec
     7                           	psect	nvBANK0,global,class=BANK0,space=1,delta=1,noexec
     8                           	psect	cinit,global,class=CODE,merge=1,delta=2
     9                           	psect	bssCOMMON,global,class=COMMON,space=1,delta=1,noexec
    10                           	psect	dataCOMMON,global,class=COMMON,space=1,delta=1,noexec
    11                           	psect	bssBANK0,global,class=BANK0,space=1,delta=1,noexec
    12                           	psect	dataBANK0,global,class=BANK0,space=1,delta=1,noexec
    13                           	psect	clrtext,global,class=CODE,delta=2
    14                           	psect	cstackBANK1,global,class=BANK1,space=1,delta=1,noexec
    15                           	psect	cstackCOMMON,global,class=COMMON,space=1,delta=1,noexec
    16                           	psect	cstackBANK0,global,class=BANK0,space=1,delta=1,noexec
    17                           	psect	maintext,global,class=CODE,merge=1,split=1,delta=2
    18                           	psect	text1,local,class=CODE,merge=1,delta=2
    19                           	psect	text2,local,class=CODE,merge=1,delta=2
    20                           	psect	text3,local,class=CODE,merge=1,delta=2
    21                           	psect	text4,local,class=CODE,merge=1,delta=2
    22                           	psect	text5,local,class=CODE,merge=1,delta=2
    23                           	psect	text6,local,class=CODE,merge=1,delta=2
    24                           	psect	text7,local,class=CODE,merge=1,delta=2
    25                           	psect	text8,local,class=CODE,merge=1,delta=2
    26                           	psect	text9,local,class=CODE,merge=1,delta=2
    27                           	psect	text10,local,class=CODE,merge=1,delta=2
    28                           	psect	text11,local,class=CODE,merge=1,delta=2
    29                           	psect	text12,local,class=CODE,merge=1,delta=2
    30                           	psect	text13,local,class=CODE,merge=1,delta=2,group=1
    31                           	psect	text14,local,class=CODE,merge=1,delta=2
    32                           	psect	text15,local,class=CODE,merge=1,delta=2
    33                           	psect	text16,local,class=CODE,merge=1,delta=2
    34                           	psect	text17,local,class=CODE,merge=1,delta=2
    35                           	psect	text18,local,class=CODE,merge=1,delta=2
    36                           	psect	text19,local,class=CODE,merge=1,delta=2
    37                           	psect	text20,local,class=CODE,merge=1,delta=2,group=1
    38                           	psect	text21,local,class=CODE,merge=1,delta=2
    39                           	psect	text22,local,class=CODE,merge=1,delta=2
    40                           	psect	text23,local,class=CODE,merge=1,delta=2
    41                           	psect	text24,local,class=CODE,merge=1,delta=2
    42                           	psect	text25,local,class=CODE,merge=1,delta=2
    43                           	psect	text26,local,class=CODE,merge=1,delta=2
    44                           	psect	text27,local,class=CODE,merge=1,delta=2
    45                           	psect	text28,local,class=CODE,merge=1,delta=2
    46                           	psect	intentry,global,class=CODE,delta=2
    47                           	psect	text30,local,class=CODE,merge=1,delta=2
    48                           	psect	text31,local,class=CODE,merge=1,delta=2
    49                           	psect	text32,local,class=CODE,merge=1,delta=2
    50                           	psect	text33,local,class=CODE,merge=1,delta=2
    51                           	psect	text34,local,class=CODE,merge=1,delta=2
    52                           	psect	config,global,abs,ovrld,class=CONFIG,space=4,delta=2,noexec
    53                           	dabs	1,0x7E,2
    54  0000                     
    55                           ; Version 2.20
    56                           ; Generated 12/02/2020 GMT
    57                           ; 
    58                           ; Copyright © 2020, Microchip Technology Inc. and its subsidiaries ("Microchip")
    59                           ; All rights reserved.
    60                           ; 
    61                           ; This software is developed by Microchip Technology Inc. and its subsidiaries ("Microch
      +                          ip").
    62                           ; 
    63                           ; Redistribution and use in source and binary forms, with or without modification, are
    64                           ; permitted provided that the following conditions are met:
    65                           ; 
    66                           ;     1. Redistributions of source code must retain the above copyright notice, this lis
      +                          t of
    67                           ;        conditions and the following disclaimer.
    68                           ; 
    69                           ;     2. Redistributions in binary form must reproduce the above copyright notice, this 
      +                          list
    70                           ;        of conditions and the following disclaimer in the documentation and/or other
    71                           ;        materials provided with the distribution.
    72                           ; 
    73                           ;     3. Microchip's name may not be used to endorse or promote products derived from th
      +                          is
    74                           ;        software without specific prior written permission.
    75                           ; 
    76                           ; THIS SOFTWARE IS PROVIDED BY MICROCHIP "AS IS" AND ANY EXPRESS OR IMPLIED WARRANTIES,
    77                           ; INCLUDING, BUT NOT LIMITED TO, THE IMPLIED WARRANTIES OF MERCHANTABILITY AND FITNESS F
      +                          OR
    78                           ; PURPOSE ARE DISCLAIMED.  IN NO EVENT SHALL MICROCHIP BE LIABLE FOR ANY DIRECT, INDIREC
      +                          T,
    79                           ; INCIDENTAL, SPECIAL, EXEMPLARY, OR CONSEQUENTIAL DAMAGES (INCLUDING BUT NOT LIMITED TO
    80                           ; PROCUREMENT OF SUBSTITUTE GOODS OR SERVICES; LOSS OF USE, DATA OR PROFITS; OR BUSINESS
    81                           ; INTERRUPTION) HOWSOEVER CAUSED AND ON ANY THEORY OF LIABILITY, WHETHER IN CONTRACT, ST
      +                          RICT
    82                           ; LIABILITY, OR TORT (INCLUDING NEGLIGENCE OR OTHERWISE) ARISING IN ANY WAY OUT OF THE U
      +                          SE OF
    83                           ; THIS SOFTWARE, EVEN IF ADVISED OF THE POSSIBILITY OF SUCH DAMAGE.
    84                           ; 
    85                           ; 
    86                           ; Code-generator required, PIC16F1509 Definitions
    87                           ; 
    88                           ; SFR Addresses
    89  0000                     	;# 
    90  0001                     	;# 
    91  0002                     	;# 
    92  0003                     	;# 
    93  0004                     	;# 
    94  0005                     	;# 
    95  0006                     	;# 
    96  0007                     	;# 
    97  0008                     	;# 
    98  0009                     	;# 
    99  000A                     	;# 
   100  000B                     	;# 
   101  000C                     	;# 
   102  000D                     	;# 
   103  000E                     	;# 
   104  0011                     	;# 
   105  0012                     	;# 
   106  0013                     	;# 
   107  0015                     	;# 
   108  0016                     	;# 
   109  0016                     	;# 
   110  0017                     	;# 
   111  0018                     	;# 
   112  0019                     	;# 
   113  001A                     	;# 
   114  001B                     	;# 
   115  001C                     	;# 
   116  008C                     	;# 
   117  008D                     	;# 
   118  008E                     	;# 
   119  0091                     	;# 
   120  0092                     	;# 
   121  0093                     	;# 
   122  0095                     	;# 
   123  0096                     	;# 
   124  0097                     	;# 
   125  0099                     	;# 
   126  009A                     	;# 
   127  009B                     	;# 
   128  009B                     	;# 
   129  009C                     	;# 
   130  009D                     	;# 
   131  009E                     	;# 
   132  009F                     	;# 
   133  010C                     	;# 
   134  010D                     	;# 
   135  010E                     	;# 
   136  0111                     	;# 
   137  0112                     	;# 
   138  0113                     	;# 
   139  0114                     	;# 
   140  0115                     	;# 
   141  0116                     	;# 
   142  0117                     	;# 
   143  0118                     	;# 
   144  0119                     	;# 
   145  011D                     	;# 
   146  018C                     	;# 
   147  018D                     	;# 
   148  018E                     	;# 
   149  0191                     	;# 
   150  0191                     	;# 
   151  0192                     	;# 
   152  0193                     	;# 
   153  0193                     	;# 
   154  0194                     	;# 
   155  0195                     	;# 
   156  0196                     	;# 
   157  0197                     	;# 
   158  0199                     	;# 
   159  019A                     	;# 
   160  019B                     	;# 
   161  019B                     	;# 
   162  019C                     	;# 
   163  019D                     	;# 
   164  019E                     	;# 
   165  019F                     	;# 
   166  020C                     	;# 
   167  020D                     	;# 
   168  0211                     	;# 
   169  0211                     	;# 
   170  0212                     	;# 
   171  0212                     	;# 
   172  0213                     	;# 
   173  0213                     	;# 
   174  0214                     	;# 
   175  0214                     	;# 
   176  0215                     	;# 
   177  0215                     	;# 
   178  0215                     	;# 
   179  0216                     	;# 
   180  0216                     	;# 
   181  0217                     	;# 
   182  0217                     	;# 
   183  0391                     	;# 
   184  0392                     	;# 
   185  0393                     	;# 
   186  0394                     	;# 
   187  0395                     	;# 
   188  0396                     	;# 
   189  0498                     	;# 
   190  0498                     	;# 
   191  0499                     	;# 
   192  049A                     	;# 
   193  049B                     	;# 
   194  049B                     	;# 
   195  049C                     	;# 
   196  049D                     	;# 
   197  049E                     	;# 
   198  049F                     	;# 
   199  0611                     	;# 
   200  0612                     	;# 
   201  0613                     	;# 
   202  0613                     	;# 
   203  0614                     	;# 
   204  0615                     	;# 
   205  0616                     	;# 
   206  0616                     	;# 
   207  0617                     	;# 
   208  0618                     	;# 
   209  0619                     	;# 
   210  0619                     	;# 
   211  061A                     	;# 
   212  061B                     	;# 
   213  061C                     	;# 
   214  061C                     	;# 
   215  0691                     	;# 
   216  0692                     	;# 
   217  0693                     	;# 
   218  0694                     	;# 
   219  0695                     	;# 
   220  0F0F                     	;# 
   221  0F10                     	;# 
   222  0F11                     	;# 
   223  0F12                     	;# 
   224  0F13                     	;# 
   225  0F14                     	;# 
   226  0F15                     	;# 
   227  0F16                     	;# 
   228  0F17                     	;# 
   229  0F18                     	;# 
   230  0F19                     	;# 
   231  0F1A                     	;# 
   232  0F1B                     	;# 
   233  0F1C                     	;# 
   234  0F1D                     	;# 
   235  0F1E                     	;# 
   236  0F1F                     	;# 
   237  0F20                     	;# 
   238  0F21                     	;# 
   239  0F22                     	;# 
   240  0F23                     	;# 
   241  0F24                     	;# 
   242  0F25                     	;# 
   243  0F26                     	;# 
   244  0F27                     	;# 
   245  0F28                     	;# 
   246  0F29                     	;# 
   247  0F2A                     	;# 
   248  0F2B                     	;# 
   249  0F2C                     	;# 
   250  0F2D                     	;# 
   251  0F2E                     	;# 
   252  0F2F                     	;# 
   253  0F8C                     	;# 
   254  0F8D                     	;# 
   255  0F91                     	;# 
   256  0F95                     	;# 
   257  0F96                     	;# 
   258  0F97                     	;# 
   259  0F9C                     	;# 
   260  0F9D                     	;# 
   261  0F9E                     	;# 
   262  0FE3                     	;# 
   263  0FE4                     	;# 
   264  0FE5                     	;# 
   265  0FE6                     	;# 
   266  0FE7                     	;# 
   267  0FE8                     	;# 
   268  0FE9                     	;# 
   269  0FEA                     	;# 
   270  0FEB                     	;# 
   271  0FED                     	;# 
   272  0FEE                     	;# 
   273  0FEF                     	;# 
   274  0000                     	;# 
   275  0001                     	;# 
   276  0002                     	;# 
   277  0003                     	;# 
   278  0004                     	;# 
   279  0005                     	;# 
   280  0006                     	;# 
   281  0007                     	;# 
   282  0008                     	;# 
   283  0009                     	;# 
   284  000A                     	;# 
   285  000B                     	;# 
   286  000C                     	;# 
   287  000D                     	;# 
   288  000E                     	;# 
   289  0011                     	;# 
   290  0012                     	;# 
   291  0013                     	;# 
   292  0015                     	;# 
   293  0016                     	;# 
   294  0016                     	;# 
   295  0017                     	;# 
   296  0018                     	;# 
   297  0019                     	;# 
   298  001A                     	;# 
   299  001B                     	;# 
   300  001C                     	;# 
   301  008C                     	;# 
   302  008D                     	;# 
   303  008E                     	;# 
   304  0091                     	;# 
   305  0092                     	;# 
   306  0093                     	;# 
   307  0095                     	;# 
   308  0096                     	;# 
   309  0097                     	;# 
   310  0099                     	;# 
   311  009A                     	;# 
   312  009B                     	;# 
   313  009B                     	;# 
   314  009C                     	;# 
   315  009D                     	;# 
   316  009E                     	;# 
   317  009F                     	;# 
   318  010C                     	;# 
   319  010D                     	;# 
   320  010E                     	;# 
   321  0111                     	;# 
   322  0112                     	;# 
   323  0113                     	;# 
   324  0114                     	;# 
   325  0115                     	;# 
   326  0116                     	;# 
   327  0117                     	;# 
   328  0118                     	;# 
   329  0119                     	;# 
   330  011D                     	;# 
   331  018C                     	;# 
   332  018D                     	;# 
   333  018E                     	;# 
   334  0191                     	;# 
   335  0191                     	;# 
   336  0192                     	;# 
   337  0193                     	;# 
   338  0193                     	;# 
   339  0194                     	;# 
   340  0195                     	;# 
   341  0196                     	;# 
   342  0197                     	;# 
   343  0199                     	;# 
   344  019A                     	;# 
   345  019B                     	;# 
   346  019B                     	;# 
   347  019C                     	;# 
   348  019D                     	;# 
   349  019E                     	;# 
   350  019F                     	;# 
   351  020C                     	;# 
   352  020D                     	;# 
   353  0211                     	;# 
   354  0211                     	;# 
   355  0212                     	;# 
   356  0212                     	;# 
   357  0213                     	;# 
   358  0213                     	;# 
   359  0214                     	;# 
   360  0214                     	;# 
   361  0215                     	;# 
   362  0215                     	;# 
   363  0215                     	;# 
   364  0216                     	;# 
   365  0216                     	;# 
   366  0217                     	;# 
   367  0217                     	;# 
   368  0391                     	;# 
   369  0392                     	;# 
   370  0393                     	;# 
   371  0394                     	;# 
   372  0395                     	;# 
   373  0396                     	;# 
   374  0498                     	;# 
   375  0498                     	;# 
   376  0499                     	;# 
   377  049A                     	;# 
   378  049B                     	;# 
   379  049B                     	;# 
   380  049C                     	;# 
   381  049D                     	;# 
   382  049E                     	;# 
   383  049F                     	;# 
   384  0611                     	;# 
   385  0612                     	;# 
   386  0613                     	;# 
   387  0613                     	;# 
   388  0614                     	;# 
   389  0615                     	;# 
   390  0616                     	;# 
   391  0616                     	;# 
   392  0617                     	;# 
   393  0618                     	;# 
   394  0619                     	;# 
   395  0619                     	;# 
   396  061A                     	;# 
   397  061B                     	;# 
   398  061C                     	;# 
   399  061C                     	;# 
   400  0691                     	;# 
   401  0692                     	;# 
   402  0693                     	;# 
   403  0694                     	;# 
   404  0695                     	;# 
   405  0F0F                     	;# 
   406  0F10                     	;# 
   407  0F11                     	;# 
   408  0F12                     	;# 
   409  0F13                     	;# 
   410  0F14                     	;# 
   411  0F15                     	;# 
   412  0F16                     	;# 
   413  0F17                     	;# 
   414  0F18                     	;# 
   415  0F19                     	;# 
   416  0F1A                     	;# 
   417  0F1B                     	;# 
   418  0F1C                     	;# 
   419  0F1D                     	;# 
   420  0F1E                     	;# 
   421  0F1F                     	;# 
   422  0F20                     	;# 
   423  0F21                     	;# 
   424  0F22                     	;# 
   425  0F23                     	;# 
   426  0F24                     	;# 
   427  0F25                     	;# 
   428  0F26                     	;# 
   429  0F27                     	;# 
   430  0F28                     	;# 
   431  0F29                     	;# 
   432  0F2A                     	;# 
   433  0F2B                     	;# 
   434  0F2C                     	;# 
   435  0F2D                     	;# 
   436  0F2E                     	;# 
   437  0F2F                     	;# 
   438  0F8C                     	;# 
   439  0F8D                     	;# 
   440  0F91                     	;# 
   441  0F95                     	;# 
   442  0F96                     	;# 
   443  0F97                     	;# 
   444  0F9C                     	;# 
   445  0F9D                     	;# 
   446  0F9E                     	;# 
   447  0FE3                     	;# 
   448  0FE4                     	;# 
   449  0FE5                     	;# 
   450  0FE6                     	;# 
   451  0FE7                     	;# 
   452  0FE8                     	;# 
   453  0FE9                     	;# 
   454  0FEA                     	;# 
   455  0FEB                     	;# 
   456  0FED                     	;# 
   457  0FEE                     	;# 
   458  0FEF                     	;# 
   459  0000                     	;# 
   460  0001                     	;# 
   461  0002                     	;# 
   462  0003                     	;# 
   463  0004                     	;# 
   464  0005                     	;# 
   465  0006                     	;# 
   466  0007                     	;# 
   467  0008                     	;# 
   468  0009                     	;# 
   469  000A                     	;# 
   470  000B                     	;# 
   471  000C                     	;# 
   472  000D                     	;# 
   473  000E                     	;# 
   474  0011                     	;# 
   475  0012                     	;# 
   476  0013                     	;# 
   477  0015                     	;# 
   478  0016                     	;# 
   479  0016                     	;# 
   480  0017                     	;# 
   481  0018                     	;# 
   482  0019                     	;# 
   483  001A                     	;# 
   484  001B                     	;# 
   485  001C                     	;# 
   486  008C                     	;# 
   487  008D                     	;# 
   488  008E                     	;# 
   489  0091                     	;# 
   490  0092                     	;# 
   491  0093                     	;# 
   492  0095                     	;# 
   493  0096                     	;# 
   494  0097                     	;# 
   495  0099                     	;# 
   496  009A                     	;# 
   497  009B                     	;# 
   498  009B                     	;# 
   499  009C                     	;# 
   500  009D                     	;# 
   501  009E                     	;# 
   502  009F                     	;# 
   503  010C                     	;# 
   504  010D                     	;# 
   505  010E                     	;# 
   506  0111                     	;# 
   507  0112                     	;# 
   508  0113                     	;# 
   509  0114                     	;# 
   510  0115                     	;# 
   511  0116                     	;# 
   512  0117                     	;# 
   513  0118                     	;# 
   514  0119                     	;# 
   515  011D                     	;# 
   516  018C                     	;# 
   517  018D                     	;# 
   518  018E                     	;# 
   519  0191                     	;# 
   520  0191                     	;# 
   521  0192                     	;# 
   522  0193                     	;# 
   523  0193                     	;# 
   524  0194                     	;# 
   525  0195                     	;# 
   526  0196                     	;# 
   527  0197                     	;# 
   528  0199                     	;# 
   529  019A                     	;# 
   530  019B                     	;# 
   531  019B                     	;# 
   532  019C                     	;# 
   533  019D                     	;# 
   534  019E                     	;# 
   535  019F                     	;# 
   536  020C                     	;# 
   537  020D                     	;# 
   538  0211                     	;# 
   539  0211                     	;# 
   540  0212                     	;# 
   541  0212                     	;# 
   542  0213                     	;# 
   543  0213                     	;# 
   544  0214                     	;# 
   545  0214                     	;# 
   546  0215                     	;# 
   547  0215                     	;# 
   548  0215                     	;# 
   549  0216                     	;# 
   550  0216                     	;# 
   551  0217                     	;# 
   552  0217                     	;# 
   553  0391                     	;# 
   554  0392                     	;# 
   555  0393                     	;# 
   556  0394                     	;# 
   557  0395                     	;# 
   558  0396                     	;# 
   559  0498                     	;# 
   560  0498                     	;# 
   561  0499                     	;# 
   562  049A                     	;# 
   563  049B                     	;# 
   564  049B                     	;# 
   565  049C                     	;# 
   566  049D                     	;# 
   567  049E                     	;# 
   568  049F                     	;# 
   569  0611                     	;# 
   570  0612                     	;# 
   571  0613                     	;# 
   572  0613                     	;# 
   573  0614                     	;# 
   574  0615                     	;# 
   575  0616                     	;# 
   576  0616                     	;# 
   577  0617                     	;# 
   578  0618                     	;# 
   579  0619                     	;# 
   580  0619                     	;# 
   581  061A                     	;# 
   582  061B                     	;# 
   583  061C                     	;# 
   584  061C                     	;# 
   585  0691                     	;# 
   586  0692                     	;# 
   587  0693                     	;# 
   588  0694                     	;# 
   589  0695                     	;# 
   590  0F0F                     	;# 
   591  0F10                     	;# 
   592  0F11                     	;# 
   593  0F12                     	;# 
   594  0F13                     	;# 
   595  0F14                     	;# 
   596  0F15                     	;# 
   597  0F16                     	;# 
   598  0F17                     	;# 
   599  0F18                     	;# 
   600  0F19                     	;# 
   601  0F1A                     	;# 
   602  0F1B                     	;# 
   603  0F1C                     	;# 
   604  0F1D                     	;# 
   605  0F1E                     	;# 
   606  0F1F                     	;# 
   607  0F20                     	;# 
   608  0F21                     	;# 
   609  0F22                     	;# 
   610  0F23                     	;# 
   611  0F24                     	;# 
   612  0F25                     	;# 
   613  0F26                     	;# 
   614  0F27                     	;# 
   615  0F28                     	;# 
   616  0F29                     	;# 
   617  0F2A                     	;# 
   618  0F2B                     	;# 
   619  0F2C                     	;# 
   620  0F2D                     	;# 
   621  0F2E                     	;# 
   622  0F2F                     	;# 
   623  0F8C                     	;# 
   624  0F8D                     	;# 
   625  0F91                     	;# 
   626  0F95                     	;# 
   627  0F96                     	;# 
   628  0F97                     	;# 
   629  0F9C                     	;# 
   630  0F9D                     	;# 
   631  0F9E                     	;# 
   632  0FE3                     	;# 
   633  0FE4                     	;# 
   634  0FE5                     	;# 
   635  0FE6                     	;# 
   636  0FE7                     	;# 
   637  0FE8                     	;# 
   638  0FE9                     	;# 
   639  0FEA                     	;# 
   640  0FEB                     	;# 
   641  0FED                     	;# 
   642  0FEE                     	;# 
   643  0FEF                     	;# 
   644  0000                     	;# 
   645  0001                     	;# 
   646  0002                     	;# 
   647  0003                     	;# 
   648  0004                     	;# 
   649  0005                     	;# 
   650  0006                     	;# 
   651  0007                     	;# 
   652  0008                     	;# 
   653  0009                     	;# 
   654  000A                     	;# 
   655  000B                     	;# 
   656  000C                     	;# 
   657  000D                     	;# 
   658  000E                     	;# 
   659  0011                     	;# 
   660  0012                     	;# 
   661  0013                     	;# 
   662  0015                     	;# 
   663  0016                     	;# 
   664  0016                     	;# 
   665  0017                     	;# 
   666  0018                     	;# 
   667  0019                     	;# 
   668  001A                     	;# 
   669  001B                     	;# 
   670  001C                     	;# 
   671  008C                     	;# 
   672  008D                     	;# 
   673  008E                     	;# 
   674  0091                     	;# 
   675  0092                     	;# 
   676  0093                     	;# 
   677  0095                     	;# 
   678  0096                     	;# 
   679  0097                     	;# 
   680  0099                     	;# 
   681  009A                     	;# 
   682  009B                     	;# 
   683  009B                     	;# 
   684  009C                     	;# 
   685  009D                     	;# 
   686  009E                     	;# 
   687  009F                     	;# 
   688  010C                     	;# 
   689  010D                     	;# 
   690  010E                     	;# 
   691  0111                     	;# 
   692  0112                     	;# 
   693  0113                     	;# 
   694  0114                     	;# 
   695  0115                     	;# 
   696  0116                     	;# 
   697  0117                     	;# 
   698  0118                     	;# 
   699  0119                     	;# 
   700  011D                     	;# 
   701  018C                     	;# 
   702  018D                     	;# 
   703  018E                     	;# 
   704  0191                     	;# 
   705  0191                     	;# 
   706  0192                     	;# 
   707  0193                     	;# 
   708  0193                     	;# 
   709  0194                     	;# 
   710  0195                     	;# 
   711  0196                     	;# 
   712  0197                     	;# 
   713  0199                     	;# 
   714  019A                     	;# 
   715  019B                     	;# 
   716  019B                     	;# 
   717  019C                     	;# 
   718  019D                     	;# 
   719  019E                     	;# 
   720  019F                     	;# 
   721  020C                     	;# 
   722  020D                     	;# 
   723  0211                     	;# 
   724  0211                     	;# 
   725  0212                     	;# 
   726  0212                     	;# 
   727  0213                     	;# 
   728  0213                     	;# 
   729  0214                     	;# 
   730  0214                     	;# 
   731  0215                     	;# 
   732  0215                     	;# 
   733  0215                     	;# 
   734  0216                     	;# 
   735  0216                     	;# 
   736  0217                     	;# 
   737  0217                     	;# 
   738  0391                     	;# 
   739  0392                     	;# 
   740  0393                     	;# 
   741  0394                     	;# 
   742  0395                     	;# 
   743  0396                     	;# 
   744  0498                     	;# 
   745  0498                     	;# 
   746  0499                     	;# 
   747  049A                     	;# 
   748  049B                     	;# 
   749  049B                     	;# 
   750  049C                     	;# 
   751  049D                     	;# 
   752  049E                     	;# 
   753  049F                     	;# 
   754  0611                     	;# 
   755  0612                     	;# 
   756  0613                     	;# 
   757  0613                     	;# 
   758  0614                     	;# 
   759  0615                     	;# 
   760  0616                     	;# 
   761  0616                     	;# 
   762  0617                     	;# 
   763  0618                     	;# 
   764  0619                     	;# 
   765  0619                     	;# 
   766  061A                     	;# 
   767  061B                     	;# 
   768  061C                     	;# 
   769  061C                     	;# 
   770  0691                     	;# 
   771  0692                     	;# 
   772  0693                     	;# 
   773  0694                     	;# 
   774  0695                     	;# 
   775  0F0F                     	;# 
   776  0F10                     	;# 
   777  0F11                     	;# 
   778  0F12                     	;# 
   779  0F13                     	;# 
   780  0F14                     	;# 
   781  0F15                     	;# 
   782  0F16                     	;# 
   783  0F17                     	;# 
   784  0F18                     	;# 
   785  0F19                     	;# 
   786  0F1A                     	;# 
   787  0F1B                     	;# 
   788  0F1C                     	;# 
   789  0F1D                     	;# 
   790  0F1E                     	;# 
   791  0F1F                     	;# 
   792  0F20                     	;# 
   793  0F21                     	;# 
   794  0F22                     	;# 
   795  0F23                     	;# 
   796  0F24                     	;# 
   797  0F25                     	;# 
   798  0F26                     	;# 
   799  0F27                     	;# 
   800  0F28                     	;# 
   801  0F29                     	;# 
   802  0F2A                     	;# 
   803  0F2B                     	;# 
   804  0F2C                     	;# 
   805  0F2D                     	;# 
   806  0F2E                     	;# 
   807  0F2F                     	;# 
   808  0F8C                     	;# 
   809  0F8D                     	;# 
   810  0F91                     	;# 
   811  0F95                     	;# 
   812  0F96                     	;# 
   813  0F97                     	;# 
   814  0F9C                     	;# 
   815  0F9D                     	;# 
   816  0F9E                     	;# 
   817  0FE3                     	;# 
   818  0FE4                     	;# 
   819  0FE5                     	;# 
   820  0FE6                     	;# 
   821  0FE7                     	;# 
   822  0FE8                     	;# 
   823  0FE9                     	;# 
   824  0FEA                     	;# 
   825  0FEB                     	;# 
   826  0FED                     	;# 
   827  0FEE                     	;# 
   828  0FEF                     	;# 
   829  0000                     	;# 
   830  0001                     	;# 
   831  0002                     	;# 
   832  0003                     	;# 
   833  0004                     	;# 
   834  0005                     	;# 
   835  0006                     	;# 
   836  0007                     	;# 
   837  0008                     	;# 
   838  0009                     	;# 
   839  000A                     	;# 
   840  000B                     	;# 
   841  000C                     	;# 
   842  000D                     	;# 
   843  000E                     	;# 
   844  0011                     	;# 
   845  0012                     	;# 
   846  0013                     	;# 
   847  0015                     	;# 
   848  0016                     	;# 
   849  0016                     	;# 
   850  0017                     	;# 
   851  0018                     	;# 
   852  0019                     	;# 
   853  001A                     	;# 
   854  001B                     	;# 
   855  001C                     	;# 
   856  008C                     	;# 
   857  008D                     	;# 
   858  008E                     	;# 
   859  0091                     	;# 
   860  0092                     	;# 
   861  0093                     	;# 
   862  0095                     	;# 
   863  0096                     	;# 
   864  0097                     	;# 
   865  0099                     	;# 
   866  009A                     	;# 
   867  009B                     	;# 
   868  009B                     	;# 
   869  009C                     	;# 
   870  009D                     	;# 
   871  009E                     	;# 
   872  009F                     	;# 
   873  010C                     	;# 
   874  010D                     	;# 
   875  010E                     	;# 
   876  0111                     	;# 
   877  0112                     	;# 
   878  0113                     	;# 
   879  0114                     	;# 
   880  0115                     	;# 
   881  0116                     	;# 
   882  0117                     	;# 
   883  0118                     	;# 
   884  0119                     	;# 
   885  011D                     	;# 
   886  018C                     	;# 
   887  018D                     	;# 
   888  018E                     	;# 
   889  0191                     	;# 
   890  0191                     	;# 
   891  0192                     	;# 
   892  0193                     	;# 
   893  0193                     	;# 
   894  0194                     	;# 
   895  0195                     	;# 
   896  0196                     	;# 
   897  0197                     	;# 
   898  0199                     	;# 
   899  019A                     	;# 
   900  019B                     	;# 
   901  019B                     	;# 
   902  019C                     	;# 
   903  019D                     	;# 
   904  019E                     	;# 
   905  019F                     	;# 
   906  020C                     	;# 
   907  020D                     	;# 
   908  0211                     	;# 
   909  0211                     	;# 
   910  0212                     	;# 
   911  0212                     	;# 
   912  0213                     	;# 
   913  0213                     	;# 
   914  0214                     	;# 
   915  0214                     	;# 
   916  0215                     	;# 
   917  0215                     	;# 
   918  0215                     	;# 
   919  0216                     	;# 
   920  0216                     	;# 
   921  0217                     	;# 
   922  0217                     	;# 
   923  0391                     	;# 
   924  0392                     	;# 
   925  0393                     	;# 
   926  0394                     	;# 
   927  0395                     	;# 
   928  0396                     	;# 
   929  0498                     	;# 
   930  0498                     	;# 
   931  0499                     	;# 
   932  049A                     	;# 
   933  049B                     	;# 
   934  049B                     	;# 
   935  049C                     	;# 
   936  049D                     	;# 
   937  049E                     	;# 
   938  049F                     	;# 
   939  0611                     	;# 
   940  0612                     	;# 
   941  0613                     	;# 
   942  0613                     	;# 
   943  0614                     	;# 
   944  0615                     	;# 
   945  0616                     	;# 
   946  0616                     	;# 
   947  0617                     	;# 
   948  0618                     	;# 
   949  0619                     	;# 
   950  0619                     	;# 
   951  061A                     	;# 
   952  061B                     	;# 
   953  061C                     	;# 
   954  061C                     	;# 
   955  0691                     	;# 
   956  0692                     	;# 
   957  0693                     	;# 
   958  0694                     	;# 
   959  0695                     	;# 
   960  0F0F                     	;# 
   961  0F10                     	;# 
   962  0F11                     	;# 
   963  0F12                     	;# 
   964  0F13                     	;# 
   965  0F14                     	;# 
   966  0F15                     	;# 
   967  0F16                     	;# 
   968  0F17                     	;# 
   969  0F18                     	;# 
   970  0F19                     	;# 
   971  0F1A                     	;# 
   972  0F1B                     	;# 
   973  0F1C                     	;# 
   974  0F1D                     	;# 
   975  0F1E                     	;# 
   976  0F1F                     	;# 
   977  0F20                     	;# 
   978  0F21                     	;# 
   979  0F22                     	;# 
   980  0F23                     	;# 
   981  0F24                     	;# 
   982  0F25                     	;# 
   983  0F26                     	;# 
   984  0F27                     	;# 
   985  0F28                     	;# 
   986  0F29                     	;# 
   987  0F2A                     	;# 
   988  0F2B                     	;# 
   989  0F2C                     	;# 
   990  0F2D                     	;# 
   991  0F2E                     	;# 
   992  0F2F                     	;# 
   993  0F8C                     	;# 
   994  0F8D                     	;# 
   995  0F91                     	;# 
   996  0F95                     	;# 
   997  0F96                     	;# 
   998  0F97                     	;# 
   999  0F9C                     	;# 
  1000  0F9D                     	;# 
  1001  0F9E                     	;# 
  1002  0FE3                     	;# 
  1003  0FE4                     	;# 
  1004  0FE5                     	;# 
  1005  0FE6                     	;# 
  1006  0FE7                     	;# 
  1007  0FE8                     	;# 
  1008  0FE9                     	;# 
  1009  0FEA                     	;# 
  1010  0FEB                     	;# 
  1011  0FED                     	;# 
  1012  0FEE                     	;# 
  1013  0FEF                     	;# 
  1014  0000                     	;# 
  1015  0001                     	;# 
  1016  0002                     	;# 
  1017  0003                     	;# 
  1018  0004                     	;# 
  1019  0005                     	;# 
  1020  0006                     	;# 
  1021  0007                     	;# 
  1022  0008                     	;# 
  1023  0009                     	;# 
  1024  000A                     	;# 
  1025  000B                     	;# 
  1026  000C                     	;# 
  1027  000D                     	;# 
  1028  000E                     	;# 
  1029  0011                     	;# 
  1030  0012                     	;# 
  1031  0013                     	;# 
  1032  0015                     	;# 
  1033  0016                     	;# 
  1034  0016                     	;# 
  1035  0017                     	;# 
  1036  0018                     	;# 
  1037  0019                     	;# 
  1038  001A                     	;# 
  1039  001B                     	;# 
  1040  001C                     	;# 
  1041  008C                     	;# 
  1042  008D                     	;# 
  1043  008E                     	;# 
  1044  0091                     	;# 
  1045  0092                     	;# 
  1046  0093                     	;# 
  1047  0095                     	;# 
  1048  0096                     	;# 
  1049  0097                     	;# 
  1050  0099                     	;# 
  1051  009A                     	;# 
  1052  009B                     	;# 
  1053  009B                     	;# 
  1054  009C                     	;# 
  1055  009D                     	;# 
  1056  009E                     	;# 
  1057  009F                     	;# 
  1058  010C                     	;# 
  1059  010D                     	;# 
  1060  010E                     	;# 
  1061  0111                     	;# 
  1062  0112                     	;# 
  1063  0113                     	;# 
  1064  0114                     	;# 
  1065  0115                     	;# 
  1066  0116                     	;# 
  1067  0117                     	;# 
  1068  0118                     	;# 
  1069  0119                     	;# 
  1070  011D                     	;# 
  1071  018C                     	;# 
  1072  018D                     	;# 
  1073  018E                     	;# 
  1074  0191                     	;# 
  1075  0191                     	;# 
  1076  0192                     	;# 
  1077  0193                     	;# 
  1078  0193                     	;# 
  1079  0194                     	;# 
  1080  0195                     	;# 
  1081  0196                     	;# 
  1082  0197                     	;# 
  1083  0199                     	;# 
  1084  019A                     	;# 
  1085  019B                     	;# 
  1086  019B                     	;# 
  1087  019C                     	;# 
  1088  019D                     	;# 
  1089  019E                     	;# 
  1090  019F                     	;# 
  1091  020C                     	;# 
  1092  020D                     	;# 
  1093  0211                     	;# 
  1094  0211                     	;# 
  1095  0212                     	;# 
  1096  0212                     	;# 
  1097  0213                     	;# 
  1098  0213                     	;# 
  1099  0214                     	;# 
  1100  0214                     	;# 
  1101  0215                     	;# 
  1102  0215                     	;# 
  1103  0215                     	;# 
  1104  0216                     	;# 
  1105  0216                     	;# 
  1106  0217                     	;# 
  1107  0217                     	;# 
  1108  0391                     	;# 
  1109  0392                     	;# 
  1110  0393                     	;# 
  1111  0394                     	;# 
  1112  0395                     	;# 
  1113  0396                     	;# 
  1114  0498                     	;# 
  1115  0498                     	;# 
  1116  0499                     	;# 
  1117  049A                     	;# 
  1118  049B                     	;# 
  1119  049B                     	;# 
  1120  049C                     	;# 
  1121  049D                     	;# 
  1122  049E                     	;# 
  1123  049F                     	;# 
  1124  0611                     	;# 
  1125  0612                     	;# 
  1126  0613                     	;# 
  1127  0613                     	;# 
  1128  0614                     	;# 
  1129  0615                     	;# 
  1130  0616                     	;# 
  1131  0616                     	;# 
  1132  0617                     	;# 
  1133  0618                     	;# 
  1134  0619                     	;# 
  1135  0619                     	;# 
  1136  061A                     	;# 
  1137  061B                     	;# 
  1138  061C                     	;# 
  1139  061C                     	;# 
  1140  0691                     	;# 
  1141  0692                     	;# 
  1142  0693                     	;# 
  1143  0694                     	;# 
  1144  0695                     	;# 
  1145  0F0F                     	;# 
  1146  0F10                     	;# 
  1147  0F11                     	;# 
  1148  0F12                     	;# 
  1149  0F13                     	;# 
  1150  0F14                     	;# 
  1151  0F15                     	;# 
  1152  0F16                     	;# 
  1153  0F17                     	;# 
  1154  0F18                     	;# 
  1155  0F19                     	;# 
  1156  0F1A                     	;# 
  1157  0F1B                     	;# 
  1158  0F1C                     	;# 
  1159  0F1D                     	;# 
  1160  0F1E                     	;# 
  1161  0F1F                     	;# 
  1162  0F20                     	;# 
  1163  0F21                     	;# 
  1164  0F22                     	;# 
  1165  0F23                     	;# 
  1166  0F24                     	;# 
  1167  0F25                     	;# 
  1168  0F26                     	;# 
  1169  0F27                     	;# 
  1170  0F28                     	;# 
  1171  0F29                     	;# 
  1172  0F2A                     	;# 
  1173  0F2B                     	;# 
  1174  0F2C                     	;# 
  1175  0F2D                     	;# 
  1176  0F2E                     	;# 
  1177  0F2F                     	;# 
  1178  0F8C                     	;# 
  1179  0F8D                     	;# 
  1180  0F91                     	;# 
  1181  0F95                     	;# 
  1182  0F96                     	;# 
  1183  0F97                     	;# 
  1184  0F9C                     	;# 
  1185  0F9D                     	;# 
  1186  0F9E                     	;# 
  1187  0FE3                     	;# 
  1188  0FE4                     	;# 
  1189  0FE5                     	;# 
  1190  0FE6                     	;# 
  1191  0FE7                     	;# 
  1192  0FE8                     	;# 
  1193  0FE9                     	;# 
  1194  0FEA                     	;# 
  1195  0FEB                     	;# 
  1196  0FED                     	;# 
  1197  0FEE                     	;# 
  1198  0FEF                     	;# 
  1199  0000                     	;# 
  1200  0001                     	;# 
  1201  0002                     	;# 
  1202  0003                     	;# 
  1203  0004                     	;# 
  1204  0005                     	;# 
  1205  0006                     	;# 
  1206  0007                     	;# 
  1207  0008                     	;# 
  1208  0009                     	;# 
  1209  000A                     	;# 
  1210  000B                     	;# 
  1211  000C                     	;# 
  1212  000D                     	;# 
  1213  000E                     	;# 
  1214  0011                     	;# 
  1215  0012                     	;# 
  1216  0013                     	;# 
  1217  0015                     	;# 
  1218  0016                     	;# 
  1219  0016                     	;# 
  1220  0017                     	;# 
  1221  0018                     	;# 
  1222  0019                     	;# 
  1223  001A                     	;# 
  1224  001B                     	;# 
  1225  001C                     	;# 
  1226  008C                     	;# 
  1227  008D                     	;# 
  1228  008E                     	;# 
  1229  0091                     	;# 
  1230  0092                     	;# 
  1231  0093                     	;# 
  1232  0095                     	;# 
  1233  0096                     	;# 
  1234  0097                     	;# 
  1235  0099                     	;# 
  1236  009A                     	;# 
  1237  009B                     	;# 
  1238  009B                     	;# 
  1239  009C                     	;# 
  1240  009D                     	;# 
  1241  009E                     	;# 
  1242  009F                     	;# 
  1243  010C                     	;# 
  1244  010D                     	;# 
  1245  010E                     	;# 
  1246  0111                     	;# 
  1247  0112                     	;# 
  1248  0113                     	;# 
  1249  0114                     	;# 
  1250  0115                     	;# 
  1251  0116                     	;# 
  1252  0117                     	;# 
  1253  0118                     	;# 
  1254  0119                     	;# 
  1255  011D                     	;# 
  1256  018C                     	;# 
  1257  018D                     	;# 
  1258  018E                     	;# 
  1259  0191                     	;# 
  1260  0191                     	;# 
  1261  0192                     	;# 
  1262  0193                     	;# 
  1263  0193                     	;# 
  1264  0194                     	;# 
  1265  0195                     	;# 
  1266  0196                     	;# 
  1267  0197                     	;# 
  1268  0199                     	;# 
  1269  019A                     	;# 
  1270  019B                     	;# 
  1271  019B                     	;# 
  1272  019C                     	;# 
  1273  019D                     	;# 
  1274  019E                     	;# 
  1275  019F                     	;# 
  1276  020C                     	;# 
  1277  020D                     	;# 
  1278  0211                     	;# 
  1279  0211                     	;# 
  1280  0212                     	;# 
  1281  0212                     	;# 
  1282  0213                     	;# 
  1283  0213                     	;# 
  1284  0214                     	;# 
  1285  0214                     	;# 
  1286  0215                     	;# 
  1287  0215                     	;# 
  1288  0215                     	;# 
  1289  0216                     	;# 
  1290  0216                     	;# 
  1291  0217                     	;# 
  1292  0217                     	;# 
  1293  0391                     	;# 
  1294  0392                     	;# 
  1295  0393                     	;# 
  1296  0394                     	;# 
  1297  0395                     	;# 
  1298  0396                     	;# 
  1299  0498                     	;# 
  1300  0498                     	;# 
  1301  0499                     	;# 
  1302  049A                     	;# 
  1303  049B                     	;# 
  1304  049B                     	;# 
  1305  049C                     	;# 
  1306  049D                     	;# 
  1307  049E                     	;# 
  1308  049F                     	;# 
  1309  0611                     	;# 
  1310  0612                     	;# 
  1311  0613                     	;# 
  1312  0613                     	;# 
  1313  0614                     	;# 
  1314  0615                     	;# 
  1315  0616                     	;# 
  1316  0616                     	;# 
  1317  0617                     	;# 
  1318  0618                     	;# 
  1319  0619                     	;# 
  1320  0619                     	;# 
  1321  061A                     	;# 
  1322  061B                     	;# 
  1323  061C                     	;# 
  1324  061C                     	;# 
  1325  0691                     	;# 
  1326  0692                     	;# 
  1327  0693                     	;# 
  1328  0694                     	;# 
  1329  0695                     	;# 
  1330  0F0F                     	;# 
  1331  0F10                     	;# 
  1332  0F11                     	;# 
  1333  0F12                     	;# 
  1334  0F13                     	;# 
  1335  0F14                     	;# 
  1336  0F15                     	;# 
  1337  0F16                     	;# 
  1338  0F17                     	;# 
  1339  0F18                     	;# 
  1340  0F19                     	;# 
  1341  0F1A                     	;# 
  1342  0F1B                     	;# 
  1343  0F1C                     	;# 
  1344  0F1D                     	;# 
  1345  0F1E                     	;# 
  1346  0F1F                     	;# 
  1347  0F20                     	;# 
  1348  0F21                     	;# 
  1349  0F22                     	;# 
  1350  0F23                     	;# 
  1351  0F24                     	;# 
  1352  0F25                     	;# 
  1353  0F26                     	;# 
  1354  0F27                     	;# 
  1355  0F28                     	;# 
  1356  0F29                     	;# 
  1357  0F2A                     	;# 
  1358  0F2B                     	;# 
  1359  0F2C                     	;# 
  1360  0F2D                     	;# 
  1361  0F2E                     	;# 
  1362  0F2F                     	;# 
  1363  0F8C                     	;# 
  1364  0F8D                     	;# 
  1365  0F91                     	;# 
  1366  0F95                     	;# 
  1367  0F96                     	;# 
  1368  0F97                     	;# 
  1369  0F9C                     	;# 
  1370  0F9D                     	;# 
  1371  0F9E                     	;# 
  1372  0FE3                     	;# 
  1373  0FE4                     	;# 
  1374  0FE5                     	;# 
  1375  0FE6                     	;# 
  1376  0FE7                     	;# 
  1377  0FE8                     	;# 
  1378  0FE9                     	;# 
  1379  0FEA                     	;# 
  1380  0FEB                     	;# 
  1381  0FED                     	;# 
  1382  0FEE                     	;# 
  1383  0FEF                     	;# 
  1384  0000                     	;# 
  1385  0001                     	;# 
  1386  0002                     	;# 
  1387  0003                     	;# 
  1388  0004                     	;# 
  1389  0005                     	;# 
  1390  0006                     	;# 
  1391  0007                     	;# 
  1392  0008                     	;# 
  1393  0009                     	;# 
  1394  000A                     	;# 
  1395  000B                     	;# 
  1396  000C                     	;# 
  1397  000D                     	;# 
  1398  000E                     	;# 
  1399  0011                     	;# 
  1400  0012                     	;# 
  1401  0013                     	;# 
  1402  0015                     	;# 
  1403  0016                     	;# 
  1404  0016                     	;# 
  1405  0017                     	;# 
  1406  0018                     	;# 
  1407  0019                     	;# 
  1408  001A                     	;# 
  1409  001B                     	;# 
  1410  001C                     	;# 
  1411  008C                     	;# 
  1412  008D                     	;# 
  1413  008E                     	;# 
  1414  0091                     	;# 
  1415  0092                     	;# 
  1416  0093                     	;# 
  1417  0095                     	;# 
  1418  0096                     	;# 
  1419  0097                     	;# 
  1420  0099                     	;# 
  1421  009A                     	;# 
  1422  009B                     	;# 
  1423  009B                     	;# 
  1424  009C                     	;# 
  1425  009D                     	;# 
  1426  009E                     	;# 
  1427  009F                     	;# 
  1428  010C                     	;# 
  1429  010D                     	;# 
  1430  010E                     	;# 
  1431  0111                     	;# 
  1432  0112                     	;# 
  1433  0113                     	;# 
  1434  0114                     	;# 
  1435  0115                     	;# 
  1436  0116                     	;# 
  1437  0117                     	;# 
  1438  0118                     	;# 
  1439  0119                     	;# 
  1440  011D                     	;# 
  1441  018C                     	;# 
  1442  018D                     	;# 
  1443  018E                     	;# 
  1444  0191                     	;# 
  1445  0191                     	;# 
  1446  0192                     	;# 
  1447  0193                     	;# 
  1448  0193                     	;# 
  1449  0194                     	;# 
  1450  0195                     	;# 
  1451  0196                     	;# 
  1452  0197                     	;# 
  1453  0199                     	;# 
  1454  019A                     	;# 
  1455  019B                     	;# 
  1456  019B                     	;# 
  1457  019C                     	;# 
  1458  019D                     	;# 
  1459  019E                     	;# 
  1460  019F                     	;# 
  1461  020C                     	;# 
  1462  020D                     	;# 
  1463  0211                     	;# 
  1464  0211                     	;# 
  1465  0212                     	;# 
  1466  0212                     	;# 
  1467  0213                     	;# 
  1468  0213                     	;# 
  1469  0214                     	;# 
  1470  0214                     	;# 
  1471  0215                     	;# 
  1472  0215                     	;# 
  1473  0215                     	;# 
  1474  0216                     	;# 
  1475  0216                     	;# 
  1476  0217                     	;# 
  1477  0217                     	;# 
  1478  0391                     	;# 
  1479  0392                     	;# 
  1480  0393                     	;# 
  1481  0394                     	;# 
  1482  0395                     	;# 
  1483  0396                     	;# 
  1484  0498                     	;# 
  1485  0498                     	;# 
  1486  0499                     	;# 
  1487  049A                     	;# 
  1488  049B                     	;# 
  1489  049B                     	;# 
  1490  049C                     	;# 
  1491  049D                     	;# 
  1492  049E                     	;# 
  1493  049F                     	;# 
  1494  0611                     	;# 
  1495  0612                     	;# 
  1496  0613                     	;# 
  1497  0613                     	;# 
  1498  0614                     	;# 
  1499  0615                     	;# 
  1500  0616                     	;# 
  1501  0616                     	;# 
  1502  0617                     	;# 
  1503  0618                     	;# 
  1504  0619                     	;# 
  1505  0619                     	;# 
  1506  061A                     	;# 
  1507  061B                     	;# 
  1508  061C                     	;# 
  1509  061C                     	;# 
  1510  0691                     	;# 
  1511  0692                     	;# 
  1512  0693                     	;# 
  1513  0694                     	;# 
  1514  0695                     	;# 
  1515  0F0F                     	;# 
  1516  0F10                     	;# 
  1517  0F11                     	;# 
  1518  0F12                     	;# 
  1519  0F13                     	;# 
  1520  0F14                     	;# 
  1521  0F15                     	;# 
  1522  0F16                     	;# 
  1523  0F17                     	;# 
  1524  0F18                     	;# 
  1525  0F19                     	;# 
  1526  0F1A                     	;# 
  1527  0F1B                     	;# 
  1528  0F1C                     	;# 
  1529  0F1D                     	;# 
  1530  0F1E                     	;# 
  1531  0F1F                     	;# 
  1532  0F20                     	;# 
  1533  0F21                     	;# 
  1534  0F22                     	;# 
  1535  0F23                     	;# 
  1536  0F24                     	;# 
  1537  0F25                     	;# 
  1538  0F26                     	;# 
  1539  0F27                     	;# 
  1540  0F28                     	;# 
  1541  0F29                     	;# 
  1542  0F2A                     	;# 
  1543  0F2B                     	;# 
  1544  0F2C                     	;# 
  1545  0F2D                     	;# 
  1546  0F2E                     	;# 
  1547  0F2F                     	;# 
  1548  0F8C                     	;# 
  1549  0F8D                     	;# 
  1550  0F91                     	;# 
  1551  0F95                     	;# 
  1552  0F96                     	;# 
  1553  0F97                     	;# 
  1554  0F9C                     	;# 
  1555  0F9D                     	;# 
  1556  0F9E                     	;# 
  1557  0FE3                     	;# 
  1558  0FE4                     	;# 
  1559  0FE5                     	;# 
  1560  0FE6                     	;# 
  1561  0FE7                     	;# 
  1562  0FE8                     	;# 
  1563  0FE9                     	;# 
  1564  0FEA                     	;# 
  1565  0FEB                     	;# 
  1566  0FED                     	;# 
  1567  0FEE                     	;# 
  1568  0FEF                     	;# 
  1569  0000                     	;# 
  1570  0001                     	;# 
  1571  0002                     	;# 
  1572  0003                     	;# 
  1573  0004                     	;# 
  1574  0005                     	;# 
  1575  0006                     	;# 
  1576  0007                     	;# 
  1577  0008                     	;# 
  1578  0009                     	;# 
  1579  000A                     	;# 
  1580  000B                     	;# 
  1581  000C                     	;# 
  1582  000D                     	;# 
  1583  000E                     	;# 
  1584  0011                     	;# 
  1585  0012                     	;# 
  1586  0013                     	;# 
  1587  0015                     	;# 
  1588  0016                     	;# 
  1589  0016                     	;# 
  1590  0017                     	;# 
  1591  0018                     	;# 
  1592  0019                     	;# 
  1593  001A                     	;# 
  1594  001B                     	;# 
  1595  001C                     	;# 
  1596  008C                     	;# 
  1597  008D                     	;# 
  1598  008E                     	;# 
  1599  0091                     	;# 
  1600  0092                     	;# 
  1601  0093                     	;# 
  1602  0095                     	;# 
  1603  0096                     	;# 
  1604  0097                     	;# 
  1605  0099                     	;# 
  1606  009A                     	;# 
  1607  009B                     	;# 
  1608  009B                     	;# 
  1609  009C                     	;# 
  1610  009D                     	;# 
  1611  009E                     	;# 
  1612  009F                     	;# 
  1613  010C                     	;# 
  1614  010D                     	;# 
  1615  010E                     	;# 
  1616  0111                     	;# 
  1617  0112                     	;# 
  1618  0113                     	;# 
  1619  0114                     	;# 
  1620  0115                     	;# 
  1621  0116                     	;# 
  1622  0117                     	;# 
  1623  0118                     	;# 
  1624  0119                     	;# 
  1625  011D                     	;# 
  1626  018C                     	;# 
  1627  018D                     	;# 
  1628  018E                     	;# 
  1629  0191                     	;# 
  1630  0191                     	;# 
  1631  0192                     	;# 
  1632  0193                     	;# 
  1633  0193                     	;# 
  1634  0194                     	;# 
  1635  0195                     	;# 
  1636  0196                     	;# 
  1637  0197                     	;# 
  1638  0199                     	;# 
  1639  019A                     	;# 
  1640  019B                     	;# 
  1641  019B                     	;# 
  1642  019C                     	;# 
  1643  019D                     	;# 
  1644  019E                     	;# 
  1645  019F                     	;# 
  1646  020C                     	;# 
  1647  020D                     	;# 
  1648  0211                     	;# 
  1649  0211                     	;# 
  1650  0212                     	;# 
  1651  0212                     	;# 
  1652  0213                     	;# 
  1653  0213                     	;# 
  1654  0214                     	;# 
  1655  0214                     	;# 
  1656  0215                     	;# 
  1657  0215                     	;# 
  1658  0215                     	;# 
  1659  0216                     	;# 
  1660  0216                     	;# 
  1661  0217                     	;# 
  1662  0217                     	;# 
  1663  0391                     	;# 
  1664  0392                     	;# 
  1665  0393                     	;# 
  1666  0394                     	;# 
  1667  0395                     	;# 
  1668  0396                     	;# 
  1669  0498                     	;# 
  1670  0498                     	;# 
  1671  0499                     	;# 
  1672  049A                     	;# 
  1673  049B                     	;# 
  1674  049B                     	;# 
  1675  049C                     	;# 
  1676  049D                     	;# 
  1677  049E                     	;# 
  1678  049F                     	;# 
  1679  0611                     	;# 
  1680  0612                     	;# 
  1681  0613                     	;# 
  1682  0613                     	;# 
  1683  0614                     	;# 
  1684  0615                     	;# 
  1685  0616                     	;# 
  1686  0616                     	;# 
  1687  0617                     	;# 
  1688  0618                     	;# 
  1689  0619                     	;# 
  1690  0619                     	;# 
  1691  061A                     	;# 
  1692  061B                     	;# 
  1693  061C                     	;# 
  1694  061C                     	;# 
  1695  0691                     	;# 
  1696  0692                     	;# 
  1697  0693                     	;# 
  1698  0694                     	;# 
  1699  0695                     	;# 
  1700  0F0F                     	;# 
  1701  0F10                     	;# 
  1702  0F11                     	;# 
  1703  0F12                     	;# 
  1704  0F13                     	;# 
  1705  0F14                     	;# 
  1706  0F15                     	;# 
  1707  0F16                     	;# 
  1708  0F17                     	;# 
  1709  0F18                     	;# 
  1710  0F19                     	;# 
  1711  0F1A                     	;# 
  1712  0F1B                     	;# 
  1713  0F1C                     	;# 
  1714  0F1D                     	;# 
  1715  0F1E                     	;# 
  1716  0F1F                     	;# 
  1717  0F20                     	;# 
  1718  0F21                     	;# 
  1719  0F22                     	;# 
  1720  0F23                     	;# 
  1721  0F24                     	;# 
  1722  0F25                     	;# 
  1723  0F26                     	;# 
  1724  0F27                     	;# 
  1725  0F28                     	;# 
  1726  0F29                     	;# 
  1727  0F2A                     	;# 
  1728  0F2B                     	;# 
  1729  0F2C                     	;# 
  1730  0F2D                     	;# 
  1731  0F2E                     	;# 
  1732  0F2F                     	;# 
  1733  0F8C                     	;# 
  1734  0F8D                     	;# 
  1735  0F91                     	;# 
  1736  0F95                     	;# 
  1737  0F96                     	;# 
  1738  0F97                     	;# 
  1739  0F9C                     	;# 
  1740  0F9D                     	;# 
  1741  0F9E                     	;# 
  1742  0FE3                     	;# 
  1743  0FE4                     	;# 
  1744  0FE5                     	;# 
  1745  0FE6                     	;# 
  1746  0FE7                     	;# 
  1747  0FE8                     	;# 
  1748  0FE9                     	;# 
  1749  0FEA                     	;# 
  1750  0FEB                     	;# 
  1751  0FED                     	;# 
  1752  0FEE                     	;# 
  1753  0FEF                     	;# 
  1754  0000                     	;# 
  1755  0001                     	;# 
  1756  0002                     	;# 
  1757  0003                     	;# 
  1758  0004                     	;# 
  1759  0005                     	;# 
  1760  0006                     	;# 
  1761  0007                     	;# 
  1762  0008                     	;# 
  1763  0009                     	;# 
  1764  000A                     	;# 
  1765  000B                     	;# 
  1766  000C                     	;# 
  1767  000D                     	;# 
  1768  000E                     	;# 
  1769  0011                     	;# 
  1770  0012                     	;# 
  1771  0013                     	;# 
  1772  0015                     	;# 
  1773  0016                     	;# 
  1774  0016                     	;# 
  1775  0017                     	;# 
  1776  0018                     	;# 
  1777  0019                     	;# 
  1778  001A                     	;# 
  1779  001B                     	;# 
  1780  001C                     	;# 
  1781  008C                     	;# 
  1782  008D                     	;# 
  1783  008E                     	;# 
  1784  0091                     	;# 
  1785  0092                     	;# 
  1786  0093                     	;# 
  1787  0095                     	;# 
  1788  0096                     	;# 
  1789  0097                     	;# 
  1790  0099                     	;# 
  1791  009A                     	;# 
  1792  009B                     	;# 
  1793  009B                     	;# 
  1794  009C                     	;# 
  1795  009D                     	;# 
  1796  009E                     	;# 
  1797  009F                     	;# 
  1798  010C                     	;# 
  1799  010D                     	;# 
  1800  010E                     	;# 
  1801  0111                     	;# 
  1802  0112                     	;# 
  1803  0113                     	;# 
  1804  0114                     	;# 
  1805  0115                     	;# 
  1806  0116                     	;# 
  1807  0117                     	;# 
  1808  0118                     	;# 
  1809  0119                     	;# 
  1810  011D                     	;# 
  1811  018C                     	;# 
  1812  018D                     	;# 
  1813  018E                     	;# 
  1814  0191                     	;# 
  1815  0191                     	;# 
  1816  0192                     	;# 
  1817  0193                     	;# 
  1818  0193                     	;# 
  1819  0194                     	;# 
  1820  0195                     	;# 
  1821  0196                     	;# 
  1822  0197                     	;# 
  1823  0199                     	;# 
  1824  019A                     	;# 
  1825  019B                     	;# 
  1826  019B                     	;# 
  1827  019C                     	;# 
  1828  019D                     	;# 
  1829  019E                     	;# 
  1830  019F                     	;# 
  1831  020C                     	;# 
  1832  020D                     	;# 
  1833  0211                     	;# 
  1834  0211                     	;# 
  1835  0212                     	;# 
  1836  0212                     	;# 
  1837  0213                     	;# 
  1838  0213                     	;# 
  1839  0214                     	;# 
  1840  0214                     	;# 
  1841  0215                     	;# 
  1842  0215                     	;# 
  1843  0215                     	;# 
  1844  0216                     	;# 
  1845  0216                     	;# 
  1846  0217                     	;# 
  1847  0217                     	;# 
  1848  0391                     	;# 
  1849  0392                     	;# 
  1850  0393                     	;# 
  1851  0394                     	;# 
  1852  0395                     	;# 
  1853  0396                     	;# 
  1854  0498                     	;# 
  1855  0498                     	;# 
  1856  0499                     	;# 
  1857  049A                     	;# 
  1858  049B                     	;# 
  1859  049B                     	;# 
  1860  049C                     	;# 
  1861  049D                     	;# 
  1862  049E                     	;# 
  1863  049F                     	;# 
  1864  0611                     	;# 
  1865  0612                     	;# 
  1866  0613                     	;# 
  1867  0613                     	;# 
  1868  0614                     	;# 
  1869  0615                     	;# 
  1870  0616                     	;# 
  1871  0616                     	;# 
  1872  0617                     	;# 
  1873  0618                     	;# 
  1874  0619                     	;# 
  1875  0619                     	;# 
  1876  061A                     	;# 
  1877  061B                     	;# 
  1878  061C                     	;# 
  1879  061C                     	;# 
  1880  0691                     	;# 
  1881  0692                     	;# 
  1882  0693                     	;# 
  1883  0694                     	;# 
  1884  0695                     	;# 
  1885  0F0F                     	;# 
  1886  0F10                     	;# 
  1887  0F11                     	;# 
  1888  0F12                     	;# 
  1889  0F13                     	;# 
  1890  0F14                     	;# 
  1891  0F15                     	;# 
  1892  0F16                     	;# 
  1893  0F17                     	;# 
  1894  0F18                     	;# 
  1895  0F19                     	;# 
  1896  0F1A                     	;# 
  1897  0F1B                     	;# 
  1898  0F1C                     	;# 
  1899  0F1D                     	;# 
  1900  0F1E                     	;# 
  1901  0F1F                     	;# 
  1902  0F20                     	;# 
  1903  0F21                     	;# 
  1904  0F22                     	;# 
  1905  0F23                     	;# 
  1906  0F24                     	;# 
  1907  0F25                     	;# 
  1908  0F26                     	;# 
  1909  0F27                     	;# 
  1910  0F28                     	;# 
  1911  0F29                     	;# 
  1912  0F2A                     	;# 
  1913  0F2B                     	;# 
  1914  0F2C                     	;# 
  1915  0F2D                     	;# 
  1916  0F2E                     	;# 
  1917  0F2F                     	;# 
  1918  0F8C                     	;# 
  1919  0F8D                     	;# 
  1920  0F91                     	;# 
  1921  0F95                     	;# 
  1922  0F96                     	;# 
  1923  0F97                     	;# 
  1924  0F9C                     	;# 
  1925  0F9D                     	;# 
  1926  0F9E                     	;# 
  1927  0FE3                     	;# 
  1928  0FE4                     	;# 
  1929  0FE5                     	;# 
  1930  0FE6                     	;# 
  1931  0FE7                     	;# 
  1932  0FE8                     	;# 
  1933  0FE9                     	;# 
  1934  0FEA                     	;# 
  1935  0FEB                     	;# 
  1936  0FED                     	;# 
  1937  0FEE                     	;# 
  1938  0FEF                     	;# 
  1939  0000                     	;# 
  1940  0001                     	;# 
  1941  0002                     	;# 
  1942  0003                     	;# 
  1943  0004                     	;# 
  1944  0005                     	;# 
  1945  0006                     	;# 
  1946  0007                     	;# 
  1947  0008                     	;# 
  1948  0009                     	;# 
  1949  000A                     	;# 
  1950  000B                     	;# 
  1951  000C                     	;# 
  1952  000D                     	;# 
  1953  000E                     	;# 
  1954  0011                     	;# 
  1955  0012                     	;# 
  1956  0013                     	;# 
  1957  0015                     	;# 
  1958  0016                     	;# 
  1959  0016                     	;# 
  1960  0017                     	;# 
  1961  0018                     	;# 
  1962  0019                     	;# 
  1963  001A                     	;# 
  1964  001B                     	;# 
  1965  001C                     	;# 
  1966  008C                     	;# 
  1967  008D                     	;# 
  1968  008E                     	;# 
  1969  0091                     	;# 
  1970  0092                     	;# 
  1971  0093                     	;# 
  1972  0095                     	;# 
  1973  0096                     	;# 
  1974  0097                     	;# 
  1975  0099                     	;# 
  1976  009A                     	;# 
  1977  009B                     	;# 
  1978  009B                     	;# 
  1979  009C                     	;# 
  1980  009D                     	;# 
  1981  009E                     	;# 
  1982  009F                     	;# 
  1983  010C                     	;# 
  1984  010D                     	;# 
  1985  010E                     	;# 
  1986  0111                     	;# 
  1987  0112                     	;# 
  1988  0113                     	;# 
  1989  0114                     	;# 
  1990  0115                     	;# 
  1991  0116                     	;# 
  1992  0117                     	;# 
  1993  0118                     	;# 
  1994  0119                     	;# 
  1995  011D                     	;# 
  1996  018C                     	;# 
  1997  018D                     	;# 
  1998  018E                     	;# 
  1999  0191                     	;# 
  2000  0191                     	;# 
  2001  0192                     	;# 
  2002  0193                     	;# 
  2003  0193                     	;# 
  2004  0194                     	;# 
  2005  0195                     	;# 
  2006  0196                     	;# 
  2007  0197                     	;# 
  2008  0199                     	;# 
  2009  019A                     	;# 
  2010  019B                     	;# 
  2011  019B                     	;# 
  2012  019C                     	;# 
  2013  019D                     	;# 
  2014  019E                     	;# 
  2015  019F                     	;# 
  2016  020C                     	;# 
  2017  020D                     	;# 
  2018  0211                     	;# 
  2019  0211                     	;# 
  2020  0212                     	;# 
  2021  0212                     	;# 
  2022  0213                     	;# 
  2023  0213                     	;# 
  2024  0214                     	;# 
  2025  0214                     	;# 
  2026  0215                     	;# 
  2027  0215                     	;# 
  2028  0215                     	;# 
  2029  0216                     	;# 
  2030  0216                     	;# 
  2031  0217                     	;# 
  2032  0217                     	;# 
  2033  0391                     	;# 
  2034  0392                     	;# 
  2035  0393                     	;# 
  2036  0394                     	;# 
  2037  0395                     	;# 
  2038  0396                     	;# 
  2039  0498                     	;# 
  2040  0498                     	;# 
  2041  0499                     	;# 
  2042  049A                     	;# 
  2043  049B                     	;# 
  2044  049B                     	;# 
  2045  049C                     	;# 
  2046  049D                     	;# 
  2047  049E                     	;# 
  2048  049F                     	;# 
  2049  0611                     	;# 
  2050  0612                     	;# 
  2051  0613                     	;# 
  2052  0613                     	;# 
  2053  0614                     	;# 
  2054  0615                     	;# 
  2055  0616                     	;# 
  2056  0616                     	;# 
  2057  0617                     	;# 
  2058  0618                     	;# 
  2059  0619                     	;# 
  2060  0619                     	;# 
  2061  061A                     	;# 
  2062  061B                     	;# 
  2063  061C                     	;# 
  2064  061C                     	;# 
  2065  0691                     	;# 
  2066  0692                     	;# 
  2067  0693                     	;# 
  2068  0694                     	;# 
  2069  0695                     	;# 
  2070  0F0F                     	;# 
  2071  0F10                     	;# 
  2072  0F11                     	;# 
  2073  0F12                     	;# 
  2074  0F13                     	;# 
  2075  0F14                     	;# 
  2076  0F15                     	;# 
  2077  0F16                     	;# 
  2078  0F17                     	;# 
  2079  0F18                     	;# 
  2080  0F19                     	;# 
  2081  0F1A                     	;# 
  2082  0F1B                     	;# 
  2083  0F1C                     	;# 
  2084  0F1D                     	;# 
  2085  0F1E                     	;# 
  2086  0F1F                     	;# 
  2087  0F20                     	;# 
  2088  0F21                     	;# 
  2089  0F22                     	;# 
  2090  0F23                     	;# 
  2091  0F24                     	;# 
  2092  0F25                     	;# 
  2093  0F26                     	;# 
  2094  0F27                     	;# 
  2095  0F28                     	;# 
  2096  0F29                     	;# 
  2097  0F2A                     	;# 
  2098  0F2B                     	;# 
  2099  0F2C                     	;# 
  2100  0F2D                     	;# 
  2101  0F2E                     	;# 
  2102  0F2F                     	;# 
  2103  0F8C                     	;# 
  2104  0F8D                     	;# 
  2105  0F91                     	;# 
  2106  0F95                     	;# 
  2107  0F96                     	;# 
  2108  0F97                     	;# 
  2109  0F9C                     	;# 
  2110  0F9D                     	;# 
  2111  0F9E                     	;# 
  2112  0FE3                     	;# 
  2113  0FE4                     	;# 
  2114  0FE5                     	;# 
  2115  0FE6                     	;# 
  2116  0FE7                     	;# 
  2117  0FE8                     	;# 
  2118  0FE9                     	;# 
  2119  0FEA                     	;# 
  2120  0FEB                     	;# 
  2121  0FED                     	;# 
  2122  0FEE                     	;# 
  2123  0FEF                     	;# 
  2124  0000                     	;# 
  2125  0001                     	;# 
  2126  0002                     	;# 
  2127  0003                     	;# 
  2128  0004                     	;# 
  2129  0005                     	;# 
  2130  0006                     	;# 
  2131  0007                     	;# 
  2132  0008                     	;# 
  2133  0009                     	;# 
  2134  000A                     	;# 
  2135  000B                     	;# 
  2136  000C                     	;# 
  2137  000D                     	;# 
  2138  000E                     	;# 
  2139  0011                     	;# 
  2140  0012                     	;# 
  2141  0013                     	;# 
  2142  0015                     	;# 
  2143  0016                     	;# 
  2144  0016                     	;# 
  2145  0017                     	;# 
  2146  0018                     	;# 
  2147  0019                     	;# 
  2148  001A                     	;# 
  2149  001B                     	;# 
  2150  001C                     	;# 
  2151  008C                     	;# 
  2152  008D                     	;# 
  2153  008E                     	;# 
  2154  0091                     	;# 
  2155  0092                     	;# 
  2156  0093                     	;# 
  2157  0095                     	;# 
  2158  0096                     	;# 
  2159  0097                     	;# 
  2160  0099                     	;# 
  2161  009A                     	;# 
  2162  009B                     	;# 
  2163  009B                     	;# 
  2164  009C                     	;# 
  2165  009D                     	;# 
  2166  009E                     	;# 
  2167  009F                     	;# 
  2168  010C                     	;# 
  2169  010D                     	;# 
  2170  010E                     	;# 
  2171  0111                     	;# 
  2172  0112                     	;# 
  2173  0113                     	;# 
  2174  0114                     	;# 
  2175  0115                     	;# 
  2176  0116                     	;# 
  2177  0117                     	;# 
  2178  0118                     	;# 
  2179  0119                     	;# 
  2180  011D                     	;# 
  2181  018C                     	;# 
  2182  018D                     	;# 
  2183  018E                     	;# 
  2184  0191                     	;# 
  2185  0191                     	;# 
  2186  0192                     	;# 
  2187  0193                     	;# 
  2188  0193                     	;# 
  2189  0194                     	;# 
  2190  0195                     	;# 
  2191  0196                     	;# 
  2192  0197                     	;# 
  2193  0199                     	;# 
  2194  019A                     	;# 
  2195  019B                     	;# 
  2196  019B                     	;# 
  2197  019C                     	;# 
  2198  019D                     	;# 
  2199  019E                     	;# 
  2200  019F                     	;# 
  2201  020C                     	;# 
  2202  020D                     	;# 
  2203  0211                     	;# 
  2204  0211                     	;# 
  2205  0212                     	;# 
  2206  0212                     	;# 
  2207  0213                     	;# 
  2208  0213                     	;# 
  2209  0214                     	;# 
  2210  0214                     	;# 
  2211  0215                     	;# 
  2212  0215                     	;# 
  2213  0215                     	;# 
  2214  0216                     	;# 
  2215  0216                     	;# 
  2216  0217                     	;# 
  2217  0217                     	;# 
  2218  0391                     	;# 
  2219  0392                     	;# 
  2220  0393                     	;# 
  2221  0394                     	;# 
  2222  0395                     	;# 
  2223  0396                     	;# 
  2224  0498                     	;# 
  2225  0498                     	;# 
  2226  0499                     	;# 
  2227  049A                     	;# 
  2228  049B                     	;# 
  2229  049B                     	;# 
  2230  049C                     	;# 
  2231  049D                     	;# 
  2232  049E                     	;# 
  2233  049F                     	;# 
  2234  0611                     	;# 
  2235  0612                     	;# 
  2236  0613                     	;# 
  2237  0613                     	;# 
  2238  0614                     	;# 
  2239  0615                     	;# 
  2240  0616                     	;# 
  2241  0616                     	;# 
  2242  0617                     	;# 
  2243  0618                     	;# 
  2244  0619                     	;# 
  2245  0619                     	;# 
  2246  061A                     	;# 
  2247  061B                     	;# 
  2248  061C                     	;# 
  2249  061C                     	;# 
  2250  0691                     	;# 
  2251  0692                     	;# 
  2252  0693                     	;# 
  2253  0694                     	;# 
  2254  0695                     	;# 
  2255  0F0F                     	;# 
  2256  0F10                     	;# 
  2257  0F11                     	;# 
  2258  0F12                     	;# 
  2259  0F13                     	;# 
  2260  0F14                     	;# 
  2261  0F15                     	;# 
  2262  0F16                     	;# 
  2263  0F17                     	;# 
  2264  0F18                     	;# 
  2265  0F19                     	;# 
  2266  0F1A                     	;# 
  2267  0F1B                     	;# 
  2268  0F1C                     	;# 
  2269  0F1D                     	;# 
  2270  0F1E                     	;# 
  2271  0F1F                     	;# 
  2272  0F20                     	;# 
  2273  0F21                     	;# 
  2274  0F22                     	;# 
  2275  0F23                     	;# 
  2276  0F24                     	;# 
  2277  0F25                     	;# 
  2278  0F26                     	;# 
  2279  0F27                     	;# 
  2280  0F28                     	;# 
  2281  0F29                     	;# 
  2282  0F2A                     	;# 
  2283  0F2B                     	;# 
  2284  0F2C                     	;# 
  2285  0F2D                     	;# 
  2286  0F2E                     	;# 
  2287  0F2F                     	;# 
  2288  0F8C                     	;# 
  2289  0F8D                     	;# 
  2290  0F91                     	;# 
  2291  0F95                     	;# 
  2292  0F96                     	;# 
  2293  0F97                     	;# 
  2294  0F9C                     	;# 
  2295  0F9D                     	;# 
  2296  0F9E                     	;# 
  2297  0FE3                     	;# 
  2298  0FE4                     	;# 
  2299  0FE5                     	;# 
  2300  0FE6                     	;# 
  2301  0FE7                     	;# 
  2302  0FE8                     	;# 
  2303  0FE9                     	;# 
  2304  0FEA                     	;# 
  2305  0FEB                     	;# 
  2306  0FED                     	;# 
  2307  0FEE                     	;# 
  2308  0FEF                     	;# 
  2309  0000                     	;# 
  2310  0001                     	;# 
  2311  0002                     	;# 
  2312  0003                     	;# 
  2313  0004                     	;# 
  2314  0005                     	;# 
  2315  0006                     	;# 
  2316  0007                     	;# 
  2317  0008                     	;# 
  2318  0009                     	;# 
  2319  000A                     	;# 
  2320  000B                     	;# 
  2321  000C                     	;# 
  2322  000D                     	;# 
  2323  000E                     	;# 
  2324  0011                     	;# 
  2325  0012                     	;# 
  2326  0013                     	;# 
  2327  0015                     	;# 
  2328  0016                     	;# 
  2329  0016                     	;# 
  2330  0017                     	;# 
  2331  0018                     	;# 
  2332  0019                     	;# 
  2333  001A                     	;# 
  2334  001B                     	;# 
  2335  001C                     	;# 
  2336  008C                     	;# 
  2337  008D                     	;# 
  2338  008E                     	;# 
  2339  0091                     	;# 
  2340  0092                     	;# 
  2341  0093                     	;# 
  2342  0095                     	;# 
  2343  0096                     	;# 
  2344  0097                     	;# 
  2345  0099                     	;# 
  2346  009A                     	;# 
  2347  009B                     	;# 
  2348  009B                     	;# 
  2349  009C                     	;# 
  2350  009D                     	;# 
  2351  009E                     	;# 
  2352  009F                     	;# 
  2353  010C                     	;# 
  2354  010D                     	;# 
  2355  010E                     	;# 
  2356  0111                     	;# 
  2357  0112                     	;# 
  2358  0113                     	;# 
  2359  0114                     	;# 
  2360  0115                     	;# 
  2361  0116                     	;# 
  2362  0117                     	;# 
  2363  0118                     	;# 
  2364  0119                     	;# 
  2365  011D                     	;# 
  2366  018C                     	;# 
  2367  018D                     	;# 
  2368  018E                     	;# 
  2369  0191                     	;# 
  2370  0191                     	;# 
  2371  0192                     	;# 
  2372  0193                     	;# 
  2373  0193                     	;# 
  2374  0194                     	;# 
  2375  0195                     	;# 
  2376  0196                     	;# 
  2377  0197                     	;# 
  2378  0199                     	;# 
  2379  019A                     	;# 
  2380  019B                     	;# 
  2381  019B                     	;# 
  2382  019C                     	;# 
  2383  019D                     	;# 
  2384  019E                     	;# 
  2385  019F                     	;# 
  2386  020C                     	;# 
  2387  020D                     	;# 
  2388  0211                     	;# 
  2389  0211                     	;# 
  2390  0212                     	;# 
  2391  0212                     	;# 
  2392  0213                     	;# 
  2393  0213                     	;# 
  2394  0214                     	;# 
  2395  0214                     	;# 
  2396  0215                     	;# 
  2397  0215                     	;# 
  2398  0215                     	;# 
  2399  0216                     	;# 
  2400  0216                     	;# 
  2401  0217                     	;# 
  2402  0217                     	;# 
  2403  0391                     	;# 
  2404  0392                     	;# 
  2405  0393                     	;# 
  2406  0394                     	;# 
  2407  0395                     	;# 
  2408  0396                     	;# 
  2409  0498                     	;# 
  2410  0498                     	;# 
  2411  0499                     	;# 
  2412  049A                     	;# 
  2413  049B                     	;# 
  2414  049B                     	;# 
  2415  049C                     	;# 
  2416  049D                     	;# 
  2417  049E                     	;# 
  2418  049F                     	;# 
  2419  0611                     	;# 
  2420  0612                     	;# 
  2421  0613                     	;# 
  2422  0613                     	;# 
  2423  0614                     	;# 
  2424  0615                     	;# 
  2425  0616                     	;# 
  2426  0616                     	;# 
  2427  0617                     	;# 
  2428  0618                     	;# 
  2429  0619                     	;# 
  2430  0619                     	;# 
  2431  061A                     	;# 
  2432  061B                     	;# 
  2433  061C                     	;# 
  2434  061C                     	;# 
  2435  0691                     	;# 
  2436  0692                     	;# 
  2437  0693                     	;# 
  2438  0694                     	;# 
  2439  0695                     	;# 
  2440  0F0F                     	;# 
  2441  0F10                     	;# 
  2442  0F11                     	;# 
  2443  0F12                     	;# 
  2444  0F13                     	;# 
  2445  0F14                     	;# 
  2446  0F15                     	;# 
  2447  0F16                     	;# 
  2448  0F17                     	;# 
  2449  0F18                     	;# 
  2450  0F19                     	;# 
  2451  0F1A                     	;# 
  2452  0F1B                     	;# 
  2453  0F1C                     	;# 
  2454  0F1D                     	;# 
  2455  0F1E                     	;# 
  2456  0F1F                     	;# 
  2457  0F20                     	;# 
  2458  0F21                     	;# 
  2459  0F22                     	;# 
  2460  0F23                     	;# 
  2461  0F24                     	;# 
  2462  0F25                     	;# 
  2463  0F26                     	;# 
  2464  0F27                     	;# 
  2465  0F28                     	;# 
  2466  0F29                     	;# 
  2467  0F2A                     	;# 
  2468  0F2B                     	;# 
  2469  0F2C                     	;# 
  2470  0F2D                     	;# 
  2471  0F2E                     	;# 
  2472  0F2F                     	;# 
  2473  0F8C                     	;# 
  2474  0F8D                     	;# 
  2475  0F91                     	;# 
  2476  0F95                     	;# 
  2477  0F96                     	;# 
  2478  0F97                     	;# 
  2479  0F9C                     	;# 
  2480  0F9D                     	;# 
  2481  0F9E                     	;# 
  2482  0FE3                     	;# 
  2483  0FE4                     	;# 
  2484  0FE5                     	;# 
  2485  0FE6                     	;# 
  2486  0FE7                     	;# 
  2487  0FE8                     	;# 
  2488  0FE9                     	;# 
  2489  0FEA                     	;# 
  2490  0FEB                     	;# 
  2491  0FED                     	;# 
  2492  0FEE                     	;# 
  2493  0FEF                     	;# 
  2494  0000                     	;# 
  2495  0001                     	;# 
  2496  0002                     	;# 
  2497  0003                     	;# 
  2498  0004                     	;# 
  2499  0005                     	;# 
  2500  0006                     	;# 
  2501  0007                     	;# 
  2502  0008                     	;# 
  2503  0009                     	;# 
  2504  000A                     	;# 
  2505  000B                     	;# 
  2506  000C                     	;# 
  2507  000D                     	;# 
  2508  000E                     	;# 
  2509  0011                     	;# 
  2510  0012                     	;# 
  2511  0013                     	;# 
  2512  0015                     	;# 
  2513  0016                     	;# 
  2514  0016                     	;# 
  2515  0017                     	;# 
  2516  0018                     	;# 
  2517  0019                     	;# 
  2518  001A                     	;# 
  2519  001B                     	;# 
  2520  001C                     	;# 
  2521  008C                     	;# 
  2522  008D                     	;# 
  2523  008E                     	;# 
  2524  0091                     	;# 
  2525  0092                     	;# 
  2526  0093                     	;# 
  2527  0095                     	;# 
  2528  0096                     	;# 
  2529  0097                     	;# 
  2530  0099                     	;# 
  2531  009A                     	;# 
  2532  009B                     	;# 
  2533  009B                     	;# 
  2534  009C                     	;# 
  2535  009D                     	;# 
  2536  009E                     	;# 
  2537  009F                     	;# 
  2538  010C                     	;# 
  2539  010D                     	;# 
  2540  010E                     	;# 
  2541  0111                     	;# 
  2542  0112                     	;# 
  2543  0113                     	;# 
  2544  0114                     	;# 
  2545  0115                     	;# 
  2546  0116                     	;# 
  2547  0117                     	;# 
  2548  0118                     	;# 
  2549  0119                     	;# 
  2550  011D                     	;# 
  2551  018C                     	;# 
  2552  018D                     	;# 
  2553  018E                     	;# 
  2554  0191                     	;# 
  2555  0191                     	;# 
  2556  0192                     	;# 
  2557  0193                     	;# 
  2558  0193                     	;# 
  2559  0194                     	;# 
  2560  0195                     	;# 
  2561  0196                     	;# 
  2562  0197                     	;# 
  2563  0199                     	;# 
  2564  019A                     	;# 
  2565  019B                     	;# 
  2566  019B                     	;# 
  2567  019C                     	;# 
  2568  019D                     	;# 
  2569  019E                     	;# 
  2570  019F                     	;# 
  2571  020C                     	;# 
  2572  020D                     	;# 
  2573  0211                     	;# 
  2574  0211                     	;# 
  2575  0212                     	;# 
  2576  0212                     	;# 
  2577  0213                     	;# 
  2578  0213                     	;# 
  2579  0214                     	;# 
  2580  0214                     	;# 
  2581  0215                     	;# 
  2582  0215                     	;# 
  2583  0215                     	;# 
  2584  0216                     	;# 
  2585  0216                     	;# 
  2586  0217                     	;# 
  2587  0217                     	;# 
  2588  0391                     	;# 
  2589  0392                     	;# 
  2590  0393                     	;# 
  2591  0394                     	;# 
  2592  0395                     	;# 
  2593  0396                     	;# 
  2594  0498                     	;# 
  2595  0498                     	;# 
  2596  0499                     	;# 
  2597  049A                     	;# 
  2598  049B                     	;# 
  2599  049B                     	;# 
  2600  049C                     	;# 
  2601  049D                     	;# 
  2602  049E                     	;# 
  2603  049F                     	;# 
  2604  0611                     	;# 
  2605  0612                     	;# 
  2606  0613                     	;# 
  2607  0613                     	;# 
  2608  0614                     	;# 
  2609  0615                     	;# 
  2610  0616                     	;# 
  2611  0616                     	;# 
  2612  0617                     	;# 
  2613  0618                     	;# 
  2614  0619                     	;# 
  2615  0619                     	;# 
  2616  061A                     	;# 
  2617  061B                     	;# 
  2618  061C                     	;# 
  2619  061C                     	;# 
  2620  0691                     	;# 
  2621  0692                     	;# 
  2622  0693                     	;# 
  2623  0694                     	;# 
  2624  0695                     	;# 
  2625  0F0F                     	;# 
  2626  0F10                     	;# 
  2627  0F11                     	;# 
  2628  0F12                     	;# 
  2629  0F13                     	;# 
  2630  0F14                     	;# 
  2631  0F15                     	;# 
  2632  0F16                     	;# 
  2633  0F17                     	;# 
  2634  0F18                     	;# 
  2635  0F19                     	;# 
  2636  0F1A                     	;# 
  2637  0F1B                     	;# 
  2638  0F1C                     	;# 
  2639  0F1D                     	;# 
  2640  0F1E                     	;# 
  2641  0F1F                     	;# 
  2642  0F20                     	;# 
  2643  0F21                     	;# 
  2644  0F22                     	;# 
  2645  0F23                     	;# 
  2646  0F24                     	;# 
  2647  0F25                     	;# 
  2648  0F26                     	;# 
  2649  0F27                     	;# 
  2650  0F28                     	;# 
  2651  0F29                     	;# 
  2652  0F2A                     	;# 
  2653  0F2B                     	;# 
  2654  0F2C                     	;# 
  2655  0F2D                     	;# 
  2656  0F2E                     	;# 
  2657  0F2F                     	;# 
  2658  0F8C                     	;# 
  2659  0F8D                     	;# 
  2660  0F91                     	;# 
  2661  0F95                     	;# 
  2662  0F96                     	;# 
  2663  0F97                     	;# 
  2664  0F9C                     	;# 
  2665  0F9D                     	;# 
  2666  0F9E                     	;# 
  2667  0FE3                     	;# 
  2668  0FE4                     	;# 
  2669  0FE5                     	;# 
  2670  0FE6                     	;# 
  2671  0FE7                     	;# 
  2672  0FE8                     	;# 
  2673  0FE9                     	;# 
  2674  0FEA                     	;# 
  2675  0FEB                     	;# 
  2676  0FED                     	;# 
  2677  0FEE                     	;# 
  2678  0FEF                     	;# 
  2679  0000                     	;# 
  2680  0001                     	;# 
  2681  0002                     	;# 
  2682  0003                     	;# 
  2683  0004                     	;# 
  2684  0005                     	;# 
  2685  0006                     	;# 
  2686  0007                     	;# 
  2687  0008                     	;# 
  2688  0009                     	;# 
  2689  000A                     	;# 
  2690  000B                     	;# 
  2691  000C                     	;# 
  2692  000D                     	;# 
  2693  000E                     	;# 
  2694  0011                     	;# 
  2695  0012                     	;# 
  2696  0013                     	;# 
  2697  0015                     	;# 
  2698  0016                     	;# 
  2699  0016                     	;# 
  2700  0017                     	;# 
  2701  0018                     	;# 
  2702  0019                     	;# 
  2703  001A                     	;# 
  2704  001B                     	;# 
  2705  001C                     	;# 
  2706  008C                     	;# 
  2707  008D                     	;# 
  2708  008E                     	;# 
  2709  0091                     	;# 
  2710  0092                     	;# 
  2711  0093                     	;# 
  2712  0095                     	;# 
  2713  0096                     	;# 
  2714  0097                     	;# 
  2715  0099                     	;# 
  2716  009A                     	;# 
  2717  009B                     	;# 
  2718  009B                     	;# 
  2719  009C                     	;# 
  2720  009D                     	;# 
  2721  009E                     	;# 
  2722  009F                     	;# 
  2723  010C                     	;# 
  2724  010D                     	;# 
  2725  010E                     	;# 
  2726  0111                     	;# 
  2727  0112                     	;# 
  2728  0113                     	;# 
  2729  0114                     	;# 
  2730  0115                     	;# 
  2731  0116                     	;# 
  2732  0117                     	;# 
  2733  0118                     	;# 
  2734  0119                     	;# 
  2735  011D                     	;# 
  2736  018C                     	;# 
  2737  018D                     	;# 
  2738  018E                     	;# 
  2739  0191                     	;# 
  2740  0191                     	;# 
  2741  0192                     	;# 
  2742  0193                     	;# 
  2743  0193                     	;# 
  2744  0194                     	;# 
  2745  0195                     	;# 
  2746  0196                     	;# 
  2747  0197                     	;# 
  2748  0199                     	;# 
  2749  019A                     	;# 
  2750  019B                     	;# 
  2751  019B                     	;# 
  2752  019C                     	;# 
  2753  019D                     	;# 
  2754  019E                     	;# 
  2755  019F                     	;# 
  2756  020C                     	;# 
  2757  020D                     	;# 
  2758  0211                     	;# 
  2759  0211                     	;# 
  2760  0212                     	;# 
  2761  0212                     	;# 
  2762  0213                     	;# 
  2763  0213                     	;# 
  2764  0214                     	;# 
  2765  0214                     	;# 
  2766  0215                     	;# 
  2767  0215                     	;# 
  2768  0215                     	;# 
  2769  0216                     	;# 
  2770  0216                     	;# 
  2771  0217                     	;# 
  2772  0217                     	;# 
  2773  0391                     	;# 
  2774  0392                     	;# 
  2775  0393                     	;# 
  2776  0394                     	;# 
  2777  0395                     	;# 
  2778  0396                     	;# 
  2779  0498                     	;# 
  2780  0498                     	;# 
  2781  0499                     	;# 
  2782  049A                     	;# 
  2783  049B                     	;# 
  2784  049B                     	;# 
  2785  049C                     	;# 
  2786  049D                     	;# 
  2787  049E                     	;# 
  2788  049F                     	;# 
  2789  0611                     	;# 
  2790  0612                     	;# 
  2791  0613                     	;# 
  2792  0613                     	;# 
  2793  0614                     	;# 
  2794  0615                     	;# 
  2795  0616                     	;# 
  2796  0616                     	;# 
  2797  0617                     	;# 
  2798  0618                     	;# 
  2799  0619                     	;# 
  2800  0619                     	;# 
  2801  061A                     	;# 
  2802  061B                     	;# 
  2803  061C                     	;# 
  2804  061C                     	;# 
  2805  0691                     	;# 
  2806  0692                     	;# 
  2807  0693                     	;# 
  2808  0694                     	;# 
  2809  0695                     	;# 
  2810  0F0F                     	;# 
  2811  0F10                     	;# 
  2812  0F11                     	;# 
  2813  0F12                     	;# 
  2814  0F13                     	;# 
  2815  0F14                     	;# 
  2816  0F15                     	;# 
  2817  0F16                     	;# 
  2818  0F17                     	;# 
  2819  0F18                     	;# 
  2820  0F19                     	;# 
  2821  0F1A                     	;# 
  2822  0F1B                     	;# 
  2823  0F1C                     	;# 
  2824  0F1D                     	;# 
  2825  0F1E                     	;# 
  2826  0F1F                     	;# 
  2827  0F20                     	;# 
  2828  0F21                     	;# 
  2829  0F22                     	;# 
  2830  0F23                     	;# 
  2831  0F24                     	;# 
  2832  0F25                     	;# 
  2833  0F26                     	;# 
  2834  0F27                     	;# 
  2835  0F28                     	;# 
  2836  0F29                     	;# 
  2837  0F2A                     	;# 
  2838  0F2B                     	;# 
  2839  0F2C                     	;# 
  2840  0F2D                     	;# 
  2841  0F2E                     	;# 
  2842  0F2F                     	;# 
  2843  0F8C                     	;# 
  2844  0F8D                     	;# 
  2845  0F91                     	;# 
  2846  0F95                     	;# 
  2847  0F96                     	;# 
  2848  0F97                     	;# 
  2849  0F9C                     	;# 
  2850  0F9D                     	;# 
  2851  0F9E                     	;# 
  2852  0FE3                     	;# 
  2853  0FE4                     	;# 
  2854  0FE5                     	;# 
  2855  0FE6                     	;# 
  2856  0FE7                     	;# 
  2857  0FE8                     	;# 
  2858  0FE9                     	;# 
  2859  0FEA                     	;# 
  2860  0FEB                     	;# 
  2861  0FED                     	;# 
  2862  0FEE                     	;# 
  2863  0FEF                     	;# 
  2864                           
  2865 ;; Function _EUSART_DefaultFramingErrorHandler is unused but had its address taken
  2866  0000                     
  2867 ;; Function _EUSART_DefaultOverrunErrorHandler is unused but had its address taken
  2868  0000                     
  2869 ;; Function _EUSART_DefaultErrorHandler is unused but had its address taken
  2870  0000                     
  2871                           	psect	idataCOMMON
  2872  04FA                     __pidataCOMMON:
  2873                           
  2874                           ;initializer for _U8Message
  2875  04FA  3455               	retlw	85
  2876                           
  2877                           ;initializer for _BreathState
  2878  04FB  3401               	retlw	1
  2879                           
  2880                           	psect	idataBANK0
  2881  04FC                     __pidataBANK0:
  2882                           
  2883                           ;initializer for _I2cState
  2884  04FC  3401               	retlw	1
  2885                           
  2886                           	psect	stringtext1
  2887  0471                     __pstringtext1:
  2888  0471                     _COS_tsk:
  2889  0471  34BC               	retlw	low _UartDisplay
  2890  0472  3404               	retlw	high _UartDisplay
  2891  0473  3480               	retlw	128
  2892  0474  342F               	retlw	low _SHT21_StateMachine
  2893  0475  3400               	retlw	high _SHT21_StateMachine
  2894  0476  3440               	retlw	64
  2895  0477  3400               	retlw	0
  2896  0478  3400               	retlw	0
  2897  0479  3400               	retlw	0
  2898  047A  3400               	retlw	0
  2899  047B  3400               	retlw	0
  2900  047C  3400               	retlw	0
  2901  047D  3400               	retlw	0
  2902  047E  3400               	retlw	0
  2903  047F  3400               	retlw	0
  2904  0480                     __end_of_COS_tsk:
  2905                           
  2906                           	psect	nvBANK0
  2907  0064                     __pnvBANK0:
  2908  0064                     _EUSART_ErrorHandler:
  2909  0064                     	ds	2
  2910  0066                     _EUSART_OverrunErrorHandler:
  2911  0066                     	ds	2
  2912  0068                     _EUSART_FramingErrorHandler:
  2913  0068                     	ds	2
  2914  006A                     _TMR2_InterruptHandler:
  2915  006A                     	ds	2
  2916  006C                     _COS_tsk_ena:
  2917  006C                     	ds	1
  2918  006D                     _COS_tsk_msk:
  2919  006D                     	ds	1
  2920  000B                     _INTCONbits	set	11
  2921  001C                     _T2CONbits	set	28
  2922  001C                     _T2CON	set	28
  2923  0011                     _PIR1bits	set	17
  2924  001A                     _TMR2	set	26
  2925  001B                     _PR2	set	27
  2926  0018                     _T1CON	set	24
  2927  0016                     _TMR1L	set	22
  2928  0017                     _TMR1H	set	23
  2929  008B                     _SSP1IF	set	139
  2930  0095                     _OPTION_REGbits	set	149
  2931  008E                     _TRISC	set	142
  2932  008D                     _TRISB	set	141
  2933  008C                     _TRISA	set	140
  2934  0097                     _WDTCON	set	151
  2935  0099                     _OSCCON	set	153
  2936  0091                     _PIE1bits	set	145
  2937  010E                     _LATCbits	set	270
  2938  011D                     _APFCON	set	285
  2939  010E                     _LATC	set	270
  2940  010D                     _LATB	set	269
  2941  010C                     _LATA	set	268
  2942  0116                     _BORCON	set	278
  2943  019A                     _TXREG	set	410
  2944  0199                     _RCREG	set	409
  2945  019D                     _RCSTAbits	set	413
  2946  019E                     _TXSTAbits	set	414
  2947  019C                     _SPBRGH	set	412
  2948  019B                     _SPBRGL	set	411
  2949  019E                     _TXSTA	set	414
  2950  019D                     _RCSTA	set	413
  2951  019F                     _BAUDCON	set	415
  2952  018C                     _ANSELA	set	396
  2953  018D                     _ANSELB	set	397
  2954  018E                     _ANSELC	set	398
  2955  0216                     _SSP1CON2bits	set	534
  2956  0211                     _SSP1BUF	set	529
  2957  0215                     _SSP1CON1bits	set	533
  2958  0212                     _SSP1ADD	set	530
  2959  0216                     _SSP1CON2	set	534
  2960  0215                     _SSP1CON1	set	533
  2961  0214                     _SSP1STAT	set	532
  2962  020C                     _WPUA	set	524
  2963  020D                     _WPUB	set	525
  2964  0611                     _PWM1DCL	set	1553
  2965  0612                     _PWM1DCH	set	1554
  2966  0613                     _PWM1CON	set	1555
  2967                           
  2968                           	psect	cinit
  2969  0014                     start_initialization:	
  2970                           ; #config settings
  2971                           
  2972  0014                     __initialization:
  2973                           
  2974                           ; Initialize objects allocated to COMMON
  2975  0014  3184  24FA  3180   	fcall	__pidataCOMMON	;fetch initializer
  2976  0017  00FA               	movwf	__pdataCOMMON& (0+127)
  2977  0018  3184  24FB  3180   	fcall	__pidataCOMMON+1	;fetch initializer
  2978  001B  00FB               	movwf	(__pdataCOMMON+1)& (0+127)
  2979                           
  2980                           ; Initialize objects allocated to BANK0
  2981  001C  3184  24FC  3180   	fcall	__pidataBANK0	;fetch initializer
  2982  001F  00EE               	movwf	__pdataBANK0& (0+127)
  2983                           
  2984                           ; Clear objects allocated to COMMON
  2985  0020  01F6               	clrf	__pbssCOMMON& (0+127)
  2986  0021  01F7               	clrf	(__pbssCOMMON+1)& (0+127)
  2987  0022  01F8               	clrf	(__pbssCOMMON+2)& (0+127)
  2988  0023  01F9               	clrf	(__pbssCOMMON+3)& (0+127)
  2989                           
  2990                           ; Clear objects allocated to BANK0
  2991  0024  3020               	movlw	low __pbssBANK0
  2992  0025  0084               	movwf	4
  2993  0026  3000               	movlw	high __pbssBANK0
  2994  0027  0085               	movwf	5
  2995  0028  302D               	movlw	45
  2996  0029  3184  24CC         	fcall	clear_ram0
  2997  002B                     end_of_initialization:	
  2998                           ;End of C runtime variable initialization code
  2999                           
  3000  002B                     __end_of__initialization:
  3001  002B  107E               	bcf	int$flags,0	;clear compiler interrupt flag (level 1)
  3002  002C  0020               	movlb	0
  3003  002D  3183  2BDA         	ljmp	_main	;jump to C main() function
  3004                           
  3005                           	psect	bssCOMMON
  3006  0076                     __pbssCOMMON:
  3007  0076                     _COS_tcnt_val:
  3008  0076                     	ds	2
  3009  0078                     _ErrorStat:
  3010  0078                     	ds	1
  3011  0079                     _NewMessageFlag:
  3012  0079                     	ds	1
  3013                           
  3014                           	psect	dataCOMMON
  3015  007A                     __pdataCOMMON:
  3016  007A                     _U8Message:
  3017  007A                     	ds	1
  3018  007B                     _BreathState:
  3019  007B                     	ds	1
  3020                           
  3021                           	psect	bssBANK0
  3022  0020                     __pbssBANK0:
  3023  0020                     _TI_TemperatureAmbient:
  3024  0020                     	ds	2
  3025  0022                     _RelativeHumidityRaw:
  3026  0022                     	ds	2
  3027  0024                     _TemperatureRaw:
  3028  0024                     	ds	2
  3029  0026                     _SensirionRH_UBP8:
  3030  0026                     	ds	2
  3031  0028                     _SensirionTemperature_UBP8:
  3032  0028                     	ds	2
  3033  002A                     _I2C_Timer:
  3034  002A                     	ds	2
  3035  002C                     _Humi:
  3036  002C                     	ds	2
  3037  002E                     _Temp:
  3038  002E                     	ds	2
  3039  0030                     _dutyValue:
  3040  0030                     	ds	2
  3041  0032                     _counter:
  3042  0032                     	ds	2
  3043  0034                     TMR2_ISR@CountCallBack:
  3044  0034                     	ds	2
  3045  0036                     _COS_tcnt_lst:
  3046  0036                     	ds	2
  3047  0038                     _COS_tsk_tmr:
  3048  0038                     	ds	2
  3049  003A                     _COS_sec_tmr:
  3050  003A                     	ds	2
  3051  003C                     _COS_ms_tmr:
  3052  003C                     	ds	2
  3053  003E                     _I2C_State:
  3054  003E                     	ds	1
  3055  003F                     _SHT21_State:
  3056  003F                     	ds	1
  3057  0040                     _RelativeHumidityRaw_L:
  3058  0040                     	ds	1
  3059  0041                     _RelativeHumidityRaw_H:
  3060  0041                     	ds	1
  3061  0042                     _TemperatureRaw_L:
  3062  0042                     	ds	1
  3063  0043                     _TemperatureRaw_H:
  3064  0043                     	ds	1
  3065  0044                     _checksum:
  3066  0044                     	ds	1
  3067  0045                     _SHT21_Fault:
  3068  0045                     	ds	1
  3069  0046                     _Command:
  3070  0046                     	ds	1
  3071  0047                     _TempH:
  3072  0047                     	ds	1
  3073  0048                     _counter@UART_Display$F547:
  3074  0048                     	ds	1
  3075  0049                     _Timer2Flag:
  3076  0049                     	ds	1
  3077  004A                     _TimeSlotCounter:
  3078  004A                     	ds	1
  3079  004B                     _eusartRxLastError:
  3080  004B                     	ds	1
  3081  004C                     _COS_tsk_ind:
  3082  004C                     	ds	1
  3083                           
  3084                           	psect	dataBANK0
  3085  006E                     __pdataBANK0:
  3086  006E                     _I2cState:
  3087  006E                     	ds	1
  3088                           
  3089                           	psect	clrtext
  3090  04CC                     clear_ram0:	
  3091                           ;	Called with FSR0 containing the base address, and
  3092                           ;	WREG with the size to clear
  3093                           
  3094  04CC  0064               	clrwdt	;clear the watchdog before getting into this loop
  3095  04CD                     clrloop0:
  3096  04CD  0180               	clrf	0	;clear RAM location pointed to by FSR
  3097  04CE  3101               	addfsr 0,1
  3098  04CF  0B89               	decfsz	9,f	;Have we reached the end of clearing yet?
  3099  04D0  2CCD               	goto	clrloop0	;have we reached the end yet?
  3100  04D1  3400               	retlw	0	;all done for this memory range, return
  3101                           
  3102                           	psect	cstackBANK1
  3103  00A0                     __pcstackBANK1:
  3104  00A0                     ??_COS_TskMan:
  3105                           
  3106                           ; 1 bytes @ 0x0
  3107  00A0                     	ds	2
  3108                           
  3109                           	psect	cstackCOMMON
  3110  0070                     __pcstackCOMMON:
  3111  0070                     ?_COS_TimerSetup:
  3112  0070                     ?_UartDisplay:	
  3113                           ; 1 bytes @ 0x0
  3114                           
  3115  0070                     ?_SHT21_StateMachine:	
  3116                           ; 1 bytes @ 0x0
  3117                           
  3118  0070                     ?_TMR2_DefaultInterruptHandler:	
  3119                           ; 1 bytes @ 0x0
  3120                           
  3121  0070                     ??_TMR2_DefaultInterruptHandler:	
  3122                           ; 1 bytes @ 0x0
  3123                           
  3124  0070                     ?_TMR2_CallBack:	
  3125                           ; 1 bytes @ 0x0
  3126                           
  3127  0070                     ?_PIN_MANAGER_Initialize:	
  3128                           ; 1 bytes @ 0x0
  3129                           
  3130  0070                     ?_OSCILLATOR_Initialize:	
  3131                           ; 1 bytes @ 0x0
  3132                           
  3133  0070                     ?_WDT_Initialize:	
  3134                           ; 1 bytes @ 0x0
  3135                           
  3136  0070                     ?_PWM1_Initialize:	
  3137                           ; 1 bytes @ 0x0
  3138                           
  3139  0070                     ?_EUSART_Initialize:	
  3140                           ; 1 bytes @ 0x0
  3141                           
  3142  0070                     ?_SHT21_FaultHand:	
  3143                           ; 1 bytes @ 0x0
  3144                           
  3145  0070                     ?_COS_Init:	
  3146                           ; 1 bytes @ 0x0
  3147                           
  3148  0070                     ?_COS_TmrHandler:	
  3149                           ; 1 bytes @ 0x0
  3150                           
  3151  0070                     ?_COS_TskMan:	
  3152                           ; 1 bytes @ 0x0
  3153                           
  3154  0070                     ?_TMR2_Initialize:	
  3155                           ; 1 bytes @ 0x0
  3156                           
  3157  0070                     ?_TMR2_ISR:	
  3158                           ; 1 bytes @ 0x0
  3159                           
  3160  0070                     ?_INTERRUPT_InterruptManager:	
  3161                           ; 1 bytes @ 0x0
  3162                           
  3163  0070                     ?_SYSTEM_Initialize:	
  3164                           ; 1 bytes @ 0x0
  3165                           
  3166  0070                     ?_PWM1_LoadDutyValue:	
  3167                           ; 1 bytes @ 0x0
  3168                           
  3169  0070                     ?_EUSART_Write:	
  3170                           ; 1 bytes @ 0x0
  3171                           
  3172  0070                     ?_Led2_PWM:	
  3173                           ; 1 bytes @ 0x0
  3174                           
  3175  0070                     ?_SendByUart:	
  3176                           ; 1 bytes @ 0x0
  3177                           
  3178  0070                     ?_main:	
  3179                           ; 1 bytes @ 0x0
  3180                           
  3181  0070                     ?_I2c_StartCondition:	
  3182                           ; 1 bytes @ 0x0
  3183                           
  3184  0070                     ?_I2c_StopCondition:	
  3185                           ; 1 bytes @ 0x0
  3186                           
  3187  0070                     ?_I2c_WriteByte:	
  3188                           ; 1 bytes @ 0x0
  3189                           
  3190  0070                     ?_I2c_ReadByte:	
  3191                           ; 1 bytes @ 0x0
  3192                           
  3193  0070                     PWM1_LoadDutyValue@dutyValue:	
  3194                           ; 1 bytes @ 0x0
  3195                           
  3196                           
  3197                           ; 2 bytes @ 0x0
  3198  0070                     	ds	2
  3199  0072                     ??_PWM1_LoadDutyValue:
  3200                           
  3201                           ; 1 bytes @ 0x2
  3202  0072                     	ds	2
  3203  0074                     ??_Led2_PWM:
  3204                           
  3205                           ; 1 bytes @ 0x4
  3206  0074                     	ds	2
  3207  0076                     ??_TMR2_CallBack:
  3208  0076                     ??_TMR2_ISR:	
  3209                           ; 1 bytes @ 0x6
  3210                           
  3211  0076                     ??_INTERRUPT_InterruptManager:	
  3212                           ; 1 bytes @ 0x6
  3213                           
  3214                           
  3215                           	psect	cstackBANK0
  3216  004D                     __pcstackBANK0:	
  3217                           ; 1 bytes @ 0x6
  3218                           
  3219  004D                     ??_COS_TimerSetup:
  3220  004D                     ?_TMR2_SetInterruptHandler:	
  3221                           ; 1 bytes @ 0x0
  3222                           
  3223  004D                     ??_PIN_MANAGER_Initialize:	
  3224                           ; 1 bytes @ 0x0
  3225                           
  3226  004D                     ??_OSCILLATOR_Initialize:	
  3227                           ; 1 bytes @ 0x0
  3228                           
  3229  004D                     ??_WDT_Initialize:	
  3230                           ; 1 bytes @ 0x0
  3231                           
  3232  004D                     ??_PWM1_Initialize:	
  3233                           ; 1 bytes @ 0x0
  3234                           
  3235  004D                     ?_EUSART_SetFramingErrorHandler:	
  3236                           ; 1 bytes @ 0x0
  3237                           
  3238  004D                     ?_EUSART_SetOverrunErrorHandler:	
  3239                           ; 1 bytes @ 0x0
  3240                           
  3241  004D                     ?_EUSART_SetErrorHandler:	
  3242                           ; 1 bytes @ 0x0
  3243                           
  3244  004D                     ??_SHT21_FaultHand:	
  3245                           ; 1 bytes @ 0x0
  3246                           
  3247  004D                     ??_COS_Init:	
  3248                           ; 1 bytes @ 0x0
  3249                           
  3250  004D                     ??_COS_TmrHandler:	
  3251                           ; 1 bytes @ 0x0
  3252                           
  3253  004D                     ??_EUSART_Write:	
  3254                           ; 1 bytes @ 0x0
  3255                           
  3256  004D                     ??_SendByUart:	
  3257                           ; 1 bytes @ 0x0
  3258                           
  3259  004D                     ??_I2c_StartCondition:	
  3260                           ; 1 bytes @ 0x0
  3261                           
  3262  004D                     ??_I2c_StopCondition:	
  3263                           ; 1 bytes @ 0x0
  3264                           
  3265  004D                     ??_I2c_WriteByte:	
  3266                           ; 1 bytes @ 0x0
  3267                           
  3268  004D                     ??_I2c_ReadByte:	
  3269                           ; 1 bytes @ 0x0
  3270                           
  3271  004D                     ?___wmul:	
  3272                           ; 1 bytes @ 0x0
  3273                           
  3274  004D                     ?___lmul:	
  3275                           ; 2 bytes @ 0x0
  3276                           
  3277  004D                     EUSART_Write@txData:	
  3278                           ; 4 bytes @ 0x0
  3279                           
  3280  004D                     TMR2_SetInterruptHandler@InterruptHandler:	
  3281                           ; 1 bytes @ 0x0
  3282                           
  3283  004D                     EUSART_SetFramingErrorHandler@interruptHandler:	
  3284                           ; 2 bytes @ 0x0
  3285                           
  3286  004D                     EUSART_SetOverrunErrorHandler@interruptHandler:	
  3287                           ; 2 bytes @ 0x0
  3288                           
  3289  004D                     EUSART_SetErrorHandler@interruptHandler:	
  3290                           ; 2 bytes @ 0x0
  3291                           
  3292  004D                     ___wmul@multiplier:	
  3293                           ; 2 bytes @ 0x0
  3294                           
  3295  004D                     ___lmul@multiplier:	
  3296                           ; 2 bytes @ 0x0
  3297                           
  3298                           
  3299                           ; 4 bytes @ 0x0
  3300  004D                     	ds	1
  3301  004E                     ??_UartDisplay:
  3302  004E                     SendByUart@Txt:	
  3303                           ; 1 bytes @ 0x1
  3304                           
  3305  004E                     I2c_WriteByte@txByte:	
  3306                           ; 1 bytes @ 0x1
  3307                           
  3308  004E                     I2c_ReadByte@ack:	
  3309                           ; 1 bytes @ 0x1
  3310                           
  3311                           
  3312                           ; 1 bytes @ 0x1
  3313  004E                     	ds	1
  3314  004F                     ??_TMR2_SetInterruptHandler:
  3315  004F                     ??_EUSART_Initialize:	
  3316                           ; 1 bytes @ 0x2
  3317                           
  3318  004F                     ??_EUSART_SetFramingErrorHandler:	
  3319                           ; 1 bytes @ 0x2
  3320                           
  3321  004F                     ??_EUSART_SetOverrunErrorHandler:	
  3322                           ; 1 bytes @ 0x2
  3323                           
  3324  004F                     ??_EUSART_SetErrorHandler:	
  3325                           ; 1 bytes @ 0x2
  3326                           
  3327  004F                     ??_TMR2_Initialize:	
  3328                           ; 1 bytes @ 0x2
  3329                           
  3330  004F                     ??_SYSTEM_Initialize:	
  3331                           ; 1 bytes @ 0x2
  3332                           
  3333  004F                     I2c_WriteByte@ack:	
  3334                           ; 1 bytes @ 0x2
  3335                           
  3336  004F                     I2c_ReadByte@rxByte:	
  3337                           ; 1 bytes @ 0x2
  3338                           
  3339  004F                     ___wmul@multiplicand:	
  3340                           ; 1 bytes @ 0x2
  3341                           
  3342                           
  3343                           ; 2 bytes @ 0x2
  3344  004F                     	ds	1
  3345  0050                     COS_Init@tempbyte1:
  3346  0050                     COS_TmrHandler@tempbyte1:	
  3347                           ; 1 bytes @ 0x3
  3348                           
  3349                           
  3350                           ; 1 bytes @ 0x3
  3351  0050                     	ds	1
  3352  0051                     ??___wmul:
  3353  0051                     COS_Init@tempbyte2:	
  3354                           ; 1 bytes @ 0x4
  3355                           
  3356  0051                     COS_TmrHandler@tempbyte2:	
  3357                           ; 1 bytes @ 0x4
  3358                           
  3359  0051                     ___wmul@product:	
  3360                           ; 1 bytes @ 0x4
  3361                           
  3362  0051                     ___lmul@multiplicand:	
  3363                           ; 2 bytes @ 0x4
  3364                           
  3365                           
  3366                           ; 4 bytes @ 0x4
  3367  0051                     	ds	4
  3368  0055                     ??___lmul:
  3369  0055                     ___lmul@product:	
  3370                           ; 1 bytes @ 0x8
  3371                           
  3372                           
  3373                           ; 4 bytes @ 0x8
  3374  0055                     	ds	4
  3375  0059                     ?_SHT2x_CalcTemperatureC:
  3376  0059                     ?_SHT2x_CalcRelativeHumidity:	
  3377                           ; 2 bytes @ 0xC
  3378                           
  3379                           
  3380                           ; 2 bytes @ 0xC
  3381  0059                     	ds	2
  3382  005B                     ??_SHT2x_CalcTemperatureC:
  3383  005B                     ??_SHT2x_CalcRelativeHumidity:	
  3384                           ; 1 bytes @ 0xE
  3385                           
  3386                           
  3387                           ; 1 bytes @ 0xE
  3388  005B                     	ds	1
  3389  005C                     SHT2x_CalcTemperatureC@Temperature_UBP8:
  3390  005C                     SHT2x_CalcRelativeHumidity@RelativeHumidity_UBP8:	
  3391                           ; 2 bytes @ 0xF
  3392                           
  3393                           
  3394                           ; 2 bytes @ 0xF
  3395  005C                     	ds	2
  3396  005E                     SHT2x_CalcTemperatureC@TemperatureTemp:
  3397  005E                     SHT2x_CalcRelativeHumidity@RelativeHumidityTemp:	
  3398                           ; 4 bytes @ 0x11
  3399                           
  3400                           
  3401                           ; 4 bytes @ 0x11
  3402  005E                     	ds	4
  3403  0062                     ??_SHT21_StateMachine:
  3404                           
  3405                           ; 1 bytes @ 0x15
  3406  0062                     	ds	2
  3407  0064                     ??_main:
  3408                           
  3409                           	psect	maintext
  3410  03DA                     __pmaintext:	
  3411                           ; 1 bytes @ 0x17
  3412 ;;
  3413 ;;Main: autosize = 0, tempsize = 0, incstack = 0, save=0
  3414 ;;
  3415 ;; *************** function _main *****************
  3416 ;; Defined at:
  3417 ;;		line 52 in file "main.c"
  3418 ;; Parameters:    Size  Location     Type
  3419 ;;		None
  3420 ;; Auto vars:     Size  Location     Type
  3421 ;;		None
  3422 ;; Return value:  Size  Location     Type
  3423 ;;                  1    wreg      void 
  3424 ;; Registers used:
  3425 ;;		wreg, fsr0l, fsr0h, status,2, status,0, pclath, cstack
  3426 ;; Tracked objects:
  3427 ;;		On entry : B1F/0
  3428 ;;		On exit  : 0/0
  3429 ;;		Unchanged: 0/0
  3430 ;; Data sizes:     COMMON   BANK0   BANK1   BANK2   BANK3   BANK4   BANK5   BANK6
  3431 ;;      Params:         0       0       0       0       0       0       0       0
  3432 ;;      Locals:         0       0       0       0       0       0       0       0
  3433 ;;      Temps:          0       0       0       0       0       0       0       0
  3434 ;;      Totals:         0       0       0       0       0       0       0       0
  3435 ;;Total ram usage:        0 bytes
  3436 ;; Hardware stack levels required when called:    9
  3437 ;; This function calls:
  3438 ;;		_COS_Init
  3439 ;;		_COS_TmrHandler
  3440 ;;		_COS_TskMan
  3441 ;;		_SYSTEM_Initialize
  3442 ;;		_TMR2_SetInterruptHandler
  3443 ;; This function is called by:
  3444 ;;		Startup code after reset
  3445 ;; This function uses a non-reentrant model
  3446 ;;
  3447                           
  3448                           
  3449                           ;psect for function _main
  3450  03DA                     _main:
  3451                           
  3452                           ;main.c: 55:     SYSTEM_Initialize();
  3453                           
  3454                           ;incstack = 0
  3455                           ; Regs used in _main: [wreg-fsr0h+status,2+status,0+pclath+cstack]
  3456  03DA  3184  244D  3183   	fcall	_SYSTEM_Initialize
  3457                           
  3458                           ;main.c: 56:     COS_Init();
  3459  03DD  3183  230E  3183   	fcall	_COS_Init
  3460                           
  3461                           ;main.c: 57:     TMR2_SetInterruptHandler(Led2_PWM);
  3462  03E0  30B4               	movlw	low _Led2_PWM
  3463  03E1  0020               	movlb	0	; select bank0
  3464  03E2  00CD               	movwf	TMR2_SetInterruptHandler@InterruptHandler
  3465  03E3  3001               	movlw	high _Led2_PWM
  3466  03E4  00CE               	movwf	TMR2_SetInterruptHandler@InterruptHandler+1
  3467  03E5  3184  24D2  3183   	fcall	_TMR2_SetInterruptHandler
  3468                           
  3469                           ;main.c: 63:     (INTCONbits.GIE = 1);
  3470  03E8  178B               	bsf	11,7	;volatile
  3471                           
  3472                           ;main.c: 66:     (INTCONbits.PEIE = 1);
  3473  03E9  170B               	bsf	11,6	;volatile
  3474  03EA                     l379:	
  3475                           ;main.c: 74:     while (1)
  3476                           
  3477                           
  3478                           ;main.c: 75:     {;main.c: 76:         COS_TmrHandler();
  3479  03EA  3182  221A  3183   	fcall	_COS_TmrHandler
  3480                           
  3481                           ;main.c: 78:         if (COS_tsk_ena)
  3482  03ED  0020               	movlb	0	; select bank0
  3483  03EE  086C               	movf	_COS_tsk_ena,w
  3484  03EF  1903               	btfsc	3,2
  3485  03F0  2BEA               	goto	l379
  3486                           
  3487                           ;main.c: 79:         {;main.c: 80:             COS_TskMan();
  3488  03F1  3181  2138  3183   	fcall	_COS_TskMan
  3489  03F4  2BEA               	goto	l379
  3490  03F5                     __end_of_main:
  3491                           
  3492                           	psect	text1
  3493  044D                     __ptext1:	
  3494 ;; *************** function _SYSTEM_Initialize *****************
  3495 ;; Defined at:
  3496 ;;		line 50 in file "mcc_generated_files/mcc.c"
  3497 ;; Parameters:    Size  Location     Type
  3498 ;;		None
  3499 ;; Auto vars:     Size  Location     Type
  3500 ;;		None
  3501 ;; Return value:  Size  Location     Type
  3502 ;;                  1    wreg      void 
  3503 ;; Registers used:
  3504 ;;		wreg, status,2, status,0, pclath, cstack
  3505 ;; Tracked objects:
  3506 ;;		On entry : 0/0
  3507 ;;		On exit  : 0/0
  3508 ;;		Unchanged: 0/0
  3509 ;; Data sizes:     COMMON   BANK0   BANK1   BANK2   BANK3   BANK4   BANK5   BANK6
  3510 ;;      Params:         0       0       0       0       0       0       0       0
  3511 ;;      Locals:         0       0       0       0       0       0       0       0
  3512 ;;      Temps:          0       0       0       0       0       0       0       0
  3513 ;;      Totals:         0       0       0       0       0       0       0       0
  3514 ;;Total ram usage:        0 bytes
  3515 ;; Hardware stack levels used:    1
  3516 ;; Hardware stack levels required when called:    7
  3517 ;; This function calls:
  3518 ;;		_EUSART_Initialize
  3519 ;;		_OSCILLATOR_Initialize
  3520 ;;		_PIN_MANAGER_Initialize
  3521 ;;		_PWM1_Initialize
  3522 ;;		_TMR2_Initialize
  3523 ;;		_WDT_Initialize
  3524 ;; This function is called by:
  3525 ;;		_main
  3526 ;; This function uses a non-reentrant model
  3527 ;;
  3528                           
  3529                           
  3530                           ;psect for function _SYSTEM_Initialize
  3531  044D                     _SYSTEM_Initialize:
  3532                           
  3533                           ;mcc_generated_files/mcc.c: 53:     PIN_MANAGER_Initialize();
  3534                           
  3535                           ;incstack = 0
  3536                           ; Regs used in _SYSTEM_Initialize: [wreg+status,2+status,0+pclath+cstack]
  3537  044D  3183  23F5  3184   	fcall	_PIN_MANAGER_Initialize
  3538                           
  3539                           ;mcc_generated_files/mcc.c: 54:     OSCILLATOR_Initialize();
  3540  0450  3184  24D8  3184   	fcall	_OSCILLATOR_Initialize
  3541                           
  3542                           ;mcc_generated_files/mcc.c: 55:     WDT_Initialize();
  3543  0453  3184  24F6  3184   	fcall	_WDT_Initialize
  3544                           
  3545                           ;mcc_generated_files/mcc.c: 56:     PWM1_Initialize();
  3546  0456  3184  24B4  3184   	fcall	_PWM1_Initialize
  3547                           
  3548                           ;mcc_generated_files/mcc.c: 57:     TMR2_Initialize();
  3549  0459  3184  245F  3184   	fcall	_TMR2_Initialize
  3550                           
  3551                           ;mcc_generated_files/mcc.c: 58:     EUSART_Initialize();
  3552  045C  3183  2379         	fcall	_EUSART_Initialize
  3553  045E  0008               	return
  3554  045F                     __end_of_SYSTEM_Initialize:
  3555                           
  3556                           	psect	text2
  3557  04F6                     __ptext2:	
  3558 ;; *************** function _WDT_Initialize *****************
  3559 ;; Defined at:
  3560 ;;		line 69 in file "mcc_generated_files/mcc.c"
  3561 ;; Parameters:    Size  Location     Type
  3562 ;;		None
  3563 ;; Auto vars:     Size  Location     Type
  3564 ;;		None
  3565 ;; Return value:  Size  Location     Type
  3566 ;;                  1    wreg      void 
  3567 ;; Registers used:
  3568 ;;		wreg
  3569 ;; Tracked objects:
  3570 ;;		On entry : 0/0
  3571 ;;		On exit  : 0/0
  3572 ;;		Unchanged: 0/0
  3573 ;; Data sizes:     COMMON   BANK0   BANK1   BANK2   BANK3   BANK4   BANK5   BANK6
  3574 ;;      Params:         0       0       0       0       0       0       0       0
  3575 ;;      Locals:         0       0       0       0       0       0       0       0
  3576 ;;      Temps:          0       0       0       0       0       0       0       0
  3577 ;;      Totals:         0       0       0       0       0       0       0       0
  3578 ;;Total ram usage:        0 bytes
  3579 ;; Hardware stack levels used:    1
  3580 ;; Hardware stack levels required when called:    5
  3581 ;; This function calls:
  3582 ;;		Nothing
  3583 ;; This function is called by:
  3584 ;;		_SYSTEM_Initialize
  3585 ;; This function uses a non-reentrant model
  3586 ;;
  3587                           
  3588                           
  3589                           ;psect for function _WDT_Initialize
  3590  04F6                     _WDT_Initialize:
  3591                           
  3592                           ;mcc_generated_files/mcc.c: 72:     WDTCON = 0x16;
  3593                           
  3594                           ;incstack = 0
  3595                           ; Regs used in _WDT_Initialize: [wreg]
  3596  04F6  3016               	movlw	22
  3597  04F7  0021               	movlb	1	; select bank1
  3598  04F8  0097               	movwf	23	;volatile
  3599  04F9  0008               	return
  3600  04FA                     __end_of_WDT_Initialize:
  3601                           
  3602                           	psect	text3
  3603  045F                     __ptext3:	
  3604 ;; *************** function _TMR2_Initialize *****************
  3605 ;; Defined at:
  3606 ;;		line 64 in file "mcc_generated_files/tmr2.c"
  3607 ;; Parameters:    Size  Location     Type
  3608 ;;		None
  3609 ;; Auto vars:     Size  Location     Type
  3610 ;;		None
  3611 ;; Return value:  Size  Location     Type
  3612 ;;                  1    wreg      void 
  3613 ;; Registers used:
  3614 ;;		wreg, status,2, status,0, pclath, cstack
  3615 ;; Tracked objects:
  3616 ;;		On entry : 0/0
  3617 ;;		On exit  : 0/0
  3618 ;;		Unchanged: 0/0
  3619 ;; Data sizes:     COMMON   BANK0   BANK1   BANK2   BANK3   BANK4   BANK5   BANK6
  3620 ;;      Params:         0       0       0       0       0       0       0       0
  3621 ;;      Locals:         0       0       0       0       0       0       0       0
  3622 ;;      Temps:          0       0       0       0       0       0       0       0
  3623 ;;      Totals:         0       0       0       0       0       0       0       0
  3624 ;;Total ram usage:        0 bytes
  3625 ;; Hardware stack levels used:    1
  3626 ;; Hardware stack levels required when called:    6
  3627 ;; This function calls:
  3628 ;;		_TMR2_SetInterruptHandler
  3629 ;; This function is called by:
  3630 ;;		_SYSTEM_Initialize
  3631 ;; This function uses a non-reentrant model
  3632 ;;
  3633                           
  3634                           
  3635                           ;psect for function _TMR2_Initialize
  3636  045F                     _TMR2_Initialize:
  3637                           
  3638                           ;mcc_generated_files/tmr2.c: 69:     PR2 = 0xF9;
  3639                           
  3640                           ;incstack = 0
  3641                           ; Regs used in _TMR2_Initialize: [wreg+status,2+status,0+pclath+cstack]
  3642  045F  30F9               	movlw	249
  3643  0460  0020               	movlb	0	; select bank0
  3644  0461  009B               	movwf	27	;volatile
  3645                           
  3646                           ;mcc_generated_files/tmr2.c: 72:     TMR2 = 0x00;
  3647  0462  019A               	clrf	26	;volatile
  3648                           
  3649                           ;mcc_generated_files/tmr2.c: 75:     PIR1bits.TMR2IF = 0;
  3650  0463  1091               	bcf	17,1	;volatile
  3651                           
  3652                           ;mcc_generated_files/tmr2.c: 78:     PIE1bits.TMR2IE = 1;
  3653  0464  0021               	movlb	1	; select bank1
  3654  0465  1491               	bsf	17,1	;volatile
  3655                           
  3656                           ;mcc_generated_files/tmr2.c: 81:     TMR2_SetInterruptHandler(TMR2_DefaultInterruptHandl
      +                          er);
  3657  0466  30FD               	movlw	low _TMR2_DefaultInterruptHandler
  3658  0467  0020               	movlb	0	; select bank0
  3659  0468  00CD               	movwf	TMR2_SetInterruptHandler@InterruptHandler
  3660  0469  3004               	movlw	high _TMR2_DefaultInterruptHandler
  3661  046A  00CE               	movwf	TMR2_SetInterruptHandler@InterruptHandler+1
  3662  046B  3184  24D2         	fcall	_TMR2_SetInterruptHandler
  3663                           
  3664                           ;mcc_generated_files/tmr2.c: 84:     T2CON = 0x06;
  3665  046D  3006               	movlw	6
  3666  046E  0020               	movlb	0	; select bank0
  3667  046F  009C               	movwf	28	;volatile
  3668  0470  0008               	return
  3669  0471                     __end_of_TMR2_Initialize:
  3670                           
  3671                           	psect	text4
  3672  04D2                     __ptext4:	
  3673 ;; *************** function _TMR2_SetInterruptHandler *****************
  3674 ;; Defined at:
  3675 ;;		line 147 in file "mcc_generated_files/tmr2.c"
  3676 ;; Parameters:    Size  Location     Type
  3677 ;;  InterruptHan    2    0[BANK0 ] PTR FTN()void 
  3678 ;;		 -> Led2_PWM(1), TMR2_DefaultInterruptHandler(1), 
  3679 ;; Auto vars:     Size  Location     Type
  3680 ;;		None
  3681 ;; Return value:  Size  Location     Type
  3682 ;;                  1    wreg      void 
  3683 ;; Registers used:
  3684 ;;		wreg
  3685 ;; Tracked objects:
  3686 ;;		On entry : 0/0
  3687 ;;		On exit  : 0/0
  3688 ;;		Unchanged: 0/0
  3689 ;; Data sizes:     COMMON   BANK0   BANK1   BANK2   BANK3   BANK4   BANK5   BANK6
  3690 ;;      Params:         0       2       0       0       0       0       0       0
  3691 ;;      Locals:         0       0       0       0       0       0       0       0
  3692 ;;      Temps:          0       0       0       0       0       0       0       0
  3693 ;;      Totals:         0       2       0       0       0       0       0       0
  3694 ;;Total ram usage:        2 bytes
  3695 ;; Hardware stack levels used:    1
  3696 ;; Hardware stack levels required when called:    5
  3697 ;; This function calls:
  3698 ;;		Nothing
  3699 ;; This function is called by:
  3700 ;;		_TMR2_Initialize
  3701 ;;		_main
  3702 ;; This function uses a non-reentrant model
  3703 ;;
  3704                           
  3705                           
  3706                           ;psect for function _TMR2_SetInterruptHandler
  3707  04D2                     _TMR2_SetInterruptHandler:
  3708                           
  3709                           ;mcc_generated_files/tmr2.c: 148:     TMR2_InterruptHandler = InterruptHandler;
  3710                           
  3711                           ;incstack = 0
  3712                           ; Regs used in _TMR2_SetInterruptHandler: [wreg]
  3713  04D2  0020               	movlb	0	; select bank0
  3714  04D3  084E               	movf	TMR2_SetInterruptHandler@InterruptHandler+1,w
  3715  04D4  00EB               	movwf	_TMR2_InterruptHandler+1
  3716  04D5  084D               	movf	TMR2_SetInterruptHandler@InterruptHandler,w
  3717  04D6  00EA               	movwf	_TMR2_InterruptHandler
  3718  04D7  0008               	return
  3719  04D8                     __end_of_TMR2_SetInterruptHandler:
  3720                           
  3721                           	psect	text5
  3722  04B4                     __ptext5:	
  3723 ;; *************** function _PWM1_Initialize *****************
  3724 ;; Defined at:
  3725 ;;		line 58 in file "mcc_generated_files/pwm1.c"
  3726 ;; Parameters:    Size  Location     Type
  3727 ;;		None
  3728 ;; Auto vars:     Size  Location     Type
  3729 ;;		None
  3730 ;; Return value:  Size  Location     Type
  3731 ;;                  1    wreg      void 
  3732 ;; Registers used:
  3733 ;;		wreg
  3734 ;; Tracked objects:
  3735 ;;		On entry : 0/0
  3736 ;;		On exit  : 0/0
  3737 ;;		Unchanged: 0/0
  3738 ;; Data sizes:     COMMON   BANK0   BANK1   BANK2   BANK3   BANK4   BANK5   BANK6
  3739 ;;      Params:         0       0       0       0       0       0       0       0
  3740 ;;      Locals:         0       0       0       0       0       0       0       0
  3741 ;;      Temps:          0       0       0       0       0       0       0       0
  3742 ;;      Totals:         0       0       0       0       0       0       0       0
  3743 ;;Total ram usage:        0 bytes
  3744 ;; Hardware stack levels used:    1
  3745 ;; Hardware stack levels required when called:    5
  3746 ;; This function calls:
  3747 ;;		Nothing
  3748 ;; This function is called by:
  3749 ;;		_SYSTEM_Initialize
  3750 ;; This function uses a non-reentrant model
  3751 ;;
  3752                           
  3753                           
  3754                           ;psect for function _PWM1_Initialize
  3755  04B4                     _PWM1_Initialize:
  3756                           
  3757                           ;mcc_generated_files/pwm1.c: 62:     PWM1CON = 0xC0;
  3758                           
  3759                           ;incstack = 0
  3760                           ; Regs used in _PWM1_Initialize: [wreg]
  3761  04B4  30C0               	movlw	192
  3762  04B5  002C               	movlb	12	; select bank12
  3763  04B6  0093               	movwf	19	;volatile
  3764                           
  3765                           ;mcc_generated_files/pwm1.c: 65:     PWM1DCH = 0x7C;
  3766  04B7  307C               	movlw	124
  3767  04B8  0092               	movwf	18	;volatile
  3768                           
  3769                           ;mcc_generated_files/pwm1.c: 68:     PWM1DCL = 0xC0;
  3770  04B9  30C0               	movlw	192
  3771  04BA  0091               	movwf	17	;volatile
  3772  04BB  0008               	return
  3773  04BC                     __end_of_PWM1_Initialize:
  3774                           
  3775                           	psect	text6
  3776  03F5                     __ptext6:	
  3777 ;; *************** function _PIN_MANAGER_Initialize *****************
  3778 ;; Defined at:
  3779 ;;		line 55 in file "mcc_generated_files/pin_manager.c"
  3780 ;; Parameters:    Size  Location     Type
  3781 ;;		None
  3782 ;; Auto vars:     Size  Location     Type
  3783 ;;		None
  3784 ;; Return value:  Size  Location     Type
  3785 ;;                  1    wreg      void 
  3786 ;; Registers used:
  3787 ;;		wreg, status,2
  3788 ;; Tracked objects:
  3789 ;;		On entry : 0/0
  3790 ;;		On exit  : 0/0
  3791 ;;		Unchanged: 0/0
  3792 ;; Data sizes:     COMMON   BANK0   BANK1   BANK2   BANK3   BANK4   BANK5   BANK6
  3793 ;;      Params:         0       0       0       0       0       0       0       0
  3794 ;;      Locals:         0       0       0       0       0       0       0       0
  3795 ;;      Temps:          0       0       0       0       0       0       0       0
  3796 ;;      Totals:         0       0       0       0       0       0       0       0
  3797 ;;Total ram usage:        0 bytes
  3798 ;; Hardware stack levels used:    1
  3799 ;; Hardware stack levels required when called:    5
  3800 ;; This function calls:
  3801 ;;		Nothing
  3802 ;; This function is called by:
  3803 ;;		_SYSTEM_Initialize
  3804 ;; This function uses a non-reentrant model
  3805 ;;
  3806                           
  3807                           
  3808                           ;psect for function _PIN_MANAGER_Initialize
  3809  03F5                     _PIN_MANAGER_Initialize:
  3810                           
  3811                           ;mcc_generated_files/pin_manager.c: 60:     LATA = 0x00;
  3812                           
  3813                           ;incstack = 0
  3814                           ; Regs used in _PIN_MANAGER_Initialize: [wreg+status,2]
  3815  03F5  0022               	movlb	2	; select bank2
  3816  03F6  018C               	clrf	12	;volatile
  3817                           
  3818                           ;mcc_generated_files/pin_manager.c: 61:     LATB = 0x00;
  3819  03F7  018D               	clrf	13	;volatile
  3820                           
  3821                           ;mcc_generated_files/pin_manager.c: 62:     LATC = 0x00;
  3822  03F8  018E               	clrf	14	;volatile
  3823                           
  3824                           ;mcc_generated_files/pin_manager.c: 67:     TRISA = 0x3F;
  3825  03F9  303F               	movlw	63
  3826  03FA  0021               	movlb	1	; select bank1
  3827  03FB  008C               	movwf	12	;volatile
  3828                           
  3829                           ;mcc_generated_files/pin_manager.c: 68:     TRISB = 0x70;
  3830  03FC  3070               	movlw	112
  3831  03FD  008D               	movwf	13	;volatile
  3832                           
  3833                           ;mcc_generated_files/pin_manager.c: 69:     TRISC = 0x9B;
  3834  03FE  309B               	movlw	155
  3835  03FF  008E               	movwf	14	;volatile
  3836                           
  3837                           ;mcc_generated_files/pin_manager.c: 74:     ANSELC = 0x8B;
  3838  0400  308B               	movlw	139
  3839  0401  0023               	movlb	3	; select bank3
  3840  0402  008E               	movwf	14	;volatile
  3841                           
  3842                           ;mcc_generated_files/pin_manager.c: 75:     ANSELB = 0x10;
  3843  0403  3010               	movlw	16
  3844  0404  008D               	movwf	13	;volatile
  3845                           
  3846                           ;mcc_generated_files/pin_manager.c: 76:     ANSELA = 0x17;
  3847  0405  3017               	movlw	23
  3848  0406  008C               	movwf	12	;volatile
  3849                           
  3850                           ;mcc_generated_files/pin_manager.c: 81:     WPUB = 0x00;
  3851  0407  0024               	movlb	4	; select bank4
  3852  0408  018D               	clrf	13	;volatile
  3853                           
  3854                           ;mcc_generated_files/pin_manager.c: 82:     WPUA = 0x00;
  3855  0409  018C               	clrf	12	;volatile
  3856                           
  3857                           ;mcc_generated_files/pin_manager.c: 83:     OPTION_REGbits.nWPUEN = 1;
  3858  040A  0021               	movlb	1	; select bank1
  3859  040B  1795               	bsf	21,7	;volatile
  3860                           
  3861                           ;mcc_generated_files/pin_manager.c: 89:     APFCON = 0x00;
  3862  040C  0022               	movlb	2	; select bank2
  3863  040D  019D               	clrf	29	;volatile
  3864  040E  0008               	return
  3865  040F                     __end_of_PIN_MANAGER_Initialize:
  3866                           
  3867                           	psect	text7
  3868  04D8                     __ptext7:	
  3869 ;; *************** function _OSCILLATOR_Initialize *****************
  3870 ;; Defined at:
  3871 ;;		line 61 in file "mcc_generated_files/mcc.c"
  3872 ;; Parameters:    Size  Location     Type
  3873 ;;		None
  3874 ;; Auto vars:     Size  Location     Type
  3875 ;;		None
  3876 ;; Return value:  Size  Location     Type
  3877 ;;                  1    wreg      void 
  3878 ;; Registers used:
  3879 ;;		wreg, status,2
  3880 ;; Tracked objects:
  3881 ;;		On entry : 0/0
  3882 ;;		On exit  : 0/0
  3883 ;;		Unchanged: 0/0
  3884 ;; Data sizes:     COMMON   BANK0   BANK1   BANK2   BANK3   BANK4   BANK5   BANK6
  3885 ;;      Params:         0       0       0       0       0       0       0       0
  3886 ;;      Locals:         0       0       0       0       0       0       0       0
  3887 ;;      Temps:          0       0       0       0       0       0       0       0
  3888 ;;      Totals:         0       0       0       0       0       0       0       0
  3889 ;;Total ram usage:        0 bytes
  3890 ;; Hardware stack levels used:    1
  3891 ;; Hardware stack levels required when called:    5
  3892 ;; This function calls:
  3893 ;;		Nothing
  3894 ;; This function is called by:
  3895 ;;		_SYSTEM_Initialize
  3896 ;; This function uses a non-reentrant model
  3897 ;;
  3898                           
  3899                           
  3900                           ;psect for function _OSCILLATOR_Initialize
  3901  04D8                     _OSCILLATOR_Initialize:
  3902                           
  3903                           ;mcc_generated_files/mcc.c: 64:     OSCCON = 0x78;
  3904                           
  3905                           ;incstack = 0
  3906                           ; Regs used in _OSCILLATOR_Initialize: [wreg+status,2]
  3907  04D8  3078               	movlw	120
  3908  04D9  0021               	movlb	1	; select bank1
  3909  04DA  0099               	movwf	25	;volatile
  3910                           
  3911                           ;mcc_generated_files/mcc.c: 66:     BORCON = 0x00;
  3912  04DB  0022               	movlb	2	; select bank2
  3913  04DC  0196               	clrf	22	;volatile
  3914  04DD  0008               	return
  3915  04DE                     __end_of_OSCILLATOR_Initialize:
  3916                           
  3917                           	psect	text8
  3918  0379                     __ptext8:	
  3919 ;; *************** function _EUSART_Initialize *****************
  3920 ;; Defined at:
  3921 ;;		line 66 in file "mcc_generated_files/eusart.c"
  3922 ;; Parameters:    Size  Location     Type
  3923 ;;		None
  3924 ;; Auto vars:     Size  Location     Type
  3925 ;;		None
  3926 ;; Return value:  Size  Location     Type
  3927 ;;                  1    wreg      void 
  3928 ;; Registers used:
  3929 ;;		wreg, status,2, status,0, pclath, cstack
  3930 ;; Tracked objects:
  3931 ;;		On entry : 0/0
  3932 ;;		On exit  : 0/0
  3933 ;;		Unchanged: 0/0
  3934 ;; Data sizes:     COMMON   BANK0   BANK1   BANK2   BANK3   BANK4   BANK5   BANK6
  3935 ;;      Params:         0       0       0       0       0       0       0       0
  3936 ;;      Locals:         0       0       0       0       0       0       0       0
  3937 ;;      Temps:          0       0       0       0       0       0       0       0
  3938 ;;      Totals:         0       0       0       0       0       0       0       0
  3939 ;;Total ram usage:        0 bytes
  3940 ;; Hardware stack levels used:    1
  3941 ;; Hardware stack levels required when called:    6
  3942 ;; This function calls:
  3943 ;;		_EUSART_SetErrorHandler
  3944 ;;		_EUSART_SetFramingErrorHandler
  3945 ;;		_EUSART_SetOverrunErrorHandler
  3946 ;; This function is called by:
  3947 ;;		_SYSTEM_Initialize
  3948 ;; This function uses a non-reentrant model
  3949 ;;
  3950                           
  3951                           
  3952                           ;psect for function _EUSART_Initialize
  3953  0379                     _EUSART_Initialize:
  3954                           
  3955                           ;mcc_generated_files/eusart.c: 71:     BAUDCON = 0x08;
  3956                           
  3957                           ;incstack = 0
  3958                           ; Regs used in _EUSART_Initialize: [wreg+status,2+status,0+pclath+cstack]
  3959  0379  3008               	movlw	8
  3960  037A  0023               	movlb	3	; select bank3
  3961  037B  009F               	movwf	31	;volatile
  3962                           
  3963                           ;mcc_generated_files/eusart.c: 74:     RCSTA = 0x90;
  3964  037C  3090               	movlw	144
  3965  037D  009D               	movwf	29	;volatile
  3966                           
  3967                           ;mcc_generated_files/eusart.c: 77:     TXSTA = 0x24;
  3968  037E  3024               	movlw	36
  3969  037F  009E               	movwf	30	;volatile
  3970                           
  3971                           ;mcc_generated_files/eusart.c: 80:     SPBRGL = 0xA0;
  3972  0380  30A0               	movlw	160
  3973  0381  009B               	movwf	27	;volatile
  3974                           
  3975                           ;mcc_generated_files/eusart.c: 83:     SPBRGH = 0x01;
  3976  0382  3001               	movlw	1
  3977  0383  009C               	movwf	28	;volatile
  3978                           
  3979                           ;mcc_generated_files/eusart.c: 86:     EUSART_SetFramingErrorHandler(EUSART_DefaultFrami
      +                          ngErrorHandler);
  3980  0384  3000               	movlw	0
  3981  0385  0020               	movlb	0	; select bank0
  3982  0386  00CD               	movwf	EUSART_SetFramingErrorHandler@interruptHandler
  3983  0387  3000               	movlw	0
  3984  0388  00CE               	movwf	EUSART_SetFramingErrorHandler@interruptHandler+1
  3985  0389  3184  24E4  3183   	fcall	_EUSART_SetFramingErrorHandler
  3986                           
  3987                           ;mcc_generated_files/eusart.c: 87:     EUSART_SetOverrunErrorHandler(EUSART_DefaultOverr
      +                          unErrorHandler);
  3988  038C  3000               	movlw	0
  3989  038D  0020               	movlb	0	; select bank0
  3990  038E  00CD               	movwf	EUSART_SetOverrunErrorHandler@interruptHandler
  3991  038F  3000               	movlw	0
  3992  0390  00CE               	movwf	EUSART_SetOverrunErrorHandler@interruptHandler+1
  3993  0391  3184  24DE  3183   	fcall	_EUSART_SetOverrunErrorHandler
  3994                           
  3995                           ;mcc_generated_files/eusart.c: 88:     EUSART_SetErrorHandler(EUSART_DefaultErrorHandler
      +                          );
  3996  0394  3000               	movlw	0
  3997  0395  0020               	movlb	0	; select bank0
  3998  0396  00CD               	movwf	EUSART_SetErrorHandler@interruptHandler
  3999  0397  3000               	movlw	0
  4000  0398  00CE               	movwf	EUSART_SetErrorHandler@interruptHandler+1
  4001  0399  3184  24EA         	fcall	_EUSART_SetErrorHandler
  4002                           
  4003                           ;mcc_generated_files/eusart.c: 90:     eusartRxLastError.status = 0;
  4004  039B  0020               	movlb	0	; select bank0
  4005  039C  01CB               	clrf	_eusartRxLastError	;volatile
  4006  039D  0008               	return
  4007  039E                     __end_of_EUSART_Initialize:
  4008                           
  4009                           	psect	text9
  4010  04DE                     __ptext9:	
  4011 ;; *************** function _EUSART_SetOverrunErrorHandler *****************
  4012 ;; Defined at:
  4013 ;;		line 161 in file "mcc_generated_files/eusart.c"
  4014 ;; Parameters:    Size  Location     Type
  4015 ;;  interruptHan    2    0[BANK0 ] PTR FTN()void 
  4016 ;;		 -> EUSART_DefaultOverrunErrorHandler(1), 
  4017 ;; Auto vars:     Size  Location     Type
  4018 ;;		None
  4019 ;; Return value:  Size  Location     Type
  4020 ;;                  1    wreg      void 
  4021 ;; Registers used:
  4022 ;;		wreg
  4023 ;; Tracked objects:
  4024 ;;		On entry : 0/0
  4025 ;;		On exit  : 0/0
  4026 ;;		Unchanged: 0/0
  4027 ;; Data sizes:     COMMON   BANK0   BANK1   BANK2   BANK3   BANK4   BANK5   BANK6
  4028 ;;      Params:         0       2       0       0       0       0       0       0
  4029 ;;      Locals:         0       0       0       0       0       0       0       0
  4030 ;;      Temps:          0       0       0       0       0       0       0       0
  4031 ;;      Totals:         0       2       0       0       0       0       0       0
  4032 ;;Total ram usage:        2 bytes
  4033 ;; Hardware stack levels used:    1
  4034 ;; Hardware stack levels required when called:    5
  4035 ;; This function calls:
  4036 ;;		Nothing
  4037 ;; This function is called by:
  4038 ;;		_EUSART_Initialize
  4039 ;; This function uses a non-reentrant model
  4040 ;;
  4041                           
  4042                           
  4043                           ;psect for function _EUSART_SetOverrunErrorHandler
  4044  04DE                     _EUSART_SetOverrunErrorHandler:
  4045                           
  4046                           ;mcc_generated_files/eusart.c: 162:     EUSART_OverrunErrorHandler = interruptHandler;
  4047                           
  4048                           ;incstack = 0
  4049                           ; Regs used in _EUSART_SetOverrunErrorHandler: [wreg]
  4050  04DE  0020               	movlb	0	; select bank0
  4051  04DF  084E               	movf	EUSART_SetOverrunErrorHandler@interruptHandler+1,w
  4052  04E0  00E7               	movwf	_EUSART_OverrunErrorHandler+1
  4053  04E1  084D               	movf	EUSART_SetOverrunErrorHandler@interruptHandler,w
  4054  04E2  00E6               	movwf	_EUSART_OverrunErrorHandler
  4055  04E3  0008               	return
  4056  04E4                     __end_of_EUSART_SetOverrunErrorHandler:
  4057                           
  4058                           	psect	text10
  4059  04E4                     __ptext10:	
  4060 ;; *************** function _EUSART_SetFramingErrorHandler *****************
  4061 ;; Defined at:
  4062 ;;		line 157 in file "mcc_generated_files/eusart.c"
  4063 ;; Parameters:    Size  Location     Type
  4064 ;;  interruptHan    2    0[BANK0 ] PTR FTN()void 
  4065 ;;		 -> EUSART_DefaultFramingErrorHandler(1), 
  4066 ;; Auto vars:     Size  Location     Type
  4067 ;;		None
  4068 ;; Return value:  Size  Location     Type
  4069 ;;                  1    wreg      void 
  4070 ;; Registers used:
  4071 ;;		wreg
  4072 ;; Tracked objects:
  4073 ;;		On entry : 0/0
  4074 ;;		On exit  : 0/0
  4075 ;;		Unchanged: 0/0
  4076 ;; Data sizes:     COMMON   BANK0   BANK1   BANK2   BANK3   BANK4   BANK5   BANK6
  4077 ;;      Params:         0       2       0       0       0       0       0       0
  4078 ;;      Locals:         0       0       0       0       0       0       0       0
  4079 ;;      Temps:          0       0       0       0       0       0       0       0
  4080 ;;      Totals:         0       2       0       0       0       0       0       0
  4081 ;;Total ram usage:        2 bytes
  4082 ;; Hardware stack levels used:    1
  4083 ;; Hardware stack levels required when called:    5
  4084 ;; This function calls:
  4085 ;;		Nothing
  4086 ;; This function is called by:
  4087 ;;		_EUSART_Initialize
  4088 ;; This function uses a non-reentrant model
  4089 ;;
  4090                           
  4091                           
  4092                           ;psect for function _EUSART_SetFramingErrorHandler
  4093  04E4                     _EUSART_SetFramingErrorHandler:
  4094                           
  4095                           ;mcc_generated_files/eusart.c: 158:     EUSART_FramingErrorHandler = interruptHandler;
  4096                           
  4097                           ;incstack = 0
  4098                           ; Regs used in _EUSART_SetFramingErrorHandler: [wreg]
  4099  04E4  0020               	movlb	0	; select bank0
  4100  04E5  084E               	movf	EUSART_SetFramingErrorHandler@interruptHandler+1,w
  4101  04E6  00E9               	movwf	_EUSART_FramingErrorHandler+1
  4102  04E7  084D               	movf	EUSART_SetFramingErrorHandler@interruptHandler,w
  4103  04E8  00E8               	movwf	_EUSART_FramingErrorHandler
  4104  04E9  0008               	return
  4105  04EA                     __end_of_EUSART_SetFramingErrorHandler:
  4106                           
  4107                           	psect	text11
  4108  04EA                     __ptext11:	
  4109 ;; *************** function _EUSART_SetErrorHandler *****************
  4110 ;; Defined at:
  4111 ;;		line 165 in file "mcc_generated_files/eusart.c"
  4112 ;; Parameters:    Size  Location     Type
  4113 ;;  interruptHan    2    0[BANK0 ] PTR FTN()void 
  4114 ;;		 -> EUSART_DefaultErrorHandler(1), 
  4115 ;; Auto vars:     Size  Location     Type
  4116 ;;		None
  4117 ;; Return value:  Size  Location     Type
  4118 ;;                  1    wreg      void 
  4119 ;; Registers used:
  4120 ;;		wreg
  4121 ;; Tracked objects:
  4122 ;;		On entry : 0/0
  4123 ;;		On exit  : 0/0
  4124 ;;		Unchanged: 0/0
  4125 ;; Data sizes:     COMMON   BANK0   BANK1   BANK2   BANK3   BANK4   BANK5   BANK6
  4126 ;;      Params:         0       2       0       0       0       0       0       0
  4127 ;;      Locals:         0       0       0       0       0       0       0       0
  4128 ;;      Temps:          0       0       0       0       0       0       0       0
  4129 ;;      Totals:         0       2       0       0       0       0       0       0
  4130 ;;Total ram usage:        2 bytes
  4131 ;; Hardware stack levels used:    1
  4132 ;; Hardware stack levels required when called:    5
  4133 ;; This function calls:
  4134 ;;		Nothing
  4135 ;; This function is called by:
  4136 ;;		_EUSART_Initialize
  4137 ;; This function uses a non-reentrant model
  4138 ;;
  4139                           
  4140                           
  4141                           ;psect for function _EUSART_SetErrorHandler
  4142  04EA                     _EUSART_SetErrorHandler:
  4143                           
  4144                           ;mcc_generated_files/eusart.c: 166:     EUSART_ErrorHandler = interruptHandler;
  4145                           
  4146                           ;incstack = 0
  4147                           ; Regs used in _EUSART_SetErrorHandler: [wreg]
  4148  04EA  0020               	movlb	0	; select bank0
  4149  04EB  084E               	movf	EUSART_SetErrorHandler@interruptHandler+1,w
  4150  04EC  00E5               	movwf	_EUSART_ErrorHandler+1
  4151  04ED  084D               	movf	EUSART_SetErrorHandler@interruptHandler,w
  4152  04EE  00E4               	movwf	_EUSART_ErrorHandler
  4153  04EF  0008               	return
  4154  04F0                     __end_of_EUSART_SetErrorHandler:
  4155                           
  4156                           	psect	text12
  4157  0138                     __ptext12:	
  4158 ;; *************** function _COS_TskMan *****************
  4159 ;; Defined at:
  4160 ;;		line 133 in file "SourceFiles/COS/COS_Main.c"
  4161 ;; Parameters:    Size  Location     Type
  4162 ;;		None
  4163 ;; Auto vars:     Size  Location     Type
  4164 ;;		None
  4165 ;; Return value:  Size  Location     Type
  4166 ;;                  1    wreg      void 
  4167 ;; Registers used:
  4168 ;;		wreg, fsr0l, fsr0h, status,2, status,0, pclath, cstack
  4169 ;; Tracked objects:
  4170 ;;		On entry : 0/0
  4171 ;;		On exit  : 0/0
  4172 ;;		Unchanged: 0/0
  4173 ;; Data sizes:     COMMON   BANK0   BANK1   BANK2   BANK3   BANK4   BANK5   BANK6
  4174 ;;      Params:         0       0       0       0       0       0       0       0
  4175 ;;      Locals:         0       0       0       0       0       0       0       0
  4176 ;;      Temps:          0       0       2       0       0       0       0       0
  4177 ;;      Totals:         0       0       2       0       0       0       0       0
  4178 ;;Total ram usage:        2 bytes
  4179 ;; Hardware stack levels used:    1
  4180 ;; Hardware stack levels required when called:    8
  4181 ;; This function calls:
  4182 ;;		_SHT21_StateMachine
  4183 ;;		_UartDisplay
  4184 ;;		___wmul
  4185 ;; This function is called by:
  4186 ;;		_main
  4187 ;; This function uses a non-reentrant model
  4188 ;;
  4189                           
  4190                           
  4191                           ;psect for function _COS_TskMan
  4192  0138                     _COS_TskMan:
  4193                           
  4194                           ;SourceFiles/COS/COS_Main.c: 135:  if ((COS_tsk[COS_tsk_ind].sched & COS_tsk_msk) != 0)
  4195                           
  4196                           ;incstack = 0
  4197                           ; Regs used in _COS_TskMan: [wreg-fsr0h+status,2+status,0+pclath+cstack]
  4198  0138  0020               	movlb	0	; select bank0
  4199  0139  084C               	movf	_COS_tsk_ind,w
  4200  013A  0021               	movlb	1	; select bank1
  4201  013B  00A0               	movwf	??_COS_TskMan^(0+128)
  4202  013C  01A1               	clrf	(??_COS_TskMan^(0+128)+1)
  4203  013D  0820               	movf	??_COS_TskMan^(0+128),w
  4204  013E  0020               	movlb	0	; select bank0
  4205  013F  00CD               	movwf	___wmul@multiplier
  4206  0140  0021               	movlb	1	; select bank1
  4207  0141  0821               	movf	(??_COS_TskMan+1)^(0+128),w
  4208  0142  0020               	movlb	0	; select bank0
  4209  0143  00CE               	movwf	___wmul@multiplier+1
  4210  0144  3003               	movlw	3
  4211  0145  00CF               	movwf	___wmul@multiplicand
  4212  0146  3000               	movlw	0
  4213  0147  00D0               	movwf	___wmul@multiplicand+1
  4214  0148  3183  23BE  3181   	fcall	___wmul
  4215  014B  0020               	movlb	0	; select bank0
  4216  014C  084E               	movf	?___wmul+1,w
  4217  014D  0085               	movwf	5
  4218  014E  084D               	movf	?___wmul,w
  4219  014F  0084               	movwf	4
  4220  0150  3073               	movlw	low ((_COS_tsk+2)| (0+32768))
  4221  0151  0784               	addwf	4,f
  4222  0152  3084               	movlw	high ((_COS_tsk+2)| (0+32768))
  4223  0153  3D85               	addwfc	5,f
  4224  0154  0800               	movf	0,w	;code access
  4225  0155  056D               	andwf	_COS_tsk_msk,w
  4226  0156  1903               	btfsc	3,2
  4227  0157  2978               	goto	l2476
  4228                           
  4229                           ;SourceFiles/COS/COS_Main.c: 136:  {;SourceFiles/COS/COS_Main.c: 143:   (*COS_tsk[COS_ts
      +                          k_ind].tptr)();
  4230  0158  084C               	movf	_COS_tsk_ind,w
  4231  0159  0021               	movlb	1	; select bank1
  4232  015A  00A0               	movwf	??_COS_TskMan^(0+128)
  4233  015B  01A1               	clrf	(??_COS_TskMan^(0+128)+1)
  4234  015C  0820               	movf	??_COS_TskMan^(0+128),w
  4235  015D  0020               	movlb	0	; select bank0
  4236  015E  00CD               	movwf	___wmul@multiplier
  4237  015F  0021               	movlb	1	; select bank1
  4238  0160  0821               	movf	(??_COS_TskMan+1)^(0+128),w
  4239  0161  0020               	movlb	0	; select bank0
  4240  0162  00CE               	movwf	___wmul@multiplier+1
  4241  0163  3003               	movlw	3
  4242  0164  00CF               	movwf	___wmul@multiplicand
  4243  0165  3000               	movlw	0
  4244  0166  00D0               	movwf	___wmul@multiplicand+1
  4245  0167  3183  23BE  3181   	fcall	___wmul
  4246  016A  0020               	movlb	0	; select bank0
  4247  016B  084E               	movf	?___wmul+1,w
  4248  016C  0085               	movwf	5
  4249  016D  084D               	movf	?___wmul,w
  4250  016E  0084               	movwf	4
  4251  016F  3071               	movlw	low (_COS_tsk| (0+32768))
  4252  0170  0784               	addwf	4,f
  4253  0171  3084               	movlw	high (_COS_tsk| (0+32768))
  4254  0172  3D85               	addwfc	5,f
  4255  0173  3F01               	moviw [1]fsr0
  4256  0174  008A               	movwf	10
  4257  0175  3F00               	moviw [0]fsr0
  4258  0176  000A               	callw
  4259  0177  3181               	pagesel	$
  4260  0178                     l2476:
  4261                           
  4262                           ;SourceFiles/COS/COS_Main.c: 150:  COS_tsk_ind++;
  4263  0178  3001               	movlw	1
  4264  0179  0021               	movlb	1	; select bank1
  4265  017A  00A0               	movwf	??_COS_TskMan^(0+128)
  4266  017B  0820               	movf	??_COS_TskMan^(0+128),w
  4267  017C  0020               	movlb	0	; select bank0
  4268  017D  07CC               	addwf	_COS_tsk_ind,f
  4269                           
  4270                           ;SourceFiles/COS/COS_Main.c: 151:  if (COS_tsk_ind >= (3 +2))
  4271  017E  3005               	movlw	5
  4272  017F  024C               	subwf	_COS_tsk_ind,w
  4273  0180  1C03               	skipc
  4274  0181  0008               	return
  4275                           
  4276                           ;SourceFiles/COS/COS_Main.c: 152:  {;SourceFiles/COS/COS_Main.c: 153:   COS_tsk_ena = 0;
  4277  0182  01EC               	clrf	_COS_tsk_ena
  4278                           
  4279                           ;SourceFiles/COS/COS_Main.c: 154:   COS_tsk_ind = 0;
  4280  0183  01CC               	clrf	_COS_tsk_ind
  4281                           
  4282                           ;SourceFiles/COS/COS_Main.c: 157:   if (!((COS_tsk_msk == 0x80) ||
  4283  0184  3080               	movlw	128
  4284  0185  066D               	xorwf	_COS_tsk_msk,w
  4285  0186  1903               	btfsc	3,2
  4286  0187  29A4               	goto	l2498
  4287  0188  3040               	movlw	64
  4288  0189  066D               	xorwf	_COS_tsk_msk,w
  4289  018A  1903               	btfsc	3,2
  4290  018B  29A4               	goto	l2498
  4291  018C  3020               	movlw	32
  4292  018D  066D               	xorwf	_COS_tsk_msk,w
  4293  018E  1903               	btfsc	3,2
  4294  018F  29A4               	goto	l2498
  4295  0190  3010               	movlw	16
  4296  0191  066D               	xorwf	_COS_tsk_msk,w
  4297  0192  1903               	btfsc	3,2
  4298  0193  29A4               	goto	l2498
  4299  0194  3008               	movlw	8
  4300  0195  066D               	xorwf	_COS_tsk_msk,w
  4301  0196  1903               	btfsc	3,2
  4302  0197  29A4               	goto	l2498
  4303  0198  3004               	movlw	4
  4304  0199  066D               	xorwf	_COS_tsk_msk,w
  4305  019A  1903               	btfsc	3,2
  4306  019B  29A4               	goto	l2498
  4307  019C  3002               	movlw	2
  4308  019D  066D               	xorwf	_COS_tsk_msk,w
  4309  019E  1903               	btfsc	3,2
  4310  019F  29A4               	goto	l2498
  4311  01A0  036D               	decf	_COS_tsk_msk,w
  4312  01A1  1903               	btfsc	3,2
  4313  01A2  29A4               	goto	l2498
  4314  01A3                     l47:	
  4315                           ;SourceFiles/COS/COS_Main.c: 165:   {;SourceFiles/COS/COS_Main.c: 169:     while(1);
  4316                           
  4317  01A3  29A3               	goto	l47
  4318  01A4                     l2498:
  4319                           
  4320                           ;SourceFiles/COS/COS_Main.c: 174:   COS_tsk_msk = COS_tsk_msk >> 1;
  4321  01A4  366D               	lsrf	_COS_tsk_msk,w
  4322  01A5  0021               	movlb	1	; select bank1
  4323  01A6  00A0               	movwf	??_COS_TskMan^(0+128)
  4324  01A7  0820               	movf	??_COS_TskMan^(0+128),w
  4325  01A8  0020               	movlb	0	; select bank0
  4326  01A9  00ED               	movwf	_COS_tsk_msk
  4327                           
  4328                           ;SourceFiles/COS/COS_Main.c: 175:   if (COS_tsk_msk == 0x00)
  4329  01AA  086D               	movf	_COS_tsk_msk,w
  4330  01AB  1D03               	btfss	3,2
  4331  01AC  0008               	return
  4332                           
  4333                           ;SourceFiles/COS/COS_Main.c: 176:   {;SourceFiles/COS/COS_Main.c: 177:    COS_tsk_msk = 
      +                          0x80;
  4334  01AD  3080               	movlw	128
  4335  01AE  0021               	movlb	1	; select bank1
  4336  01AF  00A0               	movwf	??_COS_TskMan^(0+128)
  4337  01B0  0820               	movf	??_COS_TskMan^(0+128),w
  4338  01B1  0020               	movlb	0	; select bank0
  4339  01B2  00ED               	movwf	_COS_tsk_msk
  4340  01B3  0008               	return
  4341  01B4                     __end_of_COS_TskMan:
  4342                           
  4343                           	psect	text13
  4344  03BE                     __ptext13:	
  4345 ;; *************** function ___wmul *****************
  4346 ;; Defined at:
  4347 ;;		line 15 in file "C:\Program Files\Microchip\xc8\v2.20\pic\sources\c99\common\Umul16.c"
  4348 ;; Parameters:    Size  Location     Type
  4349 ;;  multiplier      2    0[BANK0 ] unsigned int 
  4350 ;;  multiplicand    2    2[BANK0 ] unsigned int 
  4351 ;; Auto vars:     Size  Location     Type
  4352 ;;  product         2    4[BANK0 ] unsigned int 
  4353 ;; Return value:  Size  Location     Type
  4354 ;;                  2    0[BANK0 ] unsigned int 
  4355 ;; Registers used:
  4356 ;;		wreg, status,2, status,0
  4357 ;; Tracked objects:
  4358 ;;		On entry : 0/0
  4359 ;;		On exit  : 0/0
  4360 ;;		Unchanged: 0/0
  4361 ;; Data sizes:     COMMON   BANK0   BANK1   BANK2   BANK3   BANK4   BANK5   BANK6
  4362 ;;      Params:         0       4       0       0       0       0       0       0
  4363 ;;      Locals:         0       2       0       0       0       0       0       0
  4364 ;;      Temps:          0       0       0       0       0       0       0       0
  4365 ;;      Totals:         0       6       0       0       0       0       0       0
  4366 ;;Total ram usage:        6 bytes
  4367 ;; Hardware stack levels used:    1
  4368 ;; Hardware stack levels required when called:    5
  4369 ;; This function calls:
  4370 ;;		Nothing
  4371 ;; This function is called by:
  4372 ;;		_COS_TskMan
  4373 ;; This function uses a non-reentrant model
  4374 ;;
  4375                           
  4376                           
  4377                           ;psect for function ___wmul
  4378  03BE                     ___wmul:
  4379                           
  4380                           ;incstack = 0
  4381                           ; Regs used in ___wmul: [wreg+status,2+status,0]
  4382  03BE  0020               	movlb	0	; select bank0
  4383  03BF  01D1               	clrf	___wmul@product
  4384  03C0  01D2               	clrf	___wmul@product+1
  4385  03C1                     l2412:
  4386  03C1  1C4D               	btfss	___wmul@multiplier,0
  4387  03C2  2BC7               	goto	l622
  4388  03C3  084F               	movf	___wmul@multiplicand,w
  4389  03C4  07D1               	addwf	___wmul@product,f
  4390  03C5  0850               	movf	___wmul@multiplicand+1,w
  4391  03C6  3DD2               	addwfc	___wmul@product+1,f
  4392  03C7                     l622:
  4393  03C7  3001               	movlw	1
  4394  03C8                     u1605:
  4395  03C8  35CF               	lslf	___wmul@multiplicand,f
  4396  03C9  0DD0               	rlf	___wmul@multiplicand+1,f
  4397  03CA  0B89               	decfsz	9,f
  4398  03CB  2BC8               	goto	u1605
  4399  03CC  3001               	movlw	1
  4400  03CD                     u1615:
  4401  03CD  36CE               	lsrf	___wmul@multiplier+1,f
  4402  03CE  0CCD               	rrf	___wmul@multiplier,f
  4403  03CF  0B89               	decfsz	9,f
  4404  03D0  2BCD               	goto	u1615
  4405  03D1  084D               	movf	___wmul@multiplier,w
  4406  03D2  044E               	iorwf	___wmul@multiplier+1,w
  4407  03D3  1D03               	btfss	3,2
  4408  03D4  2BC1               	goto	l2412
  4409  03D5  0852               	movf	___wmul@product+1,w
  4410  03D6  00CE               	movwf	?___wmul+1
  4411  03D7  0851               	movf	___wmul@product,w
  4412  03D8  00CD               	movwf	?___wmul
  4413  03D9  0008               	return
  4414  03DA                     __end_of___wmul:
  4415                           
  4416                           	psect	text14
  4417  002F                     __ptext14:	
  4418 ;; *************** function _SHT21_StateMachine *****************
  4419 ;; Defined at:
  4420 ;;		line 24 in file "SourceFiles/SunSensor/SHT21.c"
  4421 ;; Parameters:    Size  Location     Type
  4422 ;;		None
  4423 ;; Auto vars:     Size  Location     Type
  4424 ;;		None
  4425 ;; Return value:  Size  Location     Type
  4426 ;;                  1    wreg      void 
  4427 ;; Registers used:
  4428 ;;		wreg, fsr0l, fsr0h, status,2, status,0, pclath, cstack
  4429 ;; Tracked objects:
  4430 ;;		On entry : 0/0
  4431 ;;		On exit  : 0/0
  4432 ;;		Unchanged: 0/0
  4433 ;; Data sizes:     COMMON   BANK0   BANK1   BANK2   BANK3   BANK4   BANK5   BANK6
  4434 ;;      Params:         0       0       0       0       0       0       0       0
  4435 ;;      Locals:         0       0       0       0       0       0       0       0
  4436 ;;      Temps:          0       2       0       0       0       0       0       0
  4437 ;;      Totals:         0       2       0       0       0       0       0       0
  4438 ;;Total ram usage:        2 bytes
  4439 ;; Hardware stack levels used:    1
  4440 ;; Hardware stack levels required when called:    7
  4441 ;; This function calls:
  4442 ;;		_I2c_ReadByte
  4443 ;;		_I2c_StartCondition
  4444 ;;		_I2c_StopCondition
  4445 ;;		_I2c_WriteByte
  4446 ;;		_SHT21_FaultHand
  4447 ;;		_SHT2x_CalcRelativeHumidity
  4448 ;;		_SHT2x_CalcTemperatureC
  4449 ;;		_SendByUart
  4450 ;; This function is called by:
  4451 ;;		_Tsk_I2C_StateMachine
  4452 ;;		_COS_TskMan
  4453 ;; This function uses a non-reentrant model
  4454 ;;
  4455                           
  4456                           
  4457                           ;psect for function _SHT21_StateMachine
  4458  002F                     _SHT21_StateMachine:
  4459                           
  4460                           ;SourceFiles/SunSensor/SHT21.c: 26:     switch(SHT21_State)
  4461                           
  4462                           ;incstack = 0
  4463                           ; Regs used in _SHT21_StateMachine: [wreg-fsr0h+status,2+status,0+pclath+cstack]
  4464  002F  2913               	goto	l2402
  4465  0030                     l2316:
  4466                           
  4467                           ;SourceFiles/SunSensor/SHT21.c: 29:             SHT21_Fault = 0;
  4468  0030  01C5               	clrf	_SHT21_Fault
  4469                           
  4470                           ;SourceFiles/SunSensor/SHT21.c: 30:             SHT21_State = SHT21_MEASURE_TEMP_1;
  4471  0031  01BF               	clrf	_SHT21_State
  4472  0032  0ABF               	incf	_SHT21_State,f
  4473                           
  4474                           ;SourceFiles/SunSensor/SHT21.c: 31:             break;
  4475  0033  2933               	goto	l2404
  4476  0034                     l2320:
  4477                           
  4478                           ;SourceFiles/SunSensor/SHT21.c: 34:             I2c_StartCondition();
  4479  0034  3184  24A1  3180   	fcall	_I2c_StartCondition
  4480                           
  4481                           ;SourceFiles/SunSensor/SHT21.c: 35:             ErrorStat |= I2c_WriteByte(128);
  4482  0037  3080               	movlw	128
  4483  0038  3184  2425  3180   	fcall	_I2c_WriteByte
  4484  003B  0020               	movlb	0	; select bank0
  4485  003C  00E2               	movwf	??_SHT21_StateMachine
  4486  003D  0862               	movf	??_SHT21_StateMachine,w
  4487  003E  04F8               	iorwf	_ErrorStat,f
  4488                           
  4489                           ;SourceFiles/SunSensor/SHT21.c: 36:             ErrorStat |= I2c_WriteByte(0xF3);
  4490  003F  30F3               	movlw	243
  4491  0040  3184  2425  3180   	fcall	_I2c_WriteByte
  4492  0043  0020               	movlb	0	; select bank0
  4493  0044  00E2               	movwf	??_SHT21_StateMachine
  4494  0045  0862               	movf	??_SHT21_StateMachine,w
  4495  0046  04F8               	iorwf	_ErrorStat,f
  4496                           
  4497                           ;SourceFiles/SunSensor/SHT21.c: 37:             if (ErrorStat == 0)
  4498  0047  0878               	movf	_ErrorStat,w
  4499  0048  1D03               	btfss	3,2
  4500  0049  2851               	goto	l2328
  4501                           
  4502                           ;SourceFiles/SunSensor/SHT21.c: 38:             {;SourceFiles/SunSensor/SHT21.c: 39:    
      +                                       SHT21_State = SHT21_MEASURE_TEMP_2;
  4503  004A  3002               	movlw	2
  4504  004B  00E2               	movwf	??_SHT21_StateMachine
  4505  004C  0862               	movf	??_SHT21_StateMachine,w
  4506  004D  00BF               	movwf	_SHT21_State
  4507                           
  4508                           ;SourceFiles/SunSensor/SHT21.c: 40:                 I2C_Timer = 0;
  4509  004E  01AA               	clrf	_I2C_Timer
  4510  004F  01AB               	clrf	_I2C_Timer+1
  4511                           
  4512                           ;SourceFiles/SunSensor/SHT21.c: 41:             }
  4513  0050  2933               	goto	l2404
  4514  0051                     l2328:
  4515                           
  4516                           ;SourceFiles/SunSensor/SHT21.c: 43:             {;SourceFiles/SunSensor/SHT21.c: 44:    
      +                                       SHT21_FaultHand();
  4517  0051  3184  2480  3180   	fcall	_SHT21_FaultHand
  4518  0054  2933               	goto	l2404
  4519  0055                     l2330:
  4520                           
  4521                           ;SourceFiles/SunSensor/SHT21.c: 48:             I2c_StartCondition();
  4522  0055  3184  24A1  3180   	fcall	_I2c_StartCondition
  4523                           
  4524                           ;SourceFiles/SunSensor/SHT21.c: 49:             I2C_Timer += 10;
  4525  0058  300A               	movlw	10
  4526  0059  0020               	movlb	0	; select bank0
  4527  005A  07AA               	addwf	_I2C_Timer,f
  4528  005B  3000               	movlw	0
  4529  005C  3DAB               	addwfc	_I2C_Timer+1,f
  4530                           
  4531                           ;SourceFiles/SunSensor/SHT21.c: 50:             if (I2C_Timer > 200)
  4532  005D  3000               	movlw	0
  4533  005E  022B               	subwf	_I2C_Timer+1,w
  4534  005F  30C9               	movlw	201
  4535  0060  1903               	skipnz
  4536  0061  022A               	subwf	_I2C_Timer,w
  4537  0062  1803               	btfsc	3,0
  4538  0063  2851               	goto	l2328
  4539  0064  3081               	movlw	129
  4540  0065  3184  2425  3180   	fcall	_I2c_WriteByte
  4541  0068  3A00               	xorlw	0
  4542  0069  1D03               	btfss	3,2
  4543  006A  2933               	goto	l2404
  4544                           
  4545                           ;SourceFiles/SunSensor/SHT21.c: 59:             {;SourceFiles/SunSensor/SHT21.c: 61:    
      +                                       TemperatureRaw_H = I2c_ReadByte(0);
  4546  006B  3000               	movlw	0
  4547  006C  3183  239E  3180   	fcall	_I2c_ReadByte
  4548  006F  0020               	movlb	0	; select bank0
  4549  0070  00E2               	movwf	??_SHT21_StateMachine
  4550  0071  0862               	movf	??_SHT21_StateMachine,w
  4551  0072  00C3               	movwf	_TemperatureRaw_H
  4552                           
  4553                           ;SourceFiles/SunSensor/SHT21.c: 62:                 TemperatureRaw_L = I2c_ReadByte(0);
  4554  0073  3000               	movlw	0
  4555  0074  3183  239E  3180   	fcall	_I2c_ReadByte
  4556  0077  0020               	movlb	0	; select bank0
  4557  0078  00E2               	movwf	??_SHT21_StateMachine
  4558  0079  0862               	movf	??_SHT21_StateMachine,w
  4559  007A  00C2               	movwf	_TemperatureRaw_L
  4560                           
  4561                           ;SourceFiles/SunSensor/SHT21.c: 63:                 TemperatureRaw = (UINT_16) Temperatu
      +                          reRaw_H;
  4562  007B  0843               	movf	_TemperatureRaw_H,w
  4563  007C  00E2               	movwf	??_SHT21_StateMachine
  4564  007D  01E3               	clrf	??_SHT21_StateMachine+1
  4565  007E  0862               	movf	??_SHT21_StateMachine,w
  4566  007F  00A4               	movwf	_TemperatureRaw
  4567  0080  0863               	movf	??_SHT21_StateMachine+1,w
  4568  0081  00A5               	movwf	_TemperatureRaw+1
  4569                           
  4570                           ;SourceFiles/SunSensor/SHT21.c: 64:                 TemperatureRaw <<= 8;
  4571  0082  3008               	movlw	8
  4572  0083                     u1545:
  4573  0083  35A4               	lslf	_TemperatureRaw,f
  4574  0084  0DA5               	rlf	_TemperatureRaw+1,f
  4575  0085  0B89               	decfsz	9,f
  4576  0086  2883               	goto	u1545
  4577                           
  4578                           ;SourceFiles/SunSensor/SHT21.c: 65:                 TemperatureRaw |= (UINT_16) Temperat
      +                          ureRaw_L;
  4579  0087  0842               	movf	_TemperatureRaw_L,w
  4580  0088  00E2               	movwf	??_SHT21_StateMachine
  4581  0089  01E3               	clrf	??_SHT21_StateMachine+1
  4582  008A  0862               	movf	??_SHT21_StateMachine,w
  4583  008B  04A4               	iorwf	_TemperatureRaw,f
  4584  008C  0863               	movf	??_SHT21_StateMachine+1,w
  4585  008D  04A5               	iorwf	_TemperatureRaw+1,f
  4586                           
  4587                           ;SourceFiles/SunSensor/SHT21.c: 66:                 checksum = I2c_ReadByte(1);
  4588  008E  3001               	movlw	1
  4589  008F  3183  239E  3180   	fcall	_I2c_ReadByte
  4590  0092  0020               	movlb	0	; select bank0
  4591  0093  00E2               	movwf	??_SHT21_StateMachine
  4592  0094  0862               	movf	??_SHT21_StateMachine,w
  4593  0095  00C4               	movwf	_checksum
  4594                           
  4595                           ;SourceFiles/SunSensor/SHT21.c: 67:                 I2c_StopCondition();
  4596  0096  3184  2497  3180   	fcall	_I2c_StopCondition
  4597                           
  4598                           ;SourceFiles/SunSensor/SHT21.c: 68:                 SHT21_State = SHT21_MEASURE_RH_0;
  4599  0099  3003               	movlw	3
  4600  009A  28FA               	goto	L4
  4601  009B                     l2356:
  4602                           
  4603                           ;SourceFiles/SunSensor/SHT21.c: 73:             I2c_StartCondition();
  4604  009B  3184  24A1  3180   	fcall	_I2c_StartCondition
  4605                           
  4606                           ;SourceFiles/SunSensor/SHT21.c: 74:             ErrorStat |= I2c_WriteByte(128);
  4607  009E  3080               	movlw	128
  4608  009F  3184  2425  3180   	fcall	_I2c_WriteByte
  4609  00A2  0020               	movlb	0	; select bank0
  4610  00A3  00E2               	movwf	??_SHT21_StateMachine
  4611  00A4  0862               	movf	??_SHT21_StateMachine,w
  4612  00A5  04F8               	iorwf	_ErrorStat,f
  4613                           
  4614                           ;SourceFiles/SunSensor/SHT21.c: 75:             ErrorStat |= I2c_WriteByte(0xF5);
  4615  00A6  30F5               	movlw	245
  4616  00A7  3184  2425  3180   	fcall	_I2c_WriteByte
  4617  00AA  0020               	movlb	0	; select bank0
  4618  00AB  00E2               	movwf	??_SHT21_StateMachine
  4619  00AC  0862               	movf	??_SHT21_StateMachine,w
  4620  00AD  04F8               	iorwf	_ErrorStat,f
  4621                           
  4622                           ;SourceFiles/SunSensor/SHT21.c: 76:             if (ErrorStat == 0)
  4623  00AE  0878               	movf	_ErrorStat,w
  4624  00AF  1D03               	btfss	3,2
  4625  00B0  2851               	goto	l2328
  4626                           
  4627                           ;SourceFiles/SunSensor/SHT21.c: 77:             {;SourceFiles/SunSensor/SHT21.c: 78:    
      +                                       I2C_Timer = 0;
  4628  00B1  01AA               	clrf	_I2C_Timer
  4629  00B2  01AB               	clrf	_I2C_Timer+1
  4630                           
  4631                           ;SourceFiles/SunSensor/SHT21.c: 79:                 SHT21_State = SHT21_MEASURE_RH_1;
  4632  00B3  3004               	movlw	4
  4633  00B4  2905               	goto	L3
  4634  00B5                     l2366:	
  4635                           ;SourceFiles/SunSensor/SHT21.c: 80:             }
  4636                           
  4637                           
  4638                           ;SourceFiles/SunSensor/SHT21.c: 87:             I2c_StartCondition();
  4639  00B5  3184  24A1  3180   	fcall	_I2c_StartCondition
  4640                           
  4641                           ;SourceFiles/SunSensor/SHT21.c: 88:             I2C_Timer += 10;
  4642  00B8  300A               	movlw	10
  4643  00B9  0020               	movlb	0	; select bank0
  4644  00BA  07AA               	addwf	_I2C_Timer,f
  4645  00BB  3000               	movlw	0
  4646  00BC  3DAB               	addwfc	_I2C_Timer+1,f
  4647                           
  4648                           ;SourceFiles/SunSensor/SHT21.c: 89:             if (I2C_Timer > 200)
  4649  00BD  3000               	movlw	0
  4650  00BE  022B               	subwf	_I2C_Timer+1,w
  4651  00BF  30C9               	movlw	201
  4652  00C0  1903               	skipnz
  4653  00C1  022A               	subwf	_I2C_Timer,w
  4654  00C2  1803               	btfsc	3,0
  4655  00C3  2851               	goto	l2328
  4656  00C4  3081               	movlw	129
  4657  00C5  3184  2425  3180   	fcall	_I2c_WriteByte
  4658  00C8  3A00               	xorlw	0
  4659  00C9  1D03               	btfss	3,2
  4660  00CA  2933               	goto	l2404
  4661                           
  4662                           ;SourceFiles/SunSensor/SHT21.c: 98:             {;SourceFiles/SunSensor/SHT21.c: 100:   
      +                                        RelativeHumidityRaw_H = I2c_ReadByte(0);
  4663  00CB  3000               	movlw	0
  4664  00CC  3183  239E  3180   	fcall	_I2c_ReadByte
  4665  00CF  0020               	movlb	0	; select bank0
  4666  00D0  00E2               	movwf	??_SHT21_StateMachine
  4667  00D1  0862               	movf	??_SHT21_StateMachine,w
  4668  00D2  00C1               	movwf	_RelativeHumidityRaw_H
  4669                           
  4670                           ;SourceFiles/SunSensor/SHT21.c: 101:                 RelativeHumidityRaw_L = I2c_ReadByt
      +                          e(0);
  4671  00D3  3000               	movlw	0
  4672  00D4  3183  239E  3180   	fcall	_I2c_ReadByte
  4673  00D7  0020               	movlb	0	; select bank0
  4674  00D8  00E2               	movwf	??_SHT21_StateMachine
  4675  00D9  0862               	movf	??_SHT21_StateMachine,w
  4676  00DA  00C0               	movwf	_RelativeHumidityRaw_L
  4677                           
  4678                           ;SourceFiles/SunSensor/SHT21.c: 102:                 RelativeHumidityRaw = (UINT_16) Rel
      +                          ativeHumidityRaw_H;
  4679  00DB  0841               	movf	_RelativeHumidityRaw_H,w
  4680  00DC  00E2               	movwf	??_SHT21_StateMachine
  4681  00DD  01E3               	clrf	??_SHT21_StateMachine+1
  4682  00DE  0862               	movf	??_SHT21_StateMachine,w
  4683  00DF  00A2               	movwf	_RelativeHumidityRaw
  4684  00E0  0863               	movf	??_SHT21_StateMachine+1,w
  4685  00E1  00A3               	movwf	_RelativeHumidityRaw+1
  4686                           
  4687                           ;SourceFiles/SunSensor/SHT21.c: 103:                 RelativeHumidityRaw <<= 8;
  4688  00E2  3008               	movlw	8
  4689  00E3                     u1585:
  4690  00E3  35A2               	lslf	_RelativeHumidityRaw,f
  4691  00E4  0DA3               	rlf	_RelativeHumidityRaw+1,f
  4692  00E5  0B89               	decfsz	9,f
  4693  00E6  28E3               	goto	u1585
  4694                           
  4695                           ;SourceFiles/SunSensor/SHT21.c: 104:                 RelativeHumidityRaw |= (UINT_16) Re
      +                          lativeHumidityRaw_L;
  4696  00E7  0840               	movf	_RelativeHumidityRaw_L,w
  4697  00E8  00E2               	movwf	??_SHT21_StateMachine
  4698  00E9  01E3               	clrf	??_SHT21_StateMachine+1
  4699  00EA  0862               	movf	??_SHT21_StateMachine,w
  4700  00EB  04A2               	iorwf	_RelativeHumidityRaw,f
  4701  00EC  0863               	movf	??_SHT21_StateMachine+1,w
  4702  00ED  04A3               	iorwf	_RelativeHumidityRaw+1,f
  4703                           
  4704                           ;SourceFiles/SunSensor/SHT21.c: 105:                 checksum = I2c_ReadByte(1);
  4705  00EE  3001               	movlw	1
  4706  00EF  3183  239E  3180   	fcall	_I2c_ReadByte
  4707  00F2  0020               	movlb	0	; select bank0
  4708  00F3  00E2               	movwf	??_SHT21_StateMachine
  4709  00F4  0862               	movf	??_SHT21_StateMachine,w
  4710  00F5  00C4               	movwf	_checksum
  4711                           
  4712                           ;SourceFiles/SunSensor/SHT21.c: 106:                 I2c_StopCondition();
  4713  00F6  3184  2497  3180   	fcall	_I2c_StopCondition
  4714                           
  4715                           ;SourceFiles/SunSensor/SHT21.c: 107:                 SHT21_State = SHT21_CALC_TEMP_0;
  4716  00F9  3005               	movlw	5
  4717  00FA                     L4:
  4718  00FA  0020               	movlb	0	; select bank0
  4719  00FB  2905               	goto	L3
  4720  00FC                     l2392:
  4721                           
  4722                           ;SourceFiles/SunSensor/SHT21.c: 111:             SensirionTemperature_UBP8 = SHT2x_CalcT
      +                          emperatureC();
  4723  00FC  3182  22C8  3180   	fcall	_SHT2x_CalcTemperatureC
  4724  00FF  0020               	movlb	0	; select bank0
  4725  0100  085A               	movf	?_SHT2x_CalcTemperatureC+1,w
  4726  0101  00A9               	movwf	_SensirionTemperature_UBP8+1
  4727  0102  0859               	movf	?_SHT2x_CalcTemperatureC,w
  4728  0103  00A8               	movwf	_SensirionTemperature_UBP8
  4729                           
  4730                           ;SourceFiles/SunSensor/SHT21.c: 112:             SHT21_State = SHT21_CALC_RH_0;
  4731  0104  3006               	movlw	6
  4732  0105                     L3:
  4733  0105  00E2               	movwf	??_SHT21_StateMachine
  4734  0106  0862               	movf	??_SHT21_StateMachine,w
  4735  0107  00BF               	movwf	_SHT21_State
  4736                           
  4737                           ;SourceFiles/SunSensor/SHT21.c: 113:             break;
  4738  0108  2933               	goto	l2404
  4739  0109                     l2396:
  4740                           
  4741                           ;SourceFiles/SunSensor/SHT21.c: 115:             SHT21_State = SHT21_MEASURE_TEMP_0;
  4742  0109  01BF               	clrf	_SHT21_State
  4743                           
  4744                           ;SourceFiles/SunSensor/SHT21.c: 116:             SensirionRH_UBP8 = SHT2x_CalcRelativeHu
      +                          midity();
  4745  010A  3182  2277  3180   	fcall	_SHT2x_CalcRelativeHumidity
  4746  010D  0020               	movlb	0	; select bank0
  4747  010E  085A               	movf	?_SHT2x_CalcRelativeHumidity+1,w
  4748  010F  00A7               	movwf	_SensirionRH_UBP8+1
  4749  0110  0859               	movf	?_SHT2x_CalcRelativeHumidity,w
  4750  0111  00A6               	movwf	_SensirionRH_UBP8
  4751                           
  4752                           ;SourceFiles/SunSensor/SHT21.c: 117:             break;
  4753  0112  2933               	goto	l2404
  4754  0113                     l2402:
  4755  0113  0020               	movlb	0	; select bank0
  4756  0114  083F               	movf	_SHT21_State,w
  4757  0115  00E2               	movwf	??_SHT21_StateMachine
  4758  0116  01E3               	clrf	??_SHT21_StateMachine+1
  4759                           
  4760                           ; Switch on 2 bytes has been partitioned into a top level switch of size 1, and 1 sub-sw
      +                          itches
  4761                           ; Switch size 1, requested type "simple"
  4762                           ; Number of cases is 1, Range of values is 0 to 0
  4763                           ; switch strategies available:
  4764                           ; Name         Instructions Cycles
  4765                           ; simple_byte            4     3 (average)
  4766                           ; direct_byte            8     6 (fixed)
  4767                           ; jumptable            260     6 (fixed)
  4768                           ;	Chosen strategy is simple_byte
  4769  0117  0863               	movf	??_SHT21_StateMachine+1,w
  4770  0118  3A00               	xorlw	0	; case 0
  4771  0119  1903               	skipnz
  4772  011A  291C               	goto	l2602
  4773  011B  2933               	goto	l2404
  4774  011C                     l2602:
  4775                           
  4776                           ; Switch size 1, requested type "simple"
  4777                           ; Number of cases is 7, Range of values is 0 to 6
  4778                           ; switch strategies available:
  4779                           ; Name         Instructions Cycles
  4780                           ; direct_byte           20     6 (fixed)
  4781                           ; simple_byte           22    12 (average)
  4782                           ; jumptable            260     6 (fixed)
  4783                           ;	Chosen strategy is simple_byte
  4784  011C  0862               	movf	??_SHT21_StateMachine,w
  4785  011D  3A00               	xorlw	0	; case 0
  4786  011E  1903               	skipnz
  4787  011F  2830               	goto	l2316
  4788  0120  3A01               	xorlw	1	; case 1
  4789  0121  1903               	skipnz
  4790  0122  2834               	goto	l2320
  4791  0123  3A03               	xorlw	3	; case 2
  4792  0124  1903               	skipnz
  4793  0125  2855               	goto	l2330
  4794  0126  3A01               	xorlw	1	; case 3
  4795  0127  1903               	skipnz
  4796  0128  289B               	goto	l2356
  4797  0129  3A07               	xorlw	7	; case 4
  4798  012A  1903               	skipnz
  4799  012B  28B5               	goto	l2366
  4800  012C  3A01               	xorlw	1	; case 5
  4801  012D  1903               	skipnz
  4802  012E  28FC               	goto	l2392
  4803  012F  3A03               	xorlw	3	; case 6
  4804  0130  1903               	skipnz
  4805  0131  2909               	goto	l2396
  4806  0132  2933               	goto	l2404
  4807  0133                     l2404:
  4808                           
  4809                           ;SourceFiles/SunSensor/SHT21.c: 119:     SendByUart(SensirionTemperature_UBP8);
  4810  0133  0020               	movlb	0	; select bank0
  4811  0134  0828               	movf	_SensirionTemperature_UBP8,w
  4812  0135  3184  24AB         	fcall	_SendByUart
  4813  0137  0008               	return
  4814  0138                     __end_of_SHT21_StateMachine:
  4815                           
  4816                           	psect	text15
  4817  04BC                     __ptext15:	
  4818 ;; *************** function _UartDisplay *****************
  4819 ;; Defined at:
  4820 ;;		line 23 in file "SourceFiles/SunSensor/UART_Display.c"
  4821 ;; Parameters:    Size  Location     Type
  4822 ;;		None
  4823 ;; Auto vars:     Size  Location     Type
  4824 ;;		None
  4825 ;; Return value:  Size  Location     Type
  4826 ;;                  1    wreg      void 
  4827 ;; Registers used:
  4828 ;;		wreg, status,2, status,0, pclath, cstack
  4829 ;; Tracked objects:
  4830 ;;		On entry : 0/0
  4831 ;;		On exit  : 0/0
  4832 ;;		Unchanged: 0/0
  4833 ;; Data sizes:     COMMON   BANK0   BANK1   BANK2   BANK3   BANK4   BANK5   BANK6
  4834 ;;      Params:         0       0       0       0       0       0       0       0
  4835 ;;      Locals:         0       0       0       0       0       0       0       0
  4836 ;;      Temps:          0       0       0       0       0       0       0       0
  4837 ;;      Totals:         0       0       0       0       0       0       0       0
  4838 ;;Total ram usage:        0 bytes
  4839 ;; Hardware stack levels used:    1
  4840 ;; Hardware stack levels required when called:    6
  4841 ;; This function calls:
  4842 ;;		_EUSART_Write
  4843 ;; This function is called by:
  4844 ;;		_COS_TskMan
  4845 ;; This function uses a non-reentrant model
  4846 ;;
  4847                           
  4848                           
  4849                           ;psect for function _UartDisplay
  4850  04BC                     _UartDisplay:
  4851                           
  4852                           ;SourceFiles/SunSensor/UART_Display.c: 25:     if (NewMessageFlag == 1)
  4853                           
  4854                           ;incstack = 0
  4855                           ; Regs used in _UartDisplay: [wreg+status,2+status,0+pclath+cstack]
  4856  04BC  0379               	decf	_NewMessageFlag,w
  4857  04BD  1D03               	btfss	3,2
  4858  04BE  0008               	return
  4859                           
  4860                           ;SourceFiles/SunSensor/UART_Display.c: 26:     {;SourceFiles/SunSensor/UART_Display.c: 2
      +                          7:         EUSART_Write(U8Message);
  4861  04BF  087A               	movf	_U8Message,w
  4862  04C0  3184  24C4         	fcall	_EUSART_Write
  4863                           
  4864                           ;SourceFiles/SunSensor/UART_Display.c: 28:         NewMessageFlag = 0;
  4865  04C2  01F9               	clrf	_NewMessageFlag
  4866  04C3  0008               	return
  4867  04C4                     __end_of_UartDisplay:
  4868                           
  4869                           	psect	text16
  4870  04C4                     __ptext16:	
  4871 ;; *************** function _EUSART_Write *****************
  4872 ;; Defined at:
  4873 ;;		line 132 in file "mcc_generated_files/eusart.c"
  4874 ;; Parameters:    Size  Location     Type
  4875 ;;  txData          1    wreg     unsigned char 
  4876 ;; Auto vars:     Size  Location     Type
  4877 ;;  txData          1    0[BANK0 ] unsigned char 
  4878 ;; Return value:  Size  Location     Type
  4879 ;;                  1    wreg      void 
  4880 ;; Registers used:
  4881 ;;		wreg
  4882 ;; Tracked objects:
  4883 ;;		On entry : 0/0
  4884 ;;		On exit  : 0/0
  4885 ;;		Unchanged: 0/0
  4886 ;; Data sizes:     COMMON   BANK0   BANK1   BANK2   BANK3   BANK4   BANK5   BANK6
  4887 ;;      Params:         0       0       0       0       0       0       0       0
  4888 ;;      Locals:         0       1       0       0       0       0       0       0
  4889 ;;      Temps:          0       0       0       0       0       0       0       0
  4890 ;;      Totals:         0       1       0       0       0       0       0       0
  4891 ;;Total ram usage:        1 bytes
  4892 ;; Hardware stack levels used:    1
  4893 ;; Hardware stack levels required when called:    5
  4894 ;; This function calls:
  4895 ;;		Nothing
  4896 ;; This function is called by:
  4897 ;;		_UartDisplay
  4898 ;; This function uses a non-reentrant model
  4899 ;;
  4900                           
  4901                           
  4902                           ;psect for function _EUSART_Write
  4903  04C4                     _EUSART_Write:
  4904                           
  4905                           ;incstack = 0
  4906                           ; Regs used in _EUSART_Write: [wreg]
  4907                           ;EUSART_Write@txData stored from wreg
  4908  04C4  0020               	movlb	0	; select bank0
  4909  04C5  00CD               	movwf	EUSART_Write@txData
  4910  04C6                     l265:	
  4911                           ;mcc_generated_files/eusart.c: 135:     {;mcc_generated_files/eusart.c: 136:     }
  4912                           
  4913                           
  4914                           ;mcc_generated_files/eusart.c: 134:     while(0 == PIR1bits.TXIF)
  4915  04C6  1E11               	btfss	17,4	;volatile
  4916  04C7  2CC6               	goto	l265
  4917                           
  4918                           ;mcc_generated_files/eusart.c: 138:     TXREG = txData;
  4919  04C8  084D               	movf	EUSART_Write@txData,w
  4920  04C9  0023               	movlb	3	; select bank3
  4921  04CA  009A               	movwf	26	;volatile
  4922  04CB  0008               	return
  4923  04CC                     __end_of_EUSART_Write:
  4924                           
  4925                           	psect	text17
  4926  04AB                     __ptext17:	
  4927 ;; *************** function _SendByUart *****************
  4928 ;; Defined at:
  4929 ;;		line 17 in file "SourceFiles/SunSensor/UART_Display.c"
  4930 ;; Parameters:    Size  Location     Type
  4931 ;;  Txt             1    wreg     unsigned char 
  4932 ;; Auto vars:     Size  Location     Type
  4933 ;;  Txt             1    1[BANK0 ] unsigned char 
  4934 ;; Return value:  Size  Location     Type
  4935 ;;                  1    wreg      void 
  4936 ;; Registers used:
  4937 ;;		wreg
  4938 ;; Tracked objects:
  4939 ;;		On entry : 0/0
  4940 ;;		On exit  : 0/0
  4941 ;;		Unchanged: 0/0
  4942 ;; Data sizes:     COMMON   BANK0   BANK1   BANK2   BANK3   BANK4   BANK5   BANK6
  4943 ;;      Params:         0       0       0       0       0       0       0       0
  4944 ;;      Locals:         0       1       0       0       0       0       0       0
  4945 ;;      Temps:          0       1       0       0       0       0       0       0
  4946 ;;      Totals:         0       2       0       0       0       0       0       0
  4947 ;;Total ram usage:        2 bytes
  4948 ;; Hardware stack levels used:    1
  4949 ;; Hardware stack levels required when called:    5
  4950 ;; This function calls:
  4951 ;;		Nothing
  4952 ;; This function is called by:
  4953 ;;		_SHT21_StateMachine
  4954 ;;		_GetTemp
  4955 ;; This function uses a non-reentrant model
  4956 ;;
  4957                           
  4958                           
  4959                           ;psect for function _SendByUart
  4960  04AB                     _SendByUart:
  4961                           
  4962                           ;incstack = 0
  4963                           ; Regs used in _SendByUart: [wreg]
  4964                           ;SendByUart@Txt stored from wreg
  4965  04AB  0020               	movlb	0	; select bank0
  4966  04AC  00CE               	movwf	SendByUart@Txt
  4967                           
  4968                           ;SourceFiles/SunSensor/UART_Display.c: 17: void SendByUart(uint8_t Txt);SourceFiles/SunS
      +                          ensor/UART_Display.c: 18: {;SourceFiles/SunSensor/UART_Display.c: 19:     U8Message = Tx
      +                          t;
  4969  04AD  084E               	movf	SendByUart@Txt,w
  4970  04AE  00CD               	movwf	??_SendByUart
  4971  04AF  084D               	movf	??_SendByUart,w
  4972  04B0  00FA               	movwf	_U8Message
  4973                           
  4974                           ;SourceFiles/SunSensor/UART_Display.c: 20:     NewMessageFlag = 1;
  4975  04B1  01F9               	clrf	_NewMessageFlag
  4976  04B2  0AF9               	incf	_NewMessageFlag,f
  4977  04B3  0008               	return
  4978  04B4                     __end_of_SendByUart:
  4979                           
  4980                           	psect	text18
  4981  02C8                     __ptext18:	
  4982 ;; *************** function _SHT2x_CalcTemperatureC *****************
  4983 ;; Defined at:
  4984 ;;		line 154 in file "SourceFiles/SunSensor/SHT21.c"
  4985 ;; Parameters:    Size  Location     Type
  4986 ;;		None
  4987 ;; Auto vars:     Size  Location     Type
  4988 ;;  TemperatureT    4   17[BANK0 ] long 
  4989 ;;  Temperature_    2   15[BANK0 ] unsigned short 
  4990 ;; Return value:  Size  Location     Type
  4991 ;;                  2   12[BANK0 ] unsigned short 
  4992 ;; Registers used:
  4993 ;;		wreg, status,2, status,0, pclath, cstack
  4994 ;; Tracked objects:
  4995 ;;		On entry : 0/0
  4996 ;;		On exit  : 0/0
  4997 ;;		Unchanged: 0/0
  4998 ;; Data sizes:     COMMON   BANK0   BANK1   BANK2   BANK3   BANK4   BANK5   BANK6
  4999 ;;      Params:         0       2       0       0       0       0       0       0
  5000 ;;      Locals:         0       6       0       0       0       0       0       0
  5001 ;;      Temps:          0       1       0       0       0       0       0       0
  5002 ;;      Totals:         0       9       0       0       0       0       0       0
  5003 ;;Total ram usage:        9 bytes
  5004 ;; Hardware stack levels used:    1
  5005 ;; Hardware stack levels required when called:    6
  5006 ;; This function calls:
  5007 ;;		___lmul
  5008 ;; This function is called by:
  5009 ;;		_SHT21_StateMachine
  5010 ;; This function uses a non-reentrant model
  5011 ;;
  5012                           
  5013                           
  5014                           ;psect for function _SHT2x_CalcTemperatureC
  5015  02C8                     _SHT2x_CalcTemperatureC:
  5016                           
  5017                           ;SourceFiles/SunSensor/SHT21.c: 156:     SINT_32 TemperatureTemp;;SourceFiles/SunSensor/
      +                          SHT21.c: 157:     UINT_16 Temperature_UBP8;;SourceFiles/SunSensor/SHT21.c: 161:     Temp
      +                          eratureTemp = (SINT_32)TemperatureRaw * (SINT_32)(175.72 * 256);
  5018                           
  5019                           ;incstack = 0
  5020                           ; Regs used in _SHT2x_CalcTemperatureC: [wreg+status,2+status,0+pclath+cstack]
  5021  02C8  0020               	movlb	0	; select bank0
  5022  02C9  0824               	movf	_TemperatureRaw,w
  5023  02CA  00CD               	movwf	___lmul@multiplier
  5024  02CB  0825               	movf	_TemperatureRaw+1,w
  5025  02CC  00CE               	movwf	___lmul@multiplier+1
  5026  02CD  01CF               	clrf	___lmul@multiplier+2
  5027  02CE  01D0               	clrf	___lmul@multiplier+3
  5028  02CF  3000               	movlw	0
  5029  02D0  00D4               	movwf	___lmul@multiplicand+3
  5030  02D1  3000               	movlw	0
  5031  02D2  00D3               	movwf	___lmul@multiplicand+2
  5032  02D3  30AF               	movlw	175
  5033  02D4  00D2               	movwf	___lmul@multiplicand+1
  5034  02D5  30B8               	movlw	184
  5035  02D6  00D1               	movwf	___lmul@multiplicand
  5036  02D7  3183  2349  3182   	fcall	___lmul
  5037  02DA  0020               	movlb	0	; select bank0
  5038  02DB  0850               	movf	?___lmul+3,w
  5039  02DC  00E1               	movwf	SHT2x_CalcTemperatureC@TemperatureTemp+3
  5040  02DD  084F               	movf	?___lmul+2,w
  5041  02DE  00E0               	movwf	SHT2x_CalcTemperatureC@TemperatureTemp+2
  5042  02DF  084E               	movf	?___lmul+1,w
  5043  02E0  00DF               	movwf	SHT2x_CalcTemperatureC@TemperatureTemp+1
  5044  02E1  084D               	movf	?___lmul,w
  5045  02E2  00DE               	movwf	SHT2x_CalcTemperatureC@TemperatureTemp
  5046                           
  5047                           ;SourceFiles/SunSensor/SHT21.c: 162:     TemperatureTemp -= (SINT_32)(6.85 * 65536 * 256
      +                          );
  5048  02E3  3067               	movlw	103
  5049  02E4  07DE               	addwf	SHT2x_CalcTemperatureC@TemperatureTemp,f
  5050  02E5  3066               	movlw	102
  5051  02E6  3DDF               	addwfc	SHT2x_CalcTemperatureC@TemperatureTemp+1,f
  5052  02E7  3026               	movlw	38
  5053  02E8  3DE0               	addwfc	SHT2x_CalcTemperatureC@TemperatureTemp+2,f
  5054  02E9  30F9               	movlw	249
  5055  02EA  3DE1               	addwfc	SHT2x_CalcTemperatureC@TemperatureTemp+3,f
  5056                           
  5057                           ;SourceFiles/SunSensor/SHT21.c: 163:     if(TemperatureTemp < 0)TemperatureTemp = 0;
  5058  02EB  1FE1               	btfss	SHT2x_CalcTemperatureC@TemperatureTemp+3,7
  5059  02EC  2AF5               	goto	l526
  5060  02ED  3000               	movlw	0
  5061  02EE  00E1               	movwf	SHT2x_CalcTemperatureC@TemperatureTemp+3
  5062  02EF  3000               	movlw	0
  5063  02F0  00E0               	movwf	SHT2x_CalcTemperatureC@TemperatureTemp+2
  5064  02F1  3000               	movlw	0
  5065  02F2  00DF               	movwf	SHT2x_CalcTemperatureC@TemperatureTemp+1
  5066  02F3  3000               	movlw	0
  5067  02F4  00DE               	movwf	SHT2x_CalcTemperatureC@TemperatureTemp
  5068  02F5                     l526:
  5069                           
  5070                           ;SourceFiles/SunSensor/SHT21.c: 164:     TemperatureTemp >>= 8;
  5071  02F5  3008               	movlw	8
  5072  02F6  00DB               	movwf	??_SHT2x_CalcTemperatureC
  5073  02F7                     u1445:
  5074  02F7  37E1               	asrf	SHT2x_CalcTemperatureC@TemperatureTemp+3,f
  5075  02F8  0CE0               	rrf	SHT2x_CalcTemperatureC@TemperatureTemp+2,f
  5076  02F9  0CDF               	rrf	SHT2x_CalcTemperatureC@TemperatureTemp+1,f
  5077  02FA  0CDE               	rrf	SHT2x_CalcTemperatureC@TemperatureTemp,f
  5078  02FB  0BDB               	decfsz	??_SHT2x_CalcTemperatureC& (0+127),f
  5079  02FC  2AF7               	goto	u1445
  5080                           
  5081                           ;SourceFiles/SunSensor/SHT21.c: 165:     TemperatureTemp >>= 8;
  5082  02FD  3008               	movlw	8
  5083  02FE  00DB               	movwf	??_SHT2x_CalcTemperatureC
  5084  02FF                     u1455:
  5085  02FF  37E1               	asrf	SHT2x_CalcTemperatureC@TemperatureTemp+3,f
  5086  0300  0CE0               	rrf	SHT2x_CalcTemperatureC@TemperatureTemp+2,f
  5087  0301  0CDF               	rrf	SHT2x_CalcTemperatureC@TemperatureTemp+1,f
  5088  0302  0CDE               	rrf	SHT2x_CalcTemperatureC@TemperatureTemp,f
  5089  0303  0BDB               	decfsz	??_SHT2x_CalcTemperatureC& (0+127),f
  5090  0304  2AFF               	goto	u1455
  5091                           
  5092                           ;SourceFiles/SunSensor/SHT21.c: 166:     Temperature_UBP8 = (UINT_16)TemperatureTemp;
  5093  0305  085F               	movf	SHT2x_CalcTemperatureC@TemperatureTemp+1,w
  5094  0306  00DD               	movwf	SHT2x_CalcTemperatureC@Temperature_UBP8+1
  5095  0307  085E               	movf	SHT2x_CalcTemperatureC@TemperatureTemp,w
  5096  0308  00DC               	movwf	SHT2x_CalcTemperatureC@Temperature_UBP8
  5097                           
  5098                           ;SourceFiles/SunSensor/SHT21.c: 167:     return(Temperature_UBP8);
  5099  0309  085D               	movf	SHT2x_CalcTemperatureC@Temperature_UBP8+1,w
  5100  030A  00DA               	movwf	?_SHT2x_CalcTemperatureC+1
  5101  030B  085C               	movf	SHT2x_CalcTemperatureC@Temperature_UBP8,w
  5102  030C  00D9               	movwf	?_SHT2x_CalcTemperatureC
  5103  030D  0008               	return
  5104  030E                     __end_of_SHT2x_CalcTemperatureC:
  5105                           
  5106                           	psect	text19
  5107  0277                     __ptext19:	
  5108 ;; *************** function _SHT2x_CalcRelativeHumidity *****************
  5109 ;; Defined at:
  5110 ;;		line 170 in file "SourceFiles/SunSensor/SHT21.c"
  5111 ;; Parameters:    Size  Location     Type
  5112 ;;		None
  5113 ;; Auto vars:     Size  Location     Type
  5114 ;;  RelativeHumi    4   17[BANK0 ] long 
  5115 ;;  RelativeHumi    2   15[BANK0 ] unsigned short 
  5116 ;; Return value:  Size  Location     Type
  5117 ;;                  2   12[BANK0 ] unsigned short 
  5118 ;; Registers used:
  5119 ;;		wreg, status,2, status,0, pclath, cstack
  5120 ;; Tracked objects:
  5121 ;;		On entry : 0/0
  5122 ;;		On exit  : 0/0
  5123 ;;		Unchanged: 0/0
  5124 ;; Data sizes:     COMMON   BANK0   BANK1   BANK2   BANK3   BANK4   BANK5   BANK6
  5125 ;;      Params:         0       2       0       0       0       0       0       0
  5126 ;;      Locals:         0       6       0       0       0       0       0       0
  5127 ;;      Temps:          0       1       0       0       0       0       0       0
  5128 ;;      Totals:         0       9       0       0       0       0       0       0
  5129 ;;Total ram usage:        9 bytes
  5130 ;; Hardware stack levels used:    1
  5131 ;; Hardware stack levels required when called:    6
  5132 ;; This function calls:
  5133 ;;		___lmul
  5134 ;; This function is called by:
  5135 ;;		_SHT21_StateMachine
  5136 ;; This function uses a non-reentrant model
  5137 ;;
  5138                           
  5139                           
  5140                           ;psect for function _SHT2x_CalcRelativeHumidity
  5141  0277                     _SHT2x_CalcRelativeHumidity:
  5142                           
  5143                           ;SourceFiles/SunSensor/SHT21.c: 172:     SINT_32 RelativeHumidityTemp;;SourceFiles/SunSe
      +                          nsor/SHT21.c: 173:     UINT_16 RelativeHumidity_UBP8;;SourceFiles/SunSensor/SHT21.c: 177
      +                          :     RelativeHumidityTemp = (SINT_32)RelativeHumidityRaw * (SINT_32)(125 * 256);
  5144                           
  5145                           ;incstack = 0
  5146                           ; Regs used in _SHT2x_CalcRelativeHumidity: [wreg+status,2+status,0+pclath+cstack]
  5147  0277  0020               	movlb	0	; select bank0
  5148  0278  0822               	movf	_RelativeHumidityRaw,w
  5149  0279  00CD               	movwf	___lmul@multiplier
  5150  027A  0823               	movf	_RelativeHumidityRaw+1,w
  5151  027B  00CE               	movwf	___lmul@multiplier+1
  5152  027C  01CF               	clrf	___lmul@multiplier+2
  5153  027D  01D0               	clrf	___lmul@multiplier+3
  5154  027E  3000               	movlw	0
  5155  027F  00D4               	movwf	___lmul@multiplicand+3
  5156  0280  3000               	movlw	0
  5157  0281  00D3               	movwf	___lmul@multiplicand+2
  5158  0282  307D               	movlw	125
  5159  0283  00D2               	movwf	___lmul@multiplicand+1
  5160  0284  3000               	movlw	0
  5161  0285  00D1               	movwf	___lmul@multiplicand
  5162  0286  3183  2349  3182   	fcall	___lmul
  5163  0289  0020               	movlb	0	; select bank0
  5164  028A  0850               	movf	?___lmul+3,w
  5165  028B  00E1               	movwf	SHT2x_CalcRelativeHumidity@RelativeHumidityTemp+3
  5166  028C  084F               	movf	?___lmul+2,w
  5167  028D  00E0               	movwf	SHT2x_CalcRelativeHumidity@RelativeHumidityTemp+2
  5168  028E  084E               	movf	?___lmul+1,w
  5169  028F  00DF               	movwf	SHT2x_CalcRelativeHumidity@RelativeHumidityTemp+1
  5170  0290  084D               	movf	?___lmul,w
  5171  0291  00DE               	movwf	SHT2x_CalcRelativeHumidity@RelativeHumidityTemp
  5172                           
  5173                           ;SourceFiles/SunSensor/SHT21.c: 178:     RelativeHumidityTemp -= (SINT_32)(6 * 65536 * 2
      +                          56);
  5174  0292  3000               	movlw	0
  5175  0293  07DE               	addwf	SHT2x_CalcRelativeHumidity@RelativeHumidityTemp,f
  5176  0294  3000               	movlw	0
  5177  0295  3DDF               	addwfc	SHT2x_CalcRelativeHumidity@RelativeHumidityTemp+1,f
  5178  0296  3000               	movlw	0
  5179  0297  3DE0               	addwfc	SHT2x_CalcRelativeHumidity@RelativeHumidityTemp+2,f
  5180  0298  30FA               	movlw	250
  5181  0299  3DE1               	addwfc	SHT2x_CalcRelativeHumidity@RelativeHumidityTemp+3,f
  5182                           
  5183                           ;SourceFiles/SunSensor/SHT21.c: 179:     if(RelativeHumidityTemp < 0)RelativeHumidityTem
      +                          p = 0;
  5184  029A  1FE1               	btfss	SHT2x_CalcRelativeHumidity@RelativeHumidityTemp+3,7
  5185  029B  2AA4               	goto	l530
  5186  029C  3000               	movlw	0
  5187  029D  00E1               	movwf	SHT2x_CalcRelativeHumidity@RelativeHumidityTemp+3
  5188  029E  3000               	movlw	0
  5189  029F  00E0               	movwf	SHT2x_CalcRelativeHumidity@RelativeHumidityTemp+2
  5190  02A0  3000               	movlw	0
  5191  02A1  00DF               	movwf	SHT2x_CalcRelativeHumidity@RelativeHumidityTemp+1
  5192  02A2  3000               	movlw	0
  5193  02A3  00DE               	movwf	SHT2x_CalcRelativeHumidity@RelativeHumidityTemp
  5194  02A4                     l530:
  5195                           
  5196                           ;SourceFiles/SunSensor/SHT21.c: 180:     RelativeHumidityTemp >>= 8;
  5197  02A4  3008               	movlw	8
  5198  02A5  00DB               	movwf	??_SHT2x_CalcRelativeHumidity
  5199  02A6                     u1475:
  5200  02A6  37E1               	asrf	SHT2x_CalcRelativeHumidity@RelativeHumidityTemp+3,f
  5201  02A7  0CE0               	rrf	SHT2x_CalcRelativeHumidity@RelativeHumidityTemp+2,f
  5202  02A8  0CDF               	rrf	SHT2x_CalcRelativeHumidity@RelativeHumidityTemp+1,f
  5203  02A9  0CDE               	rrf	SHT2x_CalcRelativeHumidity@RelativeHumidityTemp,f
  5204  02AA  0BDB               	decfsz	??_SHT2x_CalcRelativeHumidity& (0+127),f
  5205  02AB  2AA6               	goto	u1475
  5206                           
  5207                           ;SourceFiles/SunSensor/SHT21.c: 181:     RelativeHumidityTemp >>= 8;
  5208  02AC  3008               	movlw	8
  5209  02AD  00DB               	movwf	??_SHT2x_CalcRelativeHumidity
  5210  02AE                     u1485:
  5211  02AE  37E1               	asrf	SHT2x_CalcRelativeHumidity@RelativeHumidityTemp+3,f
  5212  02AF  0CE0               	rrf	SHT2x_CalcRelativeHumidity@RelativeHumidityTemp+2,f
  5213  02B0  0CDF               	rrf	SHT2x_CalcRelativeHumidity@RelativeHumidityTemp+1,f
  5214  02B1  0CDE               	rrf	SHT2x_CalcRelativeHumidity@RelativeHumidityTemp,f
  5215  02B2  0BDB               	decfsz	??_SHT2x_CalcRelativeHumidity& (0+127),f
  5216  02B3  2AAE               	goto	u1485
  5217                           
  5218                           ;SourceFiles/SunSensor/SHT21.c: 182:     RelativeHumidity_UBP8 = (UINT_16)RelativeHumidi
      +                          tyTemp;
  5219  02B4  085F               	movf	SHT2x_CalcRelativeHumidity@RelativeHumidityTemp+1,w
  5220  02B5  00DD               	movwf	SHT2x_CalcRelativeHumidity@RelativeHumidity_UBP8+1
  5221  02B6  085E               	movf	SHT2x_CalcRelativeHumidity@RelativeHumidityTemp,w
  5222  02B7  00DC               	movwf	SHT2x_CalcRelativeHumidity@RelativeHumidity_UBP8
  5223                           
  5224                           ;SourceFiles/SunSensor/SHT21.c: 183:     if(RelativeHumidity_UBP8 >(UINT_16)(100.0 * 256
      +                          ))
  5225  02B8  3064               	movlw	100
  5226  02B9  025D               	subwf	SHT2x_CalcRelativeHumidity@RelativeHumidity_UBP8+1,w
  5227  02BA  3001               	movlw	1
  5228  02BB  1903               	skipnz
  5229  02BC  025C               	subwf	SHT2x_CalcRelativeHumidity@RelativeHumidity_UBP8,w
  5230  02BD  1C03               	skipc
  5231  02BE  2AC3               	goto	l531
  5232                           
  5233                           ;SourceFiles/SunSensor/SHT21.c: 184:     {;SourceFiles/SunSensor/SHT21.c: 185:         R
      +                          elativeHumidity_UBP8 = (UINT_16)(100.0 * 256);
  5234  02BF  3000               	movlw	0
  5235  02C0  00DC               	movwf	SHT2x_CalcRelativeHumidity@RelativeHumidity_UBP8
  5236  02C1  3064               	movlw	100
  5237  02C2  00DD               	movwf	SHT2x_CalcRelativeHumidity@RelativeHumidity_UBP8+1
  5238  02C3                     l531:	
  5239                           ;SourceFiles/SunSensor/SHT21.c: 186:     }
  5240                           
  5241                           
  5242                           ;SourceFiles/SunSensor/SHT21.c: 187:     return(RelativeHumidity_UBP8);
  5243  02C3  085D               	movf	SHT2x_CalcRelativeHumidity@RelativeHumidity_UBP8+1,w
  5244  02C4  00DA               	movwf	?_SHT2x_CalcRelativeHumidity+1
  5245  02C5  085C               	movf	SHT2x_CalcRelativeHumidity@RelativeHumidity_UBP8,w
  5246  02C6  00D9               	movwf	?_SHT2x_CalcRelativeHumidity
  5247  02C7  0008               	return
  5248  02C8                     __end_of_SHT2x_CalcRelativeHumidity:
  5249                           
  5250                           	psect	text20
  5251  0349                     __ptext20:	
  5252 ;; *************** function ___lmul *****************
  5253 ;; Defined at:
  5254 ;;		line 15 in file "C:\Program Files\Microchip\xc8\v2.20\pic\sources\c99\common\Umul32.c"
  5255 ;; Parameters:    Size  Location     Type
  5256 ;;  multiplier      4    0[BANK0 ] unsigned long 
  5257 ;;  multiplicand    4    4[BANK0 ] unsigned long 
  5258 ;; Auto vars:     Size  Location     Type
  5259 ;;  product         4    8[BANK0 ] unsigned long 
  5260 ;; Return value:  Size  Location     Type
  5261 ;;                  4    0[BANK0 ] unsigned long 
  5262 ;; Registers used:
  5263 ;;		wreg, status,2, status,0
  5264 ;; Tracked objects:
  5265 ;;		On entry : 0/0
  5266 ;;		On exit  : 0/0
  5267 ;;		Unchanged: 0/0
  5268 ;; Data sizes:     COMMON   BANK0   BANK1   BANK2   BANK3   BANK4   BANK5   BANK6
  5269 ;;      Params:         0       8       0       0       0       0       0       0
  5270 ;;      Locals:         0       4       0       0       0       0       0       0
  5271 ;;      Temps:          0       0       0       0       0       0       0       0
  5272 ;;      Totals:         0      12       0       0       0       0       0       0
  5273 ;;Total ram usage:       12 bytes
  5274 ;; Hardware stack levels used:    1
  5275 ;; Hardware stack levels required when called:    5
  5276 ;; This function calls:
  5277 ;;		Nothing
  5278 ;; This function is called by:
  5279 ;;		_SHT2x_CalcTemperatureC
  5280 ;;		_SHT2x_CalcRelativeHumidity
  5281 ;; This function uses a non-reentrant model
  5282 ;;
  5283                           
  5284                           
  5285                           ;psect for function ___lmul
  5286  0349                     ___lmul:
  5287                           
  5288                           ;incstack = 0
  5289                           ; Regs used in ___lmul: [wreg+status,2+status,0]
  5290  0349  3000               	movlw	0
  5291  034A  0020               	movlb	0	; select bank0
  5292  034B  00D8               	movwf	___lmul@product+3
  5293  034C  3000               	movlw	0
  5294  034D  00D7               	movwf	___lmul@product+2
  5295  034E  3000               	movlw	0
  5296  034F  00D6               	movwf	___lmul@product+1
  5297  0350  3000               	movlw	0
  5298  0351  00D5               	movwf	___lmul@product
  5299  0352                     l2166:
  5300  0352  1C4D               	btfss	___lmul@multiplier,0
  5301  0353  2B5C               	goto	l2170
  5302  0354  0851               	movf	___lmul@multiplicand,w
  5303  0355  07D5               	addwf	___lmul@product,f
  5304  0356  0852               	movf	___lmul@multiplicand+1,w
  5305  0357  3DD6               	addwfc	___lmul@product+1,f
  5306  0358  0853               	movf	___lmul@multiplicand+2,w
  5307  0359  3DD7               	addwfc	___lmul@product+2,f
  5308  035A  0854               	movf	___lmul@multiplicand+3,w
  5309  035B  3DD8               	addwfc	___lmul@product+3,f
  5310  035C                     l2170:
  5311  035C  3001               	movlw	1
  5312  035D                     u1335:
  5313  035D  35D1               	lslf	___lmul@multiplicand,f
  5314  035E  0DD2               	rlf	___lmul@multiplicand+1,f
  5315  035F  0DD3               	rlf	___lmul@multiplicand+2,f
  5316  0360  0DD4               	rlf	___lmul@multiplicand+3,f
  5317  0361  0B89               	decfsz	9,f
  5318  0362  2B5D               	goto	u1335
  5319  0363  3001               	movlw	1
  5320  0364                     u1345:
  5321  0364  36D0               	lsrf	___lmul@multiplier+3,f
  5322  0365  0CCF               	rrf	___lmul@multiplier+2,f
  5323  0366  0CCE               	rrf	___lmul@multiplier+1,f
  5324  0367  0CCD               	rrf	___lmul@multiplier,f
  5325  0368  0B89               	decfsz	9,f
  5326  0369  2B64               	goto	u1345
  5327  036A  0850               	movf	___lmul@multiplier+3,w
  5328  036B  044F               	iorwf	___lmul@multiplier+2,w
  5329  036C  044E               	iorwf	___lmul@multiplier+1,w
  5330  036D  044D               	iorwf	___lmul@multiplier,w
  5331  036E  1D03               	skipz
  5332  036F  2B52               	goto	l2166
  5333  0370  0858               	movf	___lmul@product+3,w
  5334  0371  00D0               	movwf	?___lmul+3
  5335  0372  0857               	movf	___lmul@product+2,w
  5336  0373  00CF               	movwf	?___lmul+2
  5337  0374  0856               	movf	___lmul@product+1,w
  5338  0375  00CE               	movwf	?___lmul+1
  5339  0376  0855               	movf	___lmul@product,w
  5340  0377  00CD               	movwf	?___lmul
  5341  0378  0008               	return
  5342  0379                     __end_of___lmul:
  5343                           
  5344                           	psect	text21
  5345  0480                     __ptext21:	
  5346 ;; *************** function _SHT21_FaultHand *****************
  5347 ;; Defined at:
  5348 ;;		line 122 in file "SourceFiles/SunSensor/SHT21.c"
  5349 ;; Parameters:    Size  Location     Type
  5350 ;;		None
  5351 ;; Auto vars:     Size  Location     Type
  5352 ;;		None
  5353 ;; Return value:  Size  Location     Type
  5354 ;;                  1    wreg      void 
  5355 ;; Registers used:
  5356 ;;		wreg, status,2
  5357 ;; Tracked objects:
  5358 ;;		On entry : 0/0
  5359 ;;		On exit  : 0/0
  5360 ;;		Unchanged: 0/0
  5361 ;; Data sizes:     COMMON   BANK0   BANK1   BANK2   BANK3   BANK4   BANK5   BANK6
  5362 ;;      Params:         0       0       0       0       0       0       0       0
  5363 ;;      Locals:         0       0       0       0       0       0       0       0
  5364 ;;      Temps:          0       1       0       0       0       0       0       0
  5365 ;;      Totals:         0       1       0       0       0       0       0       0
  5366 ;;Total ram usage:        1 bytes
  5367 ;; Hardware stack levels used:    1
  5368 ;; Hardware stack levels required when called:    5
  5369 ;; This function calls:
  5370 ;;		Nothing
  5371 ;; This function is called by:
  5372 ;;		_SHT21_StateMachine
  5373 ;; This function uses a non-reentrant model
  5374 ;;
  5375                           
  5376                           
  5377                           ;psect for function _SHT21_FaultHand
  5378  0480                     _SHT21_FaultHand:
  5379                           
  5380                           ;SourceFiles/SunSensor/SHT21.c: 124:     TemperatureRaw = 0;
  5381                           
  5382                           ;incstack = 0
  5383                           ; Regs used in _SHT21_FaultHand: [wreg+status,2]
  5384  0480  0020               	movlb	0	; select bank0
  5385  0481  01A4               	clrf	_TemperatureRaw
  5386  0482  01A5               	clrf	_TemperatureRaw+1
  5387                           
  5388                           ;SourceFiles/SunSensor/SHT21.c: 125:     RelativeHumidityRaw = 0;
  5389  0483  01A2               	clrf	_RelativeHumidityRaw
  5390  0484  01A3               	clrf	_RelativeHumidityRaw+1
  5391                           
  5392                           ;SourceFiles/SunSensor/SHT21.c: 126:     SHT21_Fault = 1;
  5393  0485  01C5               	clrf	_SHT21_Fault
  5394  0486  0AC5               	incf	_SHT21_Fault,f
  5395                           
  5396                           ;SourceFiles/SunSensor/SHT21.c: 127:     SHT21_State = SHT21_CALC_TEMP_0;
  5397  0487  3005               	movlw	5
  5398  0488  00CD               	movwf	??_SHT21_FaultHand
  5399  0489  084D               	movf	??_SHT21_FaultHand,w
  5400  048A  00BF               	movwf	_SHT21_State
  5401  048B  0008               	return
  5402  048C                     __end_of_SHT21_FaultHand:
  5403                           
  5404                           	psect	text22
  5405  0425                     __ptext22:	
  5406 ;; *************** function _I2c_WriteByte *****************
  5407 ;; Defined at:
  5408 ;;		line 38 in file "SourceFiles/SunSensor/I2C_HAL.c"
  5409 ;; Parameters:    Size  Location     Type
  5410 ;;  txByte          1    wreg     unsigned char 
  5411 ;; Auto vars:     Size  Location     Type
  5412 ;;  txByte          1    1[BANK0 ] unsigned char 
  5413 ;;  ack             1    2[BANK0 ] unsigned char 
  5414 ;; Return value:  Size  Location     Type
  5415 ;;                  1    wreg      unsigned char 
  5416 ;; Registers used:
  5417 ;;		wreg, status,2, status,0
  5418 ;; Tracked objects:
  5419 ;;		On entry : 0/0
  5420 ;;		On exit  : 0/0
  5421 ;;		Unchanged: 0/0
  5422 ;; Data sizes:     COMMON   BANK0   BANK1   BANK2   BANK3   BANK4   BANK5   BANK6
  5423 ;;      Params:         0       0       0       0       0       0       0       0
  5424 ;;      Locals:         0       2       0       0       0       0       0       0
  5425 ;;      Temps:          0       1       0       0       0       0       0       0
  5426 ;;      Totals:         0       3       0       0       0       0       0       0
  5427 ;;Total ram usage:        3 bytes
  5428 ;; Hardware stack levels used:    1
  5429 ;; Hardware stack levels required when called:    5
  5430 ;; This function calls:
  5431 ;;		Nothing
  5432 ;; This function is called by:
  5433 ;;		_SHT21_StateMachine
  5434 ;; This function uses a non-reentrant model
  5435 ;;
  5436                           
  5437                           
  5438                           ;psect for function _I2c_WriteByte
  5439  0425                     _I2c_WriteByte:
  5440                           
  5441                           ;incstack = 0
  5442                           ; Regs used in _I2c_WriteByte: [wreg+status,2+status,0]
  5443                           ;I2c_WriteByte@txByte stored from wreg
  5444  0425  0020               	movlb	0	; select bank0
  5445  0426  00CE               	movwf	I2c_WriteByte@txByte
  5446                           
  5447                           ;SourceFiles/SunSensor/I2C_HAL.c: 38: UINT_8 I2c_WriteByte (UINT_8 txByte);SourceFiles/S
      +                          unSensor/I2C_HAL.c: 39: {;SourceFiles/SunSensor/I2C_HAL.c: 40:     UINT_8 ack;;SourceFil
      +                          es/SunSensor/I2C_HAL.c: 41:     ack = 0;
  5448  0427  01CF               	clrf	I2c_WriteByte@ack
  5449                           
  5450                           ;SourceFiles/SunSensor/I2C_HAL.c: 42:     SSP1IF = 0;
  5451  0428  1191               	bcf	17,3	;volatile
  5452                           
  5453                           ;SourceFiles/SunSensor/I2C_HAL.c: 43:     SSP1BUF = txByte;
  5454  0429  084E               	movf	I2c_WriteByte@txByte,w
  5455  042A  0024               	movlb	4	; select bank4
  5456  042B  0091               	movwf	17	;volatile
  5457  042C                     l425:	
  5458                           ;SourceFiles/SunSensor/I2C_HAL.c: 44:     while(!SSP1IF);
  5459                           
  5460  042C  0020               	movlb	0	; select bank0
  5461  042D  1D91               	btfss	17,3	;volatile
  5462  042E  2C2C               	goto	l425
  5463                           
  5464                           ;SourceFiles/SunSensor/I2C_HAL.c: 45:     SSP1IF = 0;
  5465  042F  1191               	bcf	17,3	;volatile
  5466                           
  5467                           ;SourceFiles/SunSensor/I2C_HAL.c: 46:     SSP1STAT = 0;
  5468  0430  0024               	movlb	4	; select bank4
  5469  0431  0194               	clrf	20	;volatile
  5470                           
  5471                           ;SourceFiles/SunSensor/I2C_HAL.c: 47:     ack |= SSP1CON2&0x40;
  5472  0432  0816               	movf	22,w	;volatile
  5473  0433  3940               	andlw	64
  5474  0434  0020               	movlb	0	; select bank0
  5475  0435  00CD               	movwf	??_I2c_WriteByte
  5476  0436  084D               	movf	??_I2c_WriteByte,w
  5477  0437  04CF               	iorwf	I2c_WriteByte@ack,f
  5478                           
  5479                           ;SourceFiles/SunSensor/I2C_HAL.c: 48:     return ack;
  5480  0438  084F               	movf	I2c_WriteByte@ack,w
  5481  0439  0008               	return
  5482  043A                     __end_of_I2c_WriteByte:
  5483                           
  5484                           	psect	text23
  5485  0497                     __ptext23:	
  5486 ;; *************** function _I2c_StopCondition *****************
  5487 ;; Defined at:
  5488 ;;		line 30 in file "SourceFiles/SunSensor/I2C_HAL.c"
  5489 ;; Parameters:    Size  Location     Type
  5490 ;;		None
  5491 ;; Auto vars:     Size  Location     Type
  5492 ;;		None
  5493 ;; Return value:  Size  Location     Type
  5494 ;;                  1    wreg      void 
  5495 ;; Registers used:
  5496 ;;		wreg
  5497 ;; Tracked objects:
  5498 ;;		On entry : 0/0
  5499 ;;		On exit  : 0/0
  5500 ;;		Unchanged: 0/0
  5501 ;; Data sizes:     COMMON   BANK0   BANK1   BANK2   BANK3   BANK4   BANK5   BANK6
  5502 ;;      Params:         0       0       0       0       0       0       0       0
  5503 ;;      Locals:         0       0       0       0       0       0       0       0
  5504 ;;      Temps:          0       0       0       0       0       0       0       0
  5505 ;;      Totals:         0       0       0       0       0       0       0       0
  5506 ;;Total ram usage:        0 bytes
  5507 ;; Hardware stack levels used:    1
  5508 ;; Hardware stack levels required when called:    5
  5509 ;; This function calls:
  5510 ;;		Nothing
  5511 ;; This function is called by:
  5512 ;;		_SHT21_StateMachine
  5513 ;;		_SHT2x_SoftReset
  5514 ;; This function uses a non-reentrant model
  5515 ;;
  5516                           
  5517                           
  5518                           ;psect for function _I2c_StopCondition
  5519  0497                     _I2c_StopCondition:
  5520                           
  5521                           ;SourceFiles/SunSensor/I2C_HAL.c: 32:     SSP1IF = 0;
  5522                           
  5523                           ;incstack = 0
  5524                           ; Regs used in _I2c_StopCondition: [wreg]
  5525  0497  0020               	movlb	0	; select bank0
  5526  0498  1191               	bcf	17,3	;volatile
  5527                           
  5528                           ;SourceFiles/SunSensor/I2C_HAL.c: 33:     SSP1CON2 = 0x04;
  5529  0499  3004               	movlw	4
  5530  049A  0024               	movlb	4	; select bank4
  5531  049B  0096               	movwf	22	;volatile
  5532  049C                     l419:	
  5533                           ;SourceFiles/SunSensor/I2C_HAL.c: 34:     while(!SSP1IF);
  5534                           
  5535  049C  0020               	movlb	0	; select bank0
  5536  049D  1D91               	btfss	17,3	;volatile
  5537  049E  2C9C               	goto	l419
  5538                           
  5539                           ;SourceFiles/SunSensor/I2C_HAL.c: 35:     SSP1IF = 0;
  5540  049F  1191               	bcf	17,3	;volatile
  5541  04A0  0008               	return
  5542  04A1                     __end_of_I2c_StopCondition:
  5543                           
  5544                           	psect	text24
  5545  04A1                     __ptext24:	
  5546 ;; *************** function _I2c_StartCondition *****************
  5547 ;; Defined at:
  5548 ;;		line 22 in file "SourceFiles/SunSensor/I2C_HAL.c"
  5549 ;; Parameters:    Size  Location     Type
  5550 ;;		None
  5551 ;; Auto vars:     Size  Location     Type
  5552 ;;		None
  5553 ;; Return value:  Size  Location     Type
  5554 ;;                  1    wreg      void 
  5555 ;; Registers used:
  5556 ;;		wreg
  5557 ;; Tracked objects:
  5558 ;;		On entry : 0/0
  5559 ;;		On exit  : 0/0
  5560 ;;		Unchanged: 0/0
  5561 ;; Data sizes:     COMMON   BANK0   BANK1   BANK2   BANK3   BANK4   BANK5   BANK6
  5562 ;;      Params:         0       0       0       0       0       0       0       0
  5563 ;;      Locals:         0       0       0       0       0       0       0       0
  5564 ;;      Temps:          0       0       0       0       0       0       0       0
  5565 ;;      Totals:         0       0       0       0       0       0       0       0
  5566 ;;Total ram usage:        0 bytes
  5567 ;; Hardware stack levels used:    1
  5568 ;; Hardware stack levels required when called:    5
  5569 ;; This function calls:
  5570 ;;		Nothing
  5571 ;; This function is called by:
  5572 ;;		_SHT21_StateMachine
  5573 ;;		_SHT2x_SoftReset
  5574 ;; This function uses a non-reentrant model
  5575 ;;
  5576                           
  5577                           
  5578                           ;psect for function _I2c_StartCondition
  5579  04A1                     _I2c_StartCondition:
  5580                           
  5581                           ;SourceFiles/SunSensor/I2C_HAL.c: 24:     SSP1IF = 0;
  5582                           
  5583                           ;incstack = 0
  5584                           ; Regs used in _I2c_StartCondition: [wreg]
  5585  04A1  0020               	movlb	0	; select bank0
  5586  04A2  1191               	bcf	17,3	;volatile
  5587                           
  5588                           ;SourceFiles/SunSensor/I2C_HAL.c: 25:     SSP1CON2 = 0x01;
  5589  04A3  3001               	movlw	1
  5590  04A4  0024               	movlb	4	; select bank4
  5591  04A5  0096               	movwf	22	;volatile
  5592  04A6                     l413:	
  5593                           ;SourceFiles/SunSensor/I2C_HAL.c: 26:     while(!SSP1IF);
  5594                           
  5595  04A6  0020               	movlb	0	; select bank0
  5596  04A7  1D91               	btfss	17,3	;volatile
  5597  04A8  2CA6               	goto	l413
  5598                           
  5599                           ;SourceFiles/SunSensor/I2C_HAL.c: 27:     SSP1IF = 0;
  5600  04A9  1191               	bcf	17,3	;volatile
  5601  04AA  0008               	return
  5602  04AB                     __end_of_I2c_StartCondition:
  5603                           
  5604                           	psect	text25
  5605  039E                     __ptext25:	
  5606 ;; *************** function _I2c_ReadByte *****************
  5607 ;; Defined at:
  5608 ;;		line 51 in file "SourceFiles/SunSensor/I2C_HAL.c"
  5609 ;; Parameters:    Size  Location     Type
  5610 ;;  ack             1    wreg     unsigned char 
  5611 ;; Auto vars:     Size  Location     Type
  5612 ;;  ack             1    1[BANK0 ] unsigned char 
  5613 ;;  rxByte          1    2[BANK0 ] unsigned char 
  5614 ;; Return value:  Size  Location     Type
  5615 ;;                  1    wreg      unsigned char 
  5616 ;; Registers used:
  5617 ;;		wreg, status,2, status,0
  5618 ;; Tracked objects:
  5619 ;;		On entry : 0/0
  5620 ;;		On exit  : 0/0
  5621 ;;		Unchanged: 0/0
  5622 ;; Data sizes:     COMMON   BANK0   BANK1   BANK2   BANK3   BANK4   BANK5   BANK6
  5623 ;;      Params:         0       0       0       0       0       0       0       0
  5624 ;;      Locals:         0       2       0       0       0       0       0       0
  5625 ;;      Temps:          0       1       0       0       0       0       0       0
  5626 ;;      Totals:         0       3       0       0       0       0       0       0
  5627 ;;Total ram usage:        3 bytes
  5628 ;; Hardware stack levels used:    1
  5629 ;; Hardware stack levels required when called:    5
  5630 ;; This function calls:
  5631 ;;		Nothing
  5632 ;; This function is called by:
  5633 ;;		_SHT21_StateMachine
  5634 ;; This function uses a non-reentrant model
  5635 ;;
  5636                           
  5637                           
  5638                           ;psect for function _I2c_ReadByte
  5639  039E                     _I2c_ReadByte:
  5640                           
  5641                           ;incstack = 0
  5642                           ; Regs used in _I2c_ReadByte: [wreg+status,2+status,0]
  5643                           ;I2c_ReadByte@ack stored from wreg
  5644  039E  0020               	movlb	0	; select bank0
  5645  039F  00CE               	movwf	I2c_ReadByte@ack
  5646                           
  5647                           ;SourceFiles/SunSensor/I2C_HAL.c: 56:     SSP1CON2bits.RCEN = 1;
  5648  03A0  0024               	movlb	4	; select bank4
  5649  03A1  1596               	bsf	22,3	;volatile
  5650  03A2                     l431:	
  5651                           ;SourceFiles/SunSensor/I2C_HAL.c: 57:     while(!SSP1IF);
  5652                           
  5653  03A2  0020               	movlb	0	; select bank0
  5654  03A3  1D91               	btfss	17,3	;volatile
  5655  03A4  2BA2               	goto	l431
  5656                           
  5657                           ;SourceFiles/SunSensor/I2C_HAL.c: 58:     SSP1IF = 0;
  5658  03A5  1191               	bcf	17,3	;volatile
  5659                           
  5660                           ;SourceFiles/SunSensor/I2C_HAL.c: 59:     rxByte = SSP1BUF;
  5661  03A6  0024               	movlb	4	; select bank4
  5662  03A7  0811               	movf	17,w	;volatile
  5663  03A8  0020               	movlb	0	; select bank0
  5664  03A9  00CD               	movwf	??_I2c_ReadByte
  5665  03AA  084D               	movf	??_I2c_ReadByte,w
  5666  03AB  00CF               	movwf	I2c_ReadByte@rxByte
  5667                           
  5668                           ;SourceFiles/SunSensor/I2C_HAL.c: 60:     if(ack == 0)SSP1CON2bits.ACKDT = 0;
  5669  03AC  084E               	movf	I2c_ReadByte@ack,w
  5670  03AD  1D03               	btfss	3,2
  5671  03AE  2BB2               	goto	l434
  5672  03AF  0024               	movlb	4	; select bank4
  5673  03B0  1296               	bcf	22,5	;volatile
  5674  03B1  2BB4               	goto	l435
  5675  03B2                     l434:	
  5676                           ;SourceFiles/SunSensor/I2C_HAL.c: 61:     else SSP1CON2bits.ACKDT = 1;
  5677                           
  5678  03B2  0024               	movlb	4	; select bank4
  5679  03B3  1696               	bsf	22,5	;volatile
  5680  03B4                     l435:
  5681                           
  5682                           ;SourceFiles/SunSensor/I2C_HAL.c: 62:     SSP1IF = 0;
  5683  03B4  0020               	movlb	0	; select bank0
  5684  03B5  1191               	bcf	17,3	;volatile
  5685                           
  5686                           ;SourceFiles/SunSensor/I2C_HAL.c: 63:     SSP1CON2bits.ACKEN = 1;
  5687  03B6  0024               	movlb	4	; select bank4
  5688  03B7  1616               	bsf	22,4	;volatile
  5689  03B8                     l436:	
  5690                           ;SourceFiles/SunSensor/I2C_HAL.c: 64:     while(!SSP1IF);
  5691                           
  5692  03B8  0020               	movlb	0	; select bank0
  5693  03B9  1D91               	btfss	17,3	;volatile
  5694  03BA  2BB8               	goto	l436
  5695                           
  5696                           ;SourceFiles/SunSensor/I2C_HAL.c: 65:     SSP1IF = 0;
  5697  03BB  1191               	bcf	17,3	;volatile
  5698                           
  5699                           ;SourceFiles/SunSensor/I2C_HAL.c: 66:     return rxByte;
  5700  03BC  084F               	movf	I2c_ReadByte@rxByte,w
  5701  03BD  0008               	return
  5702  03BE                     __end_of_I2c_ReadByte:
  5703                           
  5704                           	psect	text26
  5705  021A                     __ptext26:	
  5706 ;; *************** function _COS_TmrHandler *****************
  5707 ;; Defined at:
  5708 ;;		line 92 in file "SourceFiles/COS/COS_Main.c"
  5709 ;; Parameters:    Size  Location     Type
  5710 ;;		None
  5711 ;; Auto vars:     Size  Location     Type
  5712 ;;  tempbyte2       1    4[BANK0 ] unsigned char 
  5713 ;;  tempbyte1       1    3[BANK0 ] unsigned char 
  5714 ;; Return value:  Size  Location     Type
  5715 ;;                  1    wreg      void 
  5716 ;; Registers used:
  5717 ;;		wreg, status,2, status,0
  5718 ;; Tracked objects:
  5719 ;;		On entry : 0/0
  5720 ;;		On exit  : 0/0
  5721 ;;		Unchanged: 0/0
  5722 ;; Data sizes:     COMMON   BANK0   BANK1   BANK2   BANK3   BANK4   BANK5   BANK6
  5723 ;;      Params:         0       0       0       0       0       0       0       0
  5724 ;;      Locals:         0       2       0       0       0       0       0       0
  5725 ;;      Temps:          0       3       0       0       0       0       0       0
  5726 ;;      Totals:         0       5       0       0       0       0       0       0
  5727 ;;Total ram usage:        5 bytes
  5728 ;; Hardware stack levels used:    1
  5729 ;; Hardware stack levels required when called:    5
  5730 ;; This function calls:
  5731 ;;		Nothing
  5732 ;; This function is called by:
  5733 ;;		_main
  5734 ;; This function uses a non-reentrant model
  5735 ;;
  5736                           
  5737                           
  5738                           ;psect for function _COS_TmrHandler
  5739  021A                     _COS_TmrHandler:
  5740                           
  5741                           ;SourceFiles/COS/COS_Main.c: 94:  UINT_8 tempbyte1, tempbyte2;;SourceFiles/COS/COS_Main.
      +                          c: 95:  tempbyte2 = TMR1H;
  5742                           
  5743                           ;incstack = 0
  5744                           ; Regs used in _COS_TmrHandler: [wreg+status,2+status,0]
  5745  021A  0020               	movlb	0	; select bank0
  5746  021B  0817               	movf	23,w	;volatile
  5747  021C  00CD               	movwf	??_COS_TmrHandler
  5748  021D  084D               	movf	??_COS_TmrHandler,w
  5749  021E  00D1               	movwf	COS_TmrHandler@tempbyte2
  5750                           
  5751                           ;SourceFiles/COS/COS_Main.c: 96:  tempbyte1 = TMR1L;
  5752  021F  0816               	movf	22,w	;volatile
  5753  0220  00CD               	movwf	??_COS_TmrHandler
  5754  0221  084D               	movf	??_COS_TmrHandler,w
  5755  0222  00D0               	movwf	COS_TmrHandler@tempbyte1
  5756                           
  5757                           ;SourceFiles/COS/COS_Main.c: 97:  if (tempbyte2 != TMR1H)
  5758  0223  0851               	movf	COS_TmrHandler@tempbyte2,w
  5759  0224  0617               	xorwf	23,w	;volatile
  5760  0225  1903               	skipnz
  5761  0226  2A2F               	goto	l36
  5762                           
  5763                           ;SourceFiles/COS/COS_Main.c: 98:  {;SourceFiles/COS/COS_Main.c: 99:   tempbyte2 = TMR1H;
  5764  0227  0817               	movf	23,w	;volatile
  5765  0228  00CD               	movwf	??_COS_TmrHandler
  5766  0229  084D               	movf	??_COS_TmrHandler,w
  5767  022A  00D1               	movwf	COS_TmrHandler@tempbyte2
  5768                           
  5769                           ;SourceFiles/COS/COS_Main.c: 100:   tempbyte1 = TMR1L;
  5770  022B  0816               	movf	22,w	;volatile
  5771  022C  00CD               	movwf	??_COS_TmrHandler
  5772  022D  084D               	movf	??_COS_TmrHandler,w
  5773  022E  00D0               	movwf	COS_TmrHandler@tempbyte1
  5774  022F                     l36:	
  5775                           ;SourceFiles/COS/COS_Main.c: 101:  }
  5776                           
  5777                           
  5778                           ;SourceFiles/COS/COS_Main.c: 102:  COS_tcnt_val = (UINT_16) (tempbyte2 << 8)&0xff00;
  5779  022F  0851               	movf	COS_TmrHandler@tempbyte2,w
  5780  0230  00CD               	movwf	??_COS_TmrHandler
  5781  0231  01CE               	clrf	??_COS_TmrHandler+1
  5782  0232  084D               	movf	??_COS_TmrHandler,w
  5783  0233  00CE               	movwf	??_COS_TmrHandler+1
  5784  0234  01CD               	clrf	??_COS_TmrHandler
  5785  0235  3000               	movlw	0
  5786  0236  054D               	andwf	??_COS_TmrHandler,w
  5787  0237  00F6               	movwf	_COS_tcnt_val
  5788  0238  30FF               	movlw	255
  5789  0239  054E               	andwf	??_COS_TmrHandler+1,w
  5790  023A  00F7               	movwf	_COS_tcnt_val+1
  5791                           
  5792                           ;SourceFiles/COS/COS_Main.c: 103:  COS_tcnt_val = COS_tcnt_val | (UINT_16) (tempbyte1 & 
      +                          0x00ff);
  5793  023B  0876               	movf	_COS_tcnt_val,w
  5794  023C  0450               	iorwf	COS_TmrHandler@tempbyte1,w
  5795  023D  00F6               	movwf	_COS_tcnt_val
  5796  023E  0877               	movf	_COS_tcnt_val+1,w
  5797  023F  00F7               	movwf	_COS_tcnt_val+1
  5798                           
  5799                           ;SourceFiles/COS/COS_Main.c: 105:  if (((UINT_16) ((UINT_16) COS_tcnt_val - (UINT_16) CO
      +                          S_tcnt_lst) >= (UINT_16) 1000))
  5800  0240  0836               	movf	_COS_tcnt_lst,w
  5801  0241  0276               	subwf	_COS_tcnt_val,w
  5802  0242  00CD               	movwf	??_COS_TmrHandler
  5803  0243  0837               	movf	_COS_tcnt_lst+1,w
  5804  0244  3B77               	subwfb	_COS_tcnt_val+1,w
  5805  0245  00CE               	movwf	??_COS_TmrHandler+1
  5806  0246  3003               	movlw	3
  5807  0247  024E               	subwf	??_COS_TmrHandler+1,w
  5808  0248  30E8               	movlw	232
  5809  0249  1903               	skipnz
  5810  024A  024D               	subwf	??_COS_TmrHandler,w
  5811  024B  1C03               	skipc
  5812  024C  0008               	return
  5813                           
  5814                           ;SourceFiles/COS/COS_Main.c: 106:  {;SourceFiles/COS/COS_Main.c: 107:   COS_tcnt_lst = C
      +                          OS_tcnt_lst + 1000;
  5815  024D  0836               	movf	_COS_tcnt_lst,w
  5816  024E  3EE8               	addlw	232
  5817  024F  00B6               	movwf	_COS_tcnt_lst
  5818  0250  3003               	movlw	3
  5819  0251  3D37               	addwfc	_COS_tcnt_lst+1,w
  5820  0252  00B7               	movwf	_COS_tcnt_lst+1
  5821                           
  5822                           ;SourceFiles/COS/COS_Main.c: 108:   COS_ms_tmr++;
  5823  0253  3001               	movlw	1
  5824  0254  07BC               	addwf	_COS_ms_tmr,f
  5825  0255  3000               	movlw	0
  5826  0256  3DBD               	addwfc	_COS_ms_tmr+1,f
  5827                           
  5828                           ;SourceFiles/COS/COS_Main.c: 110:   if (COS_ms_tmr >= 1000)
  5829  0257  3003               	movlw	3
  5830  0258  023D               	subwf	_COS_ms_tmr+1,w
  5831  0259  30E8               	movlw	232
  5832  025A  1903               	skipnz
  5833  025B  023C               	subwf	_COS_ms_tmr,w
  5834  025C  1C03               	skipc
  5835  025D  2A64               	goto	l2462
  5836                           
  5837                           ;SourceFiles/COS/COS_Main.c: 111:   {;SourceFiles/COS/COS_Main.c: 112:    COS_ms_tmr = 0
      +                          ;
  5838  025E  01BC               	clrf	_COS_ms_tmr
  5839  025F  01BD               	clrf	_COS_ms_tmr+1
  5840                           
  5841                           ;SourceFiles/COS/COS_Main.c: 113:    COS_sec_tmr++;
  5842  0260  3001               	movlw	1
  5843  0261  07BA               	addwf	_COS_sec_tmr,f	;volatile
  5844  0262  3000               	movlw	0
  5845  0263  3DBB               	addwfc	_COS_sec_tmr+1,f	;volatile
  5846  0264                     l2462:
  5847                           
  5848                           ;SourceFiles/COS/COS_Main.c: 115:   COS_tsk_tmr++;
  5849  0264  3001               	movlw	1
  5850  0265  07B8               	addwf	_COS_tsk_tmr,f
  5851  0266  3000               	movlw	0
  5852  0267  3DB9               	addwfc	_COS_tsk_tmr+1,f
  5853                           
  5854                           ;SourceFiles/COS/COS_Main.c: 116:   if ((COS_tsk_tmr >= 10) && (!COS_tsk_ena))
  5855  0268  3000               	movlw	0
  5856  0269  0239               	subwf	_COS_tsk_tmr+1,w
  5857  026A  300A               	movlw	10
  5858  026B  1903               	skipnz
  5859  026C  0238               	subwf	_COS_tsk_tmr,w
  5860  026D  1C03               	skipc
  5861  026E  0008               	return
  5862  026F  086C               	movf	_COS_tsk_ena,w
  5863  0270  1D03               	btfss	3,2
  5864  0271  0008               	return
  5865                           
  5866                           ;SourceFiles/COS/COS_Main.c: 117:   {;SourceFiles/COS/COS_Main.c: 118:    COS_tsk_tmr = 
      +                          0;
  5867  0272  01B8               	clrf	_COS_tsk_tmr
  5868  0273  01B9               	clrf	_COS_tsk_tmr+1
  5869                           
  5870                           ;SourceFiles/COS/COS_Main.c: 119:    COS_tsk_ena = 1;
  5871  0274  01EC               	clrf	_COS_tsk_ena
  5872  0275  0AEC               	incf	_COS_tsk_ena,f
  5873  0276  0008               	return
  5874  0277                     __end_of_COS_TmrHandler:
  5875                           
  5876                           	psect	text27
  5877  030E                     __ptext27:	
  5878 ;; *************** function _COS_Init *****************
  5879 ;; Defined at:
  5880 ;;		line 32 in file "SourceFiles/COS/COS_Main.c"
  5881 ;; Parameters:    Size  Location     Type
  5882 ;;		None
  5883 ;; Auto vars:     Size  Location     Type
  5884 ;;  tempbyte2       1    4[BANK0 ] unsigned char 
  5885 ;;  tempbyte1       1    3[BANK0 ] unsigned char 
  5886 ;; Return value:  Size  Location     Type
  5887 ;;                  1    wreg      void 
  5888 ;; Registers used:
  5889 ;;		wreg, status,2, status,0, pclath, cstack
  5890 ;; Tracked objects:
  5891 ;;		On entry : 0/0
  5892 ;;		On exit  : 0/0
  5893 ;;		Unchanged: 0/0
  5894 ;; Data sizes:     COMMON   BANK0   BANK1   BANK2   BANK3   BANK4   BANK5   BANK6
  5895 ;;      Params:         0       0       0       0       0       0       0       0
  5896 ;;      Locals:         0       2       0       0       0       0       0       0
  5897 ;;      Temps:          0       3       0       0       0       0       0       0
  5898 ;;      Totals:         0       5       0       0       0       0       0       0
  5899 ;;Total ram usage:        5 bytes
  5900 ;; Hardware stack levels used:    1
  5901 ;; Hardware stack levels required when called:    6
  5902 ;; This function calls:
  5903 ;;		_COS_TimerSetup
  5904 ;; This function is called by:
  5905 ;;		_main
  5906 ;; This function uses a non-reentrant model
  5907 ;;
  5908                           
  5909                           
  5910                           ;psect for function _COS_Init
  5911  030E                     _COS_Init:
  5912                           
  5913                           ;SourceFiles/COS/COS_Main.c: 34:  UINT_8 tempbyte1, tempbyte2;;SourceFiles/COS/COS_Main.
      +                          c: 36:  COS_TimerSetup();
  5914                           
  5915                           ;incstack = 0
  5916                           ; Regs used in _COS_Init: [wreg+status,2+status,0+pclath+cstack]
  5917  030E  3184  24F0  3183   	fcall	_COS_TimerSetup
  5918                           
  5919                           ;SourceFiles/COS/COS_Main.c: 41:  COS_tsk_ind = 0;
  5920  0311  0020               	movlb	0	; select bank0
  5921  0312  01CC               	clrf	_COS_tsk_ind
  5922                           
  5923                           ;SourceFiles/COS/COS_Main.c: 42:  COS_tsk_msk = 0x80;
  5924  0313  3080               	movlw	128
  5925  0314  00CD               	movwf	??_COS_Init
  5926  0315  084D               	movf	??_COS_Init,w
  5927  0316  00ED               	movwf	_COS_tsk_msk
  5928                           
  5929                           ;SourceFiles/COS/COS_Main.c: 43:  COS_tsk_ena = 1;
  5930  0317  01EC               	clrf	_COS_tsk_ena
  5931  0318  0AEC               	incf	_COS_tsk_ena,f
  5932                           
  5933                           ;SourceFiles/COS/COS_Main.c: 44:  COS_ms_tmr = 0;
  5934  0319  01BC               	clrf	_COS_ms_tmr
  5935  031A  01BD               	clrf	_COS_ms_tmr+1
  5936                           
  5937                           ;SourceFiles/COS/COS_Main.c: 45:  COS_sec_tmr = 0;
  5938  031B  01BA               	clrf	_COS_sec_tmr	;volatile
  5939  031C  01BB               	clrf	_COS_sec_tmr+1	;volatile
  5940                           
  5941                           ;SourceFiles/COS/COS_Main.c: 46:  COS_tsk_tmr = 0;
  5942  031D  01B8               	clrf	_COS_tsk_tmr
  5943  031E  01B9               	clrf	_COS_tsk_tmr+1
  5944                           
  5945                           ;SourceFiles/COS/COS_Main.c: 48:  tempbyte2 = TMR1H;
  5946  031F  0817               	movf	23,w	;volatile
  5947  0320  00CD               	movwf	??_COS_Init
  5948  0321  084D               	movf	??_COS_Init,w
  5949  0322  00D1               	movwf	COS_Init@tempbyte2
  5950                           
  5951                           ;SourceFiles/COS/COS_Main.c: 49:  tempbyte1 = TMR1L;
  5952  0323  0816               	movf	22,w	;volatile
  5953  0324  00CD               	movwf	??_COS_Init
  5954  0325  084D               	movf	??_COS_Init,w
  5955  0326  00D0               	movwf	COS_Init@tempbyte1
  5956                           
  5957                           ;SourceFiles/COS/COS_Main.c: 50:  if (tempbyte2 != TMR1H)
  5958  0327  0851               	movf	COS_Init@tempbyte2,w
  5959  0328  0617               	xorwf	23,w	;volatile
  5960  0329  1903               	skipnz
  5961  032A  2B33               	goto	l29
  5962                           
  5963                           ;SourceFiles/COS/COS_Main.c: 51:  {;SourceFiles/COS/COS_Main.c: 52:   tempbyte2 = TMR1H;
  5964  032B  0817               	movf	23,w	;volatile
  5965  032C  00CD               	movwf	??_COS_Init
  5966  032D  084D               	movf	??_COS_Init,w
  5967  032E  00D1               	movwf	COS_Init@tempbyte2
  5968                           
  5969                           ;SourceFiles/COS/COS_Main.c: 53:   tempbyte1 = TMR1L;
  5970  032F  0816               	movf	22,w	;volatile
  5971  0330  00CD               	movwf	??_COS_Init
  5972  0331  084D               	movf	??_COS_Init,w
  5973  0332  00D0               	movwf	COS_Init@tempbyte1
  5974  0333                     l29:	
  5975                           ;SourceFiles/COS/COS_Main.c: 54:  }
  5976                           
  5977                           
  5978                           ;SourceFiles/COS/COS_Main.c: 55:  COS_tcnt_val = ((UINT_16)tempbyte2 << 8)&0xff00;
  5979  0333  0851               	movf	COS_Init@tempbyte2,w
  5980  0334  00CD               	movwf	??_COS_Init
  5981  0335  01CE               	clrf	??_COS_Init+1
  5982  0336  084D               	movf	??_COS_Init,w
  5983  0337  00CE               	movwf	??_COS_Init+1
  5984  0338  01CD               	clrf	??_COS_Init
  5985  0339  3000               	movlw	0
  5986  033A  054D               	andwf	??_COS_Init,w
  5987  033B  00F6               	movwf	_COS_tcnt_val
  5988  033C  30FF               	movlw	255
  5989  033D  054E               	andwf	??_COS_Init+1,w
  5990  033E  00F7               	movwf	_COS_tcnt_val+1
  5991                           
  5992                           ;SourceFiles/COS/COS_Main.c: 56:  COS_tcnt_val = COS_tcnt_val | ((UINT_16)tempbyte1 & 0x
      +                          00ff);
  5993  033F  0876               	movf	_COS_tcnt_val,w
  5994  0340  0450               	iorwf	COS_Init@tempbyte1,w
  5995  0341  00F6               	movwf	_COS_tcnt_val
  5996  0342  0877               	movf	_COS_tcnt_val+1,w
  5997  0343  00F7               	movwf	_COS_tcnt_val+1
  5998                           
  5999                           ;SourceFiles/COS/COS_Main.c: 57:  COS_tcnt_lst = COS_tcnt_val;
  6000  0344  0877               	movf	_COS_tcnt_val+1,w
  6001  0345  00B7               	movwf	_COS_tcnt_lst+1
  6002  0346  0876               	movf	_COS_tcnt_val,w
  6003  0347  00B6               	movwf	_COS_tcnt_lst
  6004  0348  0008               	return
  6005  0349                     __end_of_COS_Init:
  6006                           
  6007                           	psect	text28
  6008  04F0                     __ptext28:	
  6009 ;; *************** function _COS_TimerSetup *****************
  6010 ;; Defined at:
  6011 ;;		line 68 in file "SourceFiles/COS/COS_Main.c"
  6012 ;; Parameters:    Size  Location     Type
  6013 ;;		None
  6014 ;; Auto vars:     Size  Location     Type
  6015 ;;		None
  6016 ;; Return value:  Size  Location     Type
  6017 ;;                  1    wreg      void 
  6018 ;; Registers used:
  6019 ;;		wreg, status,2
  6020 ;; Tracked objects:
  6021 ;;		On entry : 0/0
  6022 ;;		On exit  : 0/0
  6023 ;;		Unchanged: 0/0
  6024 ;; Data sizes:     COMMON   BANK0   BANK1   BANK2   BANK3   BANK4   BANK5   BANK6
  6025 ;;      Params:         0       0       0       0       0       0       0       0
  6026 ;;      Locals:         0       0       0       0       0       0       0       0
  6027 ;;      Temps:          0       0       0       0       0       0       0       0
  6028 ;;      Totals:         0       0       0       0       0       0       0       0
  6029 ;;Total ram usage:        0 bytes
  6030 ;; Hardware stack levels used:    1
  6031 ;; Hardware stack levels required when called:    5
  6032 ;; This function calls:
  6033 ;;		Nothing
  6034 ;; This function is called by:
  6035 ;;		_COS_Init
  6036 ;; This function uses a non-reentrant model
  6037 ;;
  6038                           
  6039                           
  6040                           ;psect for function _COS_TimerSetup
  6041  04F0                     _COS_TimerSetup:
  6042                           
  6043                           ;SourceFiles/COS/COS_Main.c: 72:  TMR1H = 0;
  6044                           
  6045                           ;incstack = 0
  6046                           ; Regs used in _COS_TimerSetup: [wreg+status,2]
  6047  04F0  0020               	movlb	0	; select bank0
  6048  04F1  0197               	clrf	23	;volatile
  6049                           
  6050                           ;SourceFiles/COS/COS_Main.c: 73:  TMR1L = 0;
  6051  04F2  0196               	clrf	22	;volatile
  6052                           
  6053                           ;SourceFiles/COS/COS_Main.c: 78:  T1CON = 0b00100001;
  6054  04F3  3021               	movlw	33
  6055  04F4  0098               	movwf	24	;volatile
  6056  04F5  0008               	return
  6057  04F6                     __end_of_COS_TimerSetup:
  6058                           
  6059                           	psect	intentry
  6060  0004                     __pintentry:	
  6061 ;; *************** function _INTERRUPT_InterruptManager *****************
  6062 ;; Defined at:
  6063 ;;		line 52 in file "mcc_generated_files/interrupt_manager.c"
  6064 ;; Parameters:    Size  Location     Type
  6065 ;;		None
  6066 ;; Auto vars:     Size  Location     Type
  6067 ;;		None
  6068 ;; Return value:  Size  Location     Type
  6069 ;;                  1    wreg      void 
  6070 ;; Registers used:
  6071 ;;		wreg, fsr0l, fsr0h, status,2, status,0, pclath, cstack
  6072 ;; Tracked objects:
  6073 ;;		On entry : 0/0
  6074 ;;		On exit  : 0/0
  6075 ;;		Unchanged: 0/0
  6076 ;; Data sizes:     COMMON   BANK0   BANK1   BANK2   BANK3   BANK4   BANK5   BANK6
  6077 ;;      Params:         0       0       0       0       0       0       0       0
  6078 ;;      Locals:         0       0       0       0       0       0       0       0
  6079 ;;      Temps:          0       0       0       0       0       0       0       0
  6080 ;;      Totals:         0       0       0       0       0       0       0       0
  6081 ;;Total ram usage:        0 bytes
  6082 ;; Hardware stack levels used:    1
  6083 ;; Hardware stack levels required when called:    4
  6084 ;; This function calls:
  6085 ;;		_TMR2_ISR
  6086 ;; This function is called by:
  6087 ;;		Interrupt level 1
  6088 ;; This function uses a non-reentrant model
  6089 ;;
  6090                           
  6091  0004                     _INTERRUPT_InterruptManager:
  6092                           
  6093                           ;incstack = 0
  6094  0004  147E               	bsf	126,0	;set compiler interrupt flag (level 1)
  6095                           
  6096                           ; Regs used in _INTERRUPT_InterruptManager: [wreg-fsr0h+status,2+status,0+pclath+cstack]
  6097  0005  3180               	pagesel	$
  6098                           
  6099                           ;mcc_generated_files/interrupt_manager.c: 55:     if(INTCONbits.PEIE == 1)
  6100  0006  1F0B               	btfss	11,6	;volatile
  6101  0007  2810               	goto	i1l127
  6102                           
  6103                           ;mcc_generated_files/interrupt_manager.c: 56:     {;mcc_generated_files/interrupt_manage
      +                          r.c: 57:         if(PIE1bits.TMR2IE == 1 && PIR1bits.TMR2IF == 1)
  6104  0008  0021               	movlb	1	; select bank1
  6105  0009  1C91               	btfss	17,1	;volatile
  6106  000A  2810               	goto	i1l127
  6107  000B  0020               	movlb	0	; select bank0
  6108  000C  1C91               	btfss	17,1	;volatile
  6109  000D  2810               	goto	i1l127
  6110                           
  6111                           ;mcc_generated_files/interrupt_manager.c: 58:         {;mcc_generated_files/interrupt_ma
      +                          nager.c: 59:             TMR2_ISR();
  6112  000E  3184  243A         	fcall	_TMR2_ISR
  6113  0010                     i1l127:	
  6114                           ;mcc_generated_files/interrupt_manager.c: 60:         }
  6115                           
  6116  0010  107E               	bcf	126,0	;clear compiler interrupt flag (level 1)
  6117  0011  0009               	retfie
  6118  0012                     __end_of_INTERRUPT_InterruptManager:
  6119                           
  6120                           	psect	text30
  6121  043A                     __ptext30:	
  6122 ;; *************** function _TMR2_ISR *****************
  6123 ;; Defined at:
  6124 ;;		line 119 in file "mcc_generated_files/tmr2.c"
  6125 ;; Parameters:    Size  Location     Type
  6126 ;;		None
  6127 ;; Auto vars:     Size  Location     Type
  6128 ;;		None
  6129 ;; Return value:  Size  Location     Type
  6130 ;;                  1    wreg      void 
  6131 ;; Registers used:
  6132 ;;		wreg, fsr0l, fsr0h, status,2, status,0, pclath, cstack
  6133 ;; Tracked objects:
  6134 ;;		On entry : 0/0
  6135 ;;		On exit  : 0/0
  6136 ;;		Unchanged: 0/0
  6137 ;; Data sizes:     COMMON   BANK0   BANK1   BANK2   BANK3   BANK4   BANK5   BANK6
  6138 ;;      Params:         0       0       0       0       0       0       0       0
  6139 ;;      Locals:         0       0       0       0       0       0       0       0
  6140 ;;      Temps:          0       0       0       0       0       0       0       0
  6141 ;;      Totals:         0       0       0       0       0       0       0       0
  6142 ;;Total ram usage:        0 bytes
  6143 ;; Hardware stack levels used:    1
  6144 ;; Hardware stack levels required when called:    3
  6145 ;; This function calls:
  6146 ;;		_TMR2_CallBack
  6147 ;; This function is called by:
  6148 ;;		_INTERRUPT_InterruptManager
  6149 ;; This function uses a non-reentrant model
  6150 ;;
  6151                           
  6152                           
  6153                           ;psect for function _TMR2_ISR
  6154  043A                     _TMR2_ISR:
  6155                           
  6156                           ;mcc_generated_files/tmr2.c: 121:     static volatile unsigned int CountCallBack = 0;;mc
      +                          c_generated_files/tmr2.c: 124:     PIR1bits.TMR2IF = 0;
  6157                           
  6158                           ;incstack = 0
  6159                           ; Regs used in _TMR2_ISR: [wreg-fsr0h+status,2+status,0+pclath+cstack]
  6160  043A  0020               	movlb	0	; select bank0
  6161  043B  1091               	bcf	17,1	;volatile
  6162                           
  6163                           ;mcc_generated_files/tmr2.c: 127:     if (++CountCallBack >= 5)
  6164  043C  3001               	movlw	1
  6165  043D  07B4               	addwf	TMR2_ISR@CountCallBack,f	;volatile
  6166  043E  3000               	movlw	0
  6167  043F  3DB5               	addwfc	TMR2_ISR@CountCallBack+1,f	;volatile
  6168  0440  3000               	movlw	0
  6169  0441  0235               	subwf	TMR2_ISR@CountCallBack+1,w	;volatile
  6170  0442  3005               	movlw	5
  6171  0443  1903               	skipnz
  6172  0444  0234               	subwf	TMR2_ISR@CountCallBack,w	;volatile
  6173  0445  1C03               	skipc
  6174  0446  0008               	return
  6175                           
  6176                           ;mcc_generated_files/tmr2.c: 128:     {;mcc_generated_files/tmr2.c: 130:         TMR2_Ca
      +                          llBack();
  6177  0447  3184  248C         	fcall	_TMR2_CallBack
  6178                           
  6179                           ;mcc_generated_files/tmr2.c: 133:         CountCallBack = 0;
  6180  0449  0020               	movlb	0	; select bank0
  6181  044A  01B4               	clrf	TMR2_ISR@CountCallBack	;volatile
  6182  044B  01B5               	clrf	TMR2_ISR@CountCallBack+1	;volatile
  6183  044C  0008               	return
  6184  044D                     __end_of_TMR2_ISR:
  6185                           
  6186                           	psect	text31
  6187  048C                     __ptext31:	
  6188 ;; *************** function _TMR2_CallBack *****************
  6189 ;; Defined at:
  6190 ;;		line 137 in file "mcc_generated_files/tmr2.c"
  6191 ;; Parameters:    Size  Location     Type
  6192 ;;		None
  6193 ;; Auto vars:     Size  Location     Type
  6194 ;;		None
  6195 ;; Return value:  Size  Location     Type
  6196 ;;                  1    wreg      void 
  6197 ;; Registers used:
  6198 ;;		wreg, fsr0l, fsr0h, status,2, status,0, pclath, cstack
  6199 ;; Tracked objects:
  6200 ;;		On entry : 0/0
  6201 ;;		On exit  : 0/0
  6202 ;;		Unchanged: 0/0
  6203 ;; Data sizes:     COMMON   BANK0   BANK1   BANK2   BANK3   BANK4   BANK5   BANK6
  6204 ;;      Params:         0       0       0       0       0       0       0       0
  6205 ;;      Locals:         0       0       0       0       0       0       0       0
  6206 ;;      Temps:          0       0       0       0       0       0       0       0
  6207 ;;      Totals:         0       0       0       0       0       0       0       0
  6208 ;;Total ram usage:        0 bytes
  6209 ;; Hardware stack levels used:    1
  6210 ;; Hardware stack levels required when called:    2
  6211 ;; This function calls:
  6212 ;;		Absolute function
  6213 ;;		_Led2_PWM
  6214 ;;		_TMR2_DefaultInterruptHandler
  6215 ;; This function is called by:
  6216 ;;		_TMR2_ISR
  6217 ;; This function uses a non-reentrant model
  6218 ;;
  6219                           
  6220                           
  6221                           ;psect for function _TMR2_CallBack
  6222  048C                     _TMR2_CallBack:
  6223                           
  6224                           ;mcc_generated_files/tmr2.c: 141:     if(TMR2_InterruptHandler)
  6225                           
  6226                           ;incstack = 0
  6227                           ; Regs used in _TMR2_CallBack: [wreg-fsr0h+status,2+status,0+pclath+cstack]
  6228  048C  0020               	movlb	0	; select bank0
  6229  048D  086A               	movf	_TMR2_InterruptHandler,w
  6230  048E  046B               	iorwf	_TMR2_InterruptHandler+1,w
  6231  048F  1903               	btfsc	3,2
  6232  0490  0008               	return
  6233                           
  6234                           ;mcc_generated_files/tmr2.c: 142:     {;mcc_generated_files/tmr2.c: 143:         TMR2_In
      +                          terruptHandler();
  6235  0491  086B               	movf	_TMR2_InterruptHandler+1,w
  6236  0492  008A               	movwf	10
  6237  0493  086A               	movf	_TMR2_InterruptHandler,w
  6238  0494  000A               	callw
  6239  0495  3184               	pagesel	$
  6240  0496  0008               	return
  6241  0497                     __end_of_TMR2_CallBack:
  6242                           
  6243                           	psect	text32
  6244  01B4                     __ptext32:	
  6245 ;; *************** function _Led2_PWM *****************
  6246 ;; Defined at:
  6247 ;;		line 30 in file "SourceFiles/SunSensor/Led.c"
  6248 ;; Parameters:    Size  Location     Type
  6249 ;;		None
  6250 ;; Auto vars:     Size  Location     Type
  6251 ;;		None
  6252 ;; Return value:  Size  Location     Type
  6253 ;;                  1    wreg      void 
  6254 ;; Registers used:
  6255 ;;		wreg, fsr0l, fsr0h, status,2, status,0, pclath, cstack
  6256 ;; Tracked objects:
  6257 ;;		On entry : 0/0
  6258 ;;		On exit  : 0/0
  6259 ;;		Unchanged: 0/0
  6260 ;; Data sizes:     COMMON   BANK0   BANK1   BANK2   BANK3   BANK4   BANK5   BANK6
  6261 ;;      Params:         0       0       0       0       0       0       0       0
  6262 ;;      Locals:         0       0       0       0       0       0       0       0
  6263 ;;      Temps:          2       0       0       0       0       0       0       0
  6264 ;;      Totals:         2       0       0       0       0       0       0       0
  6265 ;;Total ram usage:        2 bytes
  6266 ;; Hardware stack levels used:    1
  6267 ;; Hardware stack levels required when called:    1
  6268 ;; This function calls:
  6269 ;;		_PWM1_LoadDutyValue
  6270 ;; This function is called by:
  6271 ;;		_main
  6272 ;;		_TMR2_CallBack
  6273 ;; This function uses a non-reentrant model
  6274 ;;
  6275                           
  6276                           
  6277                           ;psect for function _Led2_PWM
  6278  01B4                     _Led2_PWM:
  6279                           
  6280                           ;SourceFiles/SunSensor/Led.c: 32:     switch (BreathState)
  6281                           
  6282                           ;incstack = 0
  6283                           ; Regs used in _Led2_PWM: [wreg-fsr0h+status,2+status,0+pclath+cstack]
  6284  01B4  29FF               	goto	i1l1704
  6285  01B5                     i1l1676:
  6286                           
  6287                           ;SourceFiles/SunSensor/Led.c: 35:             counter++;
  6288  01B5  3001               	movlw	1
  6289  01B6  0020               	movlb	0	; select bank0
  6290  01B7  07B2               	addwf	_counter,f
  6291  01B8  3000               	movlw	0
  6292  01B9  3DB3               	addwfc	_counter+1,f
  6293                           
  6294                           ;SourceFiles/SunSensor/Led.c: 36:             if(counter > 100)
  6295  01BA  3000               	movlw	0
  6296  01BB  0233               	subwf	_counter+1,w
  6297  01BC  3065               	movlw	101
  6298  01BD  1903               	skipnz
  6299  01BE  0232               	subwf	_counter,w
  6300  01BF  1C03               	skipc
  6301  01C0  29C6               	goto	i1l1680
  6302                           
  6303                           ;SourceFiles/SunSensor/Led.c: 37:             {;SourceFiles/SunSensor/Led.c: 38:        
      +                                   BreathState = 2;
  6304  01C1  3002               	movlw	2
  6305  01C2  00F4               	movwf	??_Led2_PWM
  6306  01C3  0874               	movf	??_Led2_PWM,w
  6307  01C4  00FB               	movwf	_BreathState
  6308                           
  6309                           ;SourceFiles/SunSensor/Led.c: 39:             }
  6310  01C5  2A12               	goto	i1l1706
  6311  01C6                     i1l1680:
  6312                           
  6313                           ;SourceFiles/SunSensor/Led.c: 41:             {;SourceFiles/SunSensor/Led.c: 42:        
      +                                   dutyValue += 8;
  6314  01C6  3008               	movlw	8
  6315  01C7  07B0               	addwf	_dutyValue,f
  6316  01C8  3000               	movlw	0
  6317  01C9  3DB1               	addwfc	_dutyValue+1,f
  6318  01CA  2A12               	goto	i1l1706
  6319  01CB                     i1l1682:
  6320                           
  6321                           ;SourceFiles/SunSensor/Led.c: 46:             counter++;
  6322  01CB  3001               	movlw	1
  6323  01CC  0020               	movlb	0	; select bank0
  6324  01CD  07B2               	addwf	_counter,f
  6325  01CE  3000               	movlw	0
  6326  01CF  3DB3               	addwfc	_counter+1,f
  6327                           
  6328                           ;SourceFiles/SunSensor/Led.c: 47:             if (counter >= (100 + 200))
  6329  01D0  3001               	movlw	1
  6330  01D1  0233               	subwf	_counter+1,w
  6331  01D2  302C               	movlw	44
  6332  01D3  1903               	skipnz
  6333  01D4  0232               	subwf	_counter,w
  6334  01D5  1C03               	skipc
  6335  01D6  29DE               	goto	i1l1688
  6336                           
  6337                           ;SourceFiles/SunSensor/Led.c: 48:             {;SourceFiles/SunSensor/Led.c: 49:        
      +                                   BreathState = 3;
  6338  01D7  3003               	movlw	3
  6339  01D8  00F4               	movwf	??_Led2_PWM
  6340  01D9  0874               	movf	??_Led2_PWM,w
  6341  01DA  00FB               	movwf	_BreathState
  6342  01DB                     i1l1686:
  6343                           
  6344                           ;SourceFiles/SunSensor/Led.c: 51:                 dutyValue = 0;
  6345  01DB  01B0               	clrf	_dutyValue
  6346  01DC  01B1               	clrf	_dutyValue+1
  6347                           
  6348                           ;SourceFiles/SunSensor/Led.c: 53:             }
  6349  01DD  2A12               	goto	i1l1706
  6350  01DE                     i1l1688:
  6351                           
  6352                           ;SourceFiles/SunSensor/Led.c: 55:             {;SourceFiles/SunSensor/Led.c: 56:        
      +                                   if (dutyValue > 0)
  6353  01DE  0830               	movf	_dutyValue,w
  6354  01DF  0431               	iorwf	_dutyValue+1,w
  6355  01E0  1903               	btfsc	3,2
  6356  01E1  2A12               	goto	i1l1706
  6357                           
  6358                           ;SourceFiles/SunSensor/Led.c: 57:                 {;SourceFiles/SunSensor/Led.c: 58:    
      +                                           if (dutyValue > 4)
  6359  01E2  3000               	movlw	0
  6360  01E3  0231               	subwf	_dutyValue+1,w
  6361  01E4  3005               	movlw	5
  6362  01E5  1903               	skipnz
  6363  01E6  0230               	subwf	_dutyValue,w
  6364  01E7  1C03               	skipc
  6365  01E8  29DB               	goto	i1l1686
  6366                           
  6367                           ;SourceFiles/SunSensor/Led.c: 59:                     {;SourceFiles/SunSensor/Led.c: 60:
      +                                                   dutyValue-=4;
  6368  01E9  3004               	movlw	4
  6369  01EA  02B0               	subwf	_dutyValue,f
  6370  01EB  3000               	movlw	0
  6371  01EC  3BB1               	subwfb	_dutyValue+1,f
  6372                           
  6373                           ;SourceFiles/SunSensor/Led.c: 61:                     }
  6374  01ED  2A12               	goto	i1l1706
  6375  01EE                     i1l1696:
  6376                           
  6377                           ;SourceFiles/SunSensor/Led.c: 71:             counter++;
  6378  01EE  3001               	movlw	1
  6379  01EF  0020               	movlb	0	; select bank0
  6380  01F0  07B2               	addwf	_counter,f
  6381  01F1  3000               	movlw	0
  6382  01F2  3DB3               	addwfc	_counter+1,f
  6383                           
  6384                           ;SourceFiles/SunSensor/Led.c: 72:             if (counter > (100 + 200 + 100))
  6385  01F3  3001               	movlw	1
  6386  01F4  0233               	subwf	_counter+1,w
  6387  01F5  3091               	movlw	145
  6388  01F6  1903               	skipnz
  6389  01F7  0232               	subwf	_counter,w
  6390  01F8  1C03               	skipc
  6391  01F9  2A12               	goto	i1l1706
  6392                           
  6393                           ;SourceFiles/SunSensor/Led.c: 73:             {;SourceFiles/SunSensor/Led.c: 74:        
      +                                   counter = 0;
  6394  01FA  01B2               	clrf	_counter
  6395  01FB  01B3               	clrf	_counter+1
  6396                           
  6397                           ;SourceFiles/SunSensor/Led.c: 75:                 BreathState = 1;
  6398  01FC  01FB               	clrf	_BreathState
  6399  01FD  0AFB               	incf	_BreathState,f
  6400  01FE  2A12               	goto	i1l1706
  6401  01FF                     i1l1704:
  6402  01FF  087B               	movf	_BreathState,w
  6403  0200  00F4               	movwf	??_Led2_PWM
  6404  0201  01F5               	clrf	??_Led2_PWM+1
  6405                           
  6406                           ; Switch on 2 bytes has been partitioned into a top level switch of size 1, and 1 sub-sw
      +                          itches
  6407                           ; Switch size 1, requested type "simple"
  6408                           ; Number of cases is 1, Range of values is 0 to 0
  6409                           ; switch strategies available:
  6410                           ; Name         Instructions Cycles
  6411                           ; simple_byte            4     3 (average)
  6412                           ; direct_byte            8     6 (fixed)
  6413                           ; jumptable            260     6 (fixed)
  6414                           ;	Chosen strategy is simple_byte
  6415  0202  0875               	movf	??_Led2_PWM+1,w
  6416  0203  3A00               	xorlw	0	; case 0
  6417  0204  1903               	skipnz
  6418  0205  2A07               	goto	i1l2604
  6419  0206  2A12               	goto	i1l1706
  6420  0207                     i1l2604:
  6421                           
  6422                           ; Switch size 1, requested type "simple"
  6423                           ; Number of cases is 3, Range of values is 1 to 3
  6424                           ; switch strategies available:
  6425                           ; Name         Instructions Cycles
  6426                           ; simple_byte           10     6 (average)
  6427                           ; direct_byte           15     9 (fixed)
  6428                           ; jumptable            263     9 (fixed)
  6429                           ;	Chosen strategy is simple_byte
  6430  0207  0874               	movf	??_Led2_PWM,w
  6431  0208  3A01               	xorlw	1	; case 1
  6432  0209  1903               	skipnz
  6433  020A  29B5               	goto	i1l1676
  6434  020B  3A03               	xorlw	3	; case 2
  6435  020C  1903               	skipnz
  6436  020D  29CB               	goto	i1l1682
  6437  020E  3A01               	xorlw	1	; case 3
  6438  020F  1903               	skipnz
  6439  0210  29EE               	goto	i1l1696
  6440  0211  2A12               	goto	i1l1706
  6441  0212                     i1l1706:
  6442                           
  6443                           ;SourceFiles/SunSensor/Led.c: 82:     PWM1_LoadDutyValue(dutyValue);
  6444  0212  0020               	movlb	0	; select bank0
  6445  0213  0831               	movf	_dutyValue+1,w
  6446  0214  00F1               	movwf	PWM1_LoadDutyValue@dutyValue+1
  6447  0215  0830               	movf	_dutyValue,w
  6448  0216  00F0               	movwf	PWM1_LoadDutyValue@dutyValue
  6449  0217  3184  240F         	fcall	_PWM1_LoadDutyValue
  6450  0219  0008               	return
  6451  021A                     __end_of_Led2_PWM:
  6452                           
  6453                           	psect	text33
  6454  04FD                     __ptext33:	
  6455 ;; *************** function _TMR2_DefaultInterruptHandler *****************
  6456 ;; Defined at:
  6457 ;;		line 151 in file "mcc_generated_files/tmr2.c"
  6458 ;; Parameters:    Size  Location     Type
  6459 ;;		None
  6460 ;; Auto vars:     Size  Location     Type
  6461 ;;		None
  6462 ;; Return value:  Size  Location     Type
  6463 ;;                  1    wreg      void 
  6464 ;; Registers used:
  6465 ;;		None
  6466 ;; Tracked objects:
  6467 ;;		On entry : 0/0
  6468 ;;		On exit  : 0/0
  6469 ;;		Unchanged: 0/0
  6470 ;; Data sizes:     COMMON   BANK0   BANK1   BANK2   BANK3   BANK4   BANK5   BANK6
  6471 ;;      Params:         0       0       0       0       0       0       0       0
  6472 ;;      Locals:         0       0       0       0       0       0       0       0
  6473 ;;      Temps:          0       0       0       0       0       0       0       0
  6474 ;;      Totals:         0       0       0       0       0       0       0       0
  6475 ;;Total ram usage:        0 bytes
  6476 ;; Hardware stack levels used:    1
  6477 ;; This function calls:
  6478 ;;		Nothing
  6479 ;; This function is called by:
  6480 ;;		_TMR2_Initialize
  6481 ;;		_TMR2_CallBack
  6482 ;; This function uses a non-reentrant model
  6483 ;;
  6484                           
  6485                           
  6486                           ;psect for function _TMR2_DefaultInterruptHandler
  6487  04FD                     _TMR2_DefaultInterruptHandler:
  6488                           
  6489                           ;incstack = 0
  6490                           ; Regs used in _TMR2_DefaultInterruptHandler: []
  6491  04FD  0008               	return
  6492  04FE                     __end_of_TMR2_DefaultInterruptHandler:
  6493                           
  6494                           	psect	text34
  6495  040F                     __ptext34:	
  6496 ;; *************** function _PWM1_LoadDutyValue *****************
  6497 ;; Defined at:
  6498 ;;		line 72 in file "mcc_generated_files/pwm1.c"
  6499 ;; Parameters:    Size  Location     Type
  6500 ;;  dutyValue       2    0[COMMON] unsigned short 
  6501 ;; Auto vars:     Size  Location     Type
  6502 ;;		None
  6503 ;; Return value:  Size  Location     Type
  6504 ;;                  1    wreg      void 
  6505 ;; Registers used:
  6506 ;;		wreg, status,2, status,0
  6507 ;; Tracked objects:
  6508 ;;		On entry : 0/0
  6509 ;;		On exit  : 0/0
  6510 ;;		Unchanged: 0/0
  6511 ;; Data sizes:     COMMON   BANK0   BANK1   BANK2   BANK3   BANK4   BANK5   BANK6
  6512 ;;      Params:         2       0       0       0       0       0       0       0
  6513 ;;      Locals:         0       0       0       0       0       0       0       0
  6514 ;;      Temps:          2       0       0       0       0       0       0       0
  6515 ;;      Totals:         4       0       0       0       0       0       0       0
  6516 ;;Total ram usage:        4 bytes
  6517 ;; Hardware stack levels used:    1
  6518 ;; This function calls:
  6519 ;;		Nothing
  6520 ;; This function is called by:
  6521 ;;		_Led2_PWM
  6522 ;; This function uses a non-reentrant model
  6523 ;;
  6524                           
  6525                           
  6526                           ;psect for function _PWM1_LoadDutyValue
  6527  040F                     _PWM1_LoadDutyValue:
  6528                           
  6529                           ;mcc_generated_files/pwm1.c: 72:  void PWM1_LoadDutyValue(uint16_t dutyValue);mcc_genera
      +                          ted_files/pwm1.c: 73:  {;mcc_generated_files/pwm1.c: 75:      PWM1DCH = (dutyValue & 0x0
      +                          3FC)>>2;
  6530                           
  6531                           ;incstack = 0
  6532                           ; Regs used in _PWM1_LoadDutyValue: [wreg+status,2+status,0]
  6533  040F  0871               	movf	PWM1_LoadDutyValue@dutyValue+1,w
  6534  0410  00F3               	movwf	??_PWM1_LoadDutyValue+1
  6535  0411  0870               	movf	PWM1_LoadDutyValue@dutyValue,w
  6536  0412  00F2               	movwf	??_PWM1_LoadDutyValue
  6537  0413  36F3               	lsrf	??_PWM1_LoadDutyValue+1,f
  6538  0414  0CF2               	rrf	??_PWM1_LoadDutyValue,f
  6539  0415  36F3               	lsrf	??_PWM1_LoadDutyValue+1,f
  6540  0416  0CF2               	rrf	??_PWM1_LoadDutyValue,f
  6541  0417  0872               	movf	??_PWM1_LoadDutyValue,w
  6542  0418  002C               	movlb	12	; select bank12
  6543  0419  0092               	movwf	18	;volatile
  6544                           
  6545                           ;mcc_generated_files/pwm1.c: 78:      PWM1DCL = (dutyValue & 0x0003)<<6;
  6546  041A  0870               	movf	PWM1_LoadDutyValue@dutyValue,w
  6547  041B  3903               	andlw	3
  6548  041C  00F2               	movwf	??_PWM1_LoadDutyValue
  6549  041D  3005               	movlw	5
  6550  041E                     u67_25:
  6551  041E  35F2               	lslf	??_PWM1_LoadDutyValue,f
  6552  041F  3EFF               	addlw	-1
  6553  0420  1D03               	skipz
  6554  0421  2C1E               	goto	u67_25
  6555  0422  3572               	lslf	??_PWM1_LoadDutyValue,w
  6556  0423  0091               	movwf	17	;volatile
  6557  0424  0008               	return
  6558  0425                     __end_of_PWM1_LoadDutyValue:
  6559  007E                     btemp	set	126	;btemp
  6560  007E                     int$flags	set	126
  6561  007E                     wtemp0	set	126
  6562                           
  6563                           	psect	config
  6564                           
  6565                           ;Config register CONFIG1 @ 0x8007
  6566                           ;	Oscillator Selection Bits
  6567                           ;	FOSC = INTOSC, INTOSC oscillator: I/O function on CLKIN pin
  6568                           ;	Watchdog Timer Enable
  6569                           ;	WDTE = OFF, WDT disabled
  6570                           ;	Power-up Timer Enable
  6571                           ;	PWRTE = OFF, PWRT disabled
  6572                           ;	MCLR Pin Function Select
  6573                           ;	MCLRE = ON, MCLR/VPP pin function is MCLR
  6574                           ;	Flash Program Memory Code Protection
  6575                           ;	CP = OFF, Program memory code protection is disabled
  6576                           ;	Brown-out Reset Enable
  6577                           ;	BOREN = ON, Brown-out Reset enabled
  6578                           ;	Clock Out Enable
  6579                           ;	CLKOUTEN = OFF, CLKOUT function is disabled. I/O or oscillator function on the CLKOUT 
      +                          pin
  6580                           ;	Internal/External Switchover Mode
  6581                           ;	IESO = ON, Internal/External Switchover Mode is enabled
  6582                           ;	Fail-Safe Clock Monitor Enable
  6583                           ;	FCMEN = ON, Fail-Safe Clock Monitor is enabled
  6584  8007                     	org	32775
  6585  8007  3FE4               	dw	16356
  6586                           
  6587                           ;Config register CONFIG2 @ 0x8008
  6588                           ;	Flash Memory Self-Write Protection
  6589                           ;	WRT = OFF, Write protection off
  6590                           ;	Stack Overflow/Underflow Reset Enable
  6591                           ;	STVREN = ON, Stack Overflow or Underflow will cause a Reset
  6592                           ;	Brown-out Reset Voltage Selection
  6593                           ;	BORV = LO, Brown-out Reset Voltage (Vbor), low trip point selected.
  6594                           ;	Low-Power Brown Out Reset
  6595                           ;	LPBOR = OFF, Low-Power BOR is disabled
  6596                           ;	Low-Voltage Programming Enable
  6597                           ;	LVP = ON, Low-voltage programming enabled
  6598  8008                     	org	32776
  6599  8008  3FFF               	dw	16383

Data Sizes:
    Strings     0
    Constant    15
    Data        3
    BSS         49
    Persistent  42
    Stack       0

Auto Spaces:
    Space          Size  Autos    Used
    COMMON           14      6      12
    BANK0            80     23      79
    BANK1            80      2       2
    BANK2            80      0       0
    BANK3            80      0       0
    BANK4            80      0       0
    BANK5            80      0       0
    BANK6            16      0       0

Pointer List with Targets:

    EUSART_SetErrorHandler@interruptHandler	PTR FTN()void  size(2) Largest target is 1
		 -> EUSART_DefaultErrorHandler(), 

    EUSART_ErrorHandler	PTR FTN()void  size(2) Largest target is 1
		 -> EUSART_DefaultErrorHandler(), Absolute function(), 

    EUSART_SetOverrunErrorHandler@interruptHandler	PTR FTN()void  size(2) Largest target is 1
		 -> EUSART_DefaultOverrunErrorHandler(), 

    EUSART_OverrunErrorHandler	PTR FTN()void  size(2) Largest target is 1
		 -> EUSART_DefaultOverrunErrorHandler(), Absolute function(), 

    EUSART_SetFramingErrorHandler@interruptHandler	PTR FTN()void  size(2) Largest target is 1
		 -> EUSART_DefaultFramingErrorHandler(), 

    EUSART_FramingErrorHandler	PTR FTN()void  size(2) Largest target is 1
		 -> EUSART_DefaultFramingErrorHandler(), Absolute function(), 

    TMR2_SetInterruptHandler@InterruptHandler	PTR FTN()void  size(2) Largest target is 1
		 -> Led2_PWM(), TMR2_DefaultInterruptHandler(), 

    TMR2_InterruptHandler	PTR FTN()void  size(2) Largest target is 1
		 -> Led2_PWM(), Absolute function(), TMR2_DefaultInterruptHandler(), 

    S30$tptr	PTR FTN()void  size(2) Largest target is 1
		 -> SHT21_StateMachine(), UartDisplay(), 

    COS_tsk.tptr	PTR FTN()void  size(2) Largest target is 1
		 -> SHT21_StateMachine(), UartDisplay(), 


Critical Paths under _main in COMMON

    None.

Critical Paths under _INTERRUPT_InterruptManager in COMMON

    _TMR2_CallBack->_Led2_PWM
    _Led2_PWM->_PWM1_LoadDutyValue

Critical Paths under _main in BANK0

    _TMR2_Initialize->_TMR2_SetInterruptHandler
    _EUSART_Initialize->_EUSART_SetErrorHandler
    _EUSART_Initialize->_EUSART_SetFramingErrorHandler
    _EUSART_Initialize->_EUSART_SetOverrunErrorHandler
    _COS_TskMan->_SHT21_StateMachine
    _UartDisplay->_EUSART_Write
    _SHT21_StateMachine->_SHT2x_CalcRelativeHumidity
    _SHT21_StateMachine->_SHT2x_CalcTemperatureC
    _SHT2x_CalcTemperatureC->___lmul
    _SHT2x_CalcRelativeHumidity->___lmul

Critical Paths under _INTERRUPT_InterruptManager in BANK0

    None.

Critical Paths under _main in BANK1

    _main->_COS_TskMan

Critical Paths under _INTERRUPT_InterruptManager in BANK1

    None.

Critical Paths under _main in BANK2

    None.

Critical Paths under _INTERRUPT_InterruptManager in BANK2

    None.

Critical Paths under _main in BANK3

    None.

Critical Paths under _INTERRUPT_InterruptManager in BANK3

    None.

Critical Paths under _main in BANK4

    None.

Critical Paths under _INTERRUPT_InterruptManager in BANK4

    None.

Critical Paths under _main in BANK5

    None.

Critical Paths under _INTERRUPT_InterruptManager in BANK5

    None.

Critical Paths under _main in BANK6

    None.

Critical Paths under _INTERRUPT_InterruptManager in BANK6

    None.

Call Graph Tables:

 ---------------------------------------------------------------------------------
 (Depth) Function   	        Calls       Base Space   Used Autos Params    Refs
 ---------------------------------------------------------------------------------
 (0) _main                                                 0     0      0    2937
                           _COS_Init
                     _COS_TmrHandler
                         _COS_TskMan
                  _SYSTEM_Initialize
           _TMR2_SetInterruptHandler
 ---------------------------------------------------------------------------------
 (1) _SYSTEM_Initialize                                    0     0      0     574
                  _EUSART_Initialize
              _OSCILLATOR_Initialize
             _PIN_MANAGER_Initialize
                    _PWM1_Initialize
                    _TMR2_Initialize
                     _WDT_Initialize
 ---------------------------------------------------------------------------------
 (2) _WDT_Initialize                                       0     0      0       0
 ---------------------------------------------------------------------------------
 (2) _TMR2_Initialize                                      0     0      0     211
           _TMR2_SetInterruptHandler
 ---------------------------------------------------------------------------------
 (1) _TMR2_SetInterruptHandler                             2     0      2     211
                                              0 BANK0      2     0      2
 ---------------------------------------------------------------------------------
 (2) _PWM1_Initialize                                      0     0      0       0
 ---------------------------------------------------------------------------------
 (2) _PIN_MANAGER_Initialize                               0     0      0       0
 ---------------------------------------------------------------------------------
 (2) _OSCILLATOR_Initialize                                0     0      0       0
 ---------------------------------------------------------------------------------
 (2) _EUSART_Initialize                                    0     0      0     363
             _EUSART_SetErrorHandler
      _EUSART_SetFramingErrorHandler
      _EUSART_SetOverrunErrorHandler
 ---------------------------------------------------------------------------------
 (3) _EUSART_SetOverrunErrorHandler                        2     0      2     121
                                              0 BANK0      2     0      2
 ---------------------------------------------------------------------------------
 (3) _EUSART_SetFramingErrorHandler                        2     0      2     121
                                              0 BANK0      2     0      2
 ---------------------------------------------------------------------------------
 (3) _EUSART_SetErrorHandler                               2     0      2     121
                                              0 BANK0      2     0      2
 ---------------------------------------------------------------------------------
 (1) _COS_TskMan                                           2     2      0    1942
                                              0 BANK1      2     2      0
                 _SHT21_StateMachine *
                        _UartDisplay *
                             ___wmul
 ---------------------------------------------------------------------------------
 (2) ___wmul                                               6     2      4     496
                                              0 BANK0      6     2      4
 ---------------------------------------------------------------------------------
 (2) _UartDisplay                                          0     0      0      31
                       _EUSART_Write
 ---------------------------------------------------------------------------------
 (3) _EUSART_Write                                         1     1      0      31
                                              0 BANK0      1     1      0
 ---------------------------------------------------------------------------------
 (2) _SHT21_StateMachine                                   2     2      0    1415
                                             21 BANK0      2     2      0
                       _I2c_ReadByte
                 _I2c_StartCondition
                  _I2c_StopCondition
                      _I2c_WriteByte
                    _SHT21_FaultHand
         _SHT2x_CalcRelativeHumidity
             _SHT2x_CalcTemperatureC
                         _SendByUart
 ---------------------------------------------------------------------------------
 (3) _SendByUart                                           2     2      0      31
                                              0 BANK0      2     2      0
 ---------------------------------------------------------------------------------
 (3) _SHT2x_CalcTemperatureC                               9     7      2     607
                                             12 BANK0      9     7      2
                             ___lmul
 ---------------------------------------------------------------------------------
 (3) _SHT2x_CalcRelativeHumidity                           9     7      2     641
                                             12 BANK0      9     7      2
                             ___lmul
 ---------------------------------------------------------------------------------
 (4) ___lmul                                              12     4      8     496
                                              0 BANK0     12     4      8
 ---------------------------------------------------------------------------------
 (3) _SHT21_FaultHand                                      1     1      0       0
                                              0 BANK0      1     1      0
 ---------------------------------------------------------------------------------
 (3) _I2c_WriteByte                                        3     3      0      68
                                              0 BANK0      3     3      0
 ---------------------------------------------------------------------------------
 (3) _I2c_StopCondition                                    0     0      0       0
 ---------------------------------------------------------------------------------
 (3) _I2c_StartCondition                                   0     0      0       0
 ---------------------------------------------------------------------------------
 (3) _I2c_ReadByte                                         3     3      0      68
                                              0 BANK0      3     3      0
 ---------------------------------------------------------------------------------
 (1) _COS_TmrHandler                                       5     5      0     105
                                              0 BANK0      5     5      0
 ---------------------------------------------------------------------------------
 (1) _COS_Init                                             5     5      0     105
                                              0 BANK0      5     5      0
                     _COS_TimerSetup
 ---------------------------------------------------------------------------------
 (2) _COS_TimerSetup                                       0     0      0       0
 ---------------------------------------------------------------------------------
 Estimated maximum stack depth 4
 ---------------------------------------------------------------------------------
 (Depth) Function   	        Calls       Base Space   Used Autos Params    Refs
 ---------------------------------------------------------------------------------
 (5) _INTERRUPT_InterruptManager                           0     0      0     120
                           _TMR2_ISR
 ---------------------------------------------------------------------------------
 (6) _TMR2_ISR                                             0     0      0     120
                      _TMR2_CallBack
 ---------------------------------------------------------------------------------
 (7) _TMR2_CallBack                                        0     0      0     120
                   Absolute function *
                           _Led2_PWM *
       _TMR2_DefaultInterruptHandler *
 ---------------------------------------------------------------------------------
 (8) _TMR2_DefaultInterruptHandler                         0     0      0       0
 ---------------------------------------------------------------------------------
 (8) _Led2_PWM                                             2     2      0     120
                                              4 COMMON     2     2      0
                 _PWM1_LoadDutyValue
 ---------------------------------------------------------------------------------
 (9) _PWM1_LoadDutyValue                                   4     2      2     120
                                              0 COMMON     4     2      2
 ---------------------------------------------------------------------------------
 (8) Absolute function(Fake)                               0     0      0       0
 ---------------------------------------------------------------------------------
 Estimated maximum stack depth 9
 ---------------------------------------------------------------------------------

 Call Graph Graphs:

 _main (ROOT)
   _COS_Init
     _COS_TimerSetup
   _COS_TmrHandler
   _COS_TskMan
     _SHT21_StateMachine *
       _I2c_ReadByte
       _I2c_StartCondition
       _I2c_StopCondition
       _I2c_WriteByte
       _SHT21_FaultHand
       _SHT2x_CalcRelativeHumidity
         ___lmul
       _SHT2x_CalcTemperatureC
         ___lmul
       _SendByUart
     _UartDisplay *
       _EUSART_Write
     ___wmul *
   _SYSTEM_Initialize
     _EUSART_Initialize
       _EUSART_SetErrorHandler
       _EUSART_SetFramingErrorHandler
       _EUSART_SetOverrunErrorHandler
     _OSCILLATOR_Initialize
     _PIN_MANAGER_Initialize
     _PWM1_Initialize
     _TMR2_Initialize
       _TMR2_SetInterruptHandler
     _WDT_Initialize
   _TMR2_SetInterruptHandler

 _INTERRUPT_InterruptManager (ROOT)
   _TMR2_ISR
     _TMR2_CallBack
       Absolute function(Fake) *
       _Led2_PWM *
         _PWM1_LoadDutyValue
       _TMR2_DefaultInterruptHandler *

 Address spaces:
Name               Size   Autos  Total    Cost      Usage
BIGRAM             1F0      0       0       0        0.0%
NULL                 0      0       0       0        0.0%
CODE                 0      0       0       0        0.0%
BITCOMMON            E      0       0       1        0.0%
BITSFR0              0      0       0       1        0.0%
SFR0                 0      0       0       1        0.0%
COMMON               E      6       C       2       85.7%
BITSFR1              0      0       0       2        0.0%
SFR1                 0      0       0       2        0.0%
BITSFR2              0      0       0       3        0.0%
SFR2                 0      0       0       3        0.0%
STACK                0      0       0       3        0.0%
BITSFR3              0      0       0       4        0.0%
SFR3                 0      0       0       4        0.0%
ABS                  0      0      5D       4        0.0%
BITBANK0            50      0       0       5        0.0%
BITSFR4              0      0       0       5        0.0%
SFR4                 0      0       0       5        0.0%
BANK0               50     17      4F       6       98.8%
BITSFR5              0      0       0       6        0.0%
SFR5                 0      0       0       6        0.0%
BITBANK1            50      0       0       7        0.0%
BITSFR6              0      0       0       7        0.0%
SFR6                 0      0       0       7        0.0%
BANK1               50      2       2       8        2.5%
BITSFR7              0      0       0       8        0.0%
SFR7                 0      0       0       8        0.0%
BITBANK2            50      0       0       9        0.0%
BITSFR8              0      0       0       9        0.0%
SFR8                 0      0       0       9        0.0%
BANK2               50      0       0      10        0.0%
BITSFR9              0      0       0      10        0.0%
SFR9                 0      0       0      10        0.0%
BITBANK3            50      0       0      11        0.0%
BITSFR10             0      0       0      11        0.0%
SFR10                0      0       0      11        0.0%
BANK3               50      0       0      12        0.0%
BITSFR11             0      0       0      12        0.0%
SFR11                0      0       0      12        0.0%
BITBANK4            50      0       0      13        0.0%
BITSFR12             0      0       0      13        0.0%
SFR12                0      0       0      13        0.0%
BANK4               50      0       0      14        0.0%
BITSFR13             0      0       0      14        0.0%
SFR13                0      0       0      14        0.0%
BITBANK5            50      0       0      15        0.0%
BITSFR14             0      0       0      15        0.0%
SFR14                0      0       0      15        0.0%
BANK5               50      0       0      16        0.0%
BITSFR15             0      0       0      16        0.0%
SFR15                0      0       0      16        0.0%
BITBANK6            10      0       0      17        0.0%
BITSFR16             0      0       0      17        0.0%
SFR16                0      0       0      17        0.0%
BANK6               10      0       0      18        0.0%
BITSFR17             0      0       0      18        0.0%
SFR17                0      0       0      18        0.0%
BITSFR18             0      0       0      19        0.0%
SFR18                0      0       0      19        0.0%
DATA                 0      0      5D      19        0.0%
BITSFR19             0      0       0      20        0.0%
SFR19                0      0       0      20        0.0%
BITSFR20             0      0       0      21        0.0%
SFR20                0      0       0      21        0.0%
BITSFR21             0      0       0      22        0.0%
SFR21                0      0       0      22        0.0%
BITSFR22             0      0       0      23        0.0%
SFR22                0      0       0      23        0.0%
BITSFR23             0      0       0      24        0.0%
SFR23                0      0       0      24        0.0%
BITSFR24             0      0       0      25        0.0%
SFR24                0      0       0      25        0.0%
BITSFR25             0      0       0      26        0.0%
SFR25                0      0       0      26        0.0%
BITSFR26             0      0       0      27        0.0%
SFR26                0      0       0      27        0.0%
BITSFR27             0      0       0      28        0.0%
SFR27                0      0       0      28        0.0%
BITSFR28             0      0       0      29        0.0%
SFR28                0      0       0      29        0.0%
BITSFR29             0      0       0      30        0.0%
SFR29                0      0       0      30        0.0%
BITSFR30             0      0       0      31        0.0%
SFR30                0      0       0      31        0.0%
BITSFR31             0      0       0      32        0.0%
SFR31                0      0       0      32        0.0%


Microchip Technology PIC Macro Assembler V2.20 build 20200408173844 
Symbol Table                                                                                   Mon Jun 22 17:06:51 2020

                                ??_I2c_WriteByte 004D                 __end_of_TMR2_SetInterruptHandler 04D8  
                                             l36 022F                                               l29 0333  
                                             l47 01A3                              ___wmul@multiplicand 004F  
                                    ?_COS_TskMan 0070                                              l413 04A6  
                                            l431 03A2                                              l425 042C  
                                            l265 04C6                                              l434 03B2  
                                            l530 02A4                                              l435 03B4  
                                            l419 049C                                              l531 02C3  
                                            l436 03B8                                              l526 02F5  
                                            l622 03C7                                              l379 03EA  
                                            _PR2 001B                   ?_EUSART_SetFramingErrorHandler 004D  
                                _TMR2_Initialize 045F                                              wreg 0009  
                                I2c_ReadByte@ack 004E                                             l2320 0034  
                                           l2170 035C                                             l2330 0055  
                                           l2402 0113                                             l2404 0133  
                                           l2316 0030                                             l2412 03C1  
                                           l2166 0352                                             l2328 0051  
                                           l2602 011C                                             l2356 009B  
                                           l2462 0264                                             l2366 00B5  
                                           l2392 00FC                                             l2396 0109  
                                           l2476 0178                                             l2498 01A4  
                                __end_of_COS_tsk 0480                          __end_of_PWM1_Initialize 04BC  
                                           _LATA 010C                                             _LATB 010D  
                                           u1335 035D                                             _LATC 010E  
                                           u1345 0364                         __size_of_SHT21_FaultHand 000C  
                                           u1445 02F7                                             u1605 03C8  
                                           u1455 02FF                                             u1615 03CD  
                                           u1545 0083                                             u1475 02A6  
                                           u1485 02AE                                             u1585 00E3  
                                           _TMR2 001A                                             _WPUA 020C  
                                           _WPUB 020D                                             _Humi 002C  
                                           _Temp 002E                                             _main 03DA  
                                           fsr0h 0005                                             indf0 0000  
                                           fsr0l 0004                                             btemp 007E  
                                           start 0012                                 __end_of_COS_Init 0349  
                                  ?_EUSART_Write 0070                   __size_of_OSCILLATOR_Initialize 0006  
                  __end_of_OSCILLATOR_Initialize 04DE                                            ?_main 0070  
                                          _T1CON 0018                                            _T2CON 001C  
                                          i1l127 0010                                            _RCREG 0199  
                                          _RCSTA 019D                                            _TMR1H 0017  
                                          _TMR1L 0016                                            _TRISA 008C  
                                          _TRISB 008D                                            _TRISC 008E  
                                          u67_25 041E                                            _TXREG 019A  
                                          _TXSTA 019E                              ___lmul@multiplicand 0051  
                                          _TempH 0047                                 __end_of_TMR2_ISR 044D  
                                 _WDT_Initialize 04F6                                            pclath 000A  
                     __end_of_I2c_StartCondition 04AB                               _SHT21_StateMachine 002F  
                                          status 0003                                 __end_of_Led2_PWM 021A  
                                          wtemp0 007E                              __size_of_COS_TskMan 007C  
                __size_of_SHT2x_CalcTemperatureC 0046                              ?_SHT21_StateMachine 0070  
                                __initialization 0014                             __end_of_I2c_ReadByte 03BE  
                                   __end_of_main 03F5                                   ??_EUSART_Write 004D  
                        __end_of_TMR2_Initialize 0471                      ?_INTERRUPT_InterruptManager 0070  
                          _TI_TemperatureAmbient 0020                         _TMR2_SetInterruptHandler 04D2  
                                         ??_main 0064                                      _BreathState 007B  
                               I2c_WriteByte@ack 004F                                 _SensirionRH_UBP8 0026  
                         __end_of_WDT_Initialize 04FA                             ??_SHT21_StateMachine 0062  
                                 _COS_TmrHandler 021A                                       _SendByUart 04AB  
              _EUSART_DefaultFramingErrorHandler 0000                       _EUSART_OverrunErrorHandler 0066  
                                 _COS_TimerSetup 04F0                                           _APFCON 011D  
                                         _ANSELA 018C                                           _ANSELB 018D  
                                         _ANSELC 018E                                           _BORCON 0116  
                               ?_PWM1_Initialize 0070                                           i1l1704 01FF  
                                         i1l1706 0212                                           i1l2604 0207  
                                         i1l1680 01C6                                           i1l1682 01CB  
                                         i1l1676 01B5                                           i1l1686 01DB  
                                         i1l1696 01EE                                           i1l1688 01DE  
                    ?_SHT2x_CalcRelativeHumidity 0059                                           _OSCCON 0099  
                                         _SPBRGH 019C                                           _SPBRGL 019B  
                                         _SSP1IF 008B                                           _WDTCON 0097  
                                  ??_UartDisplay 004E                                ??_SHT21_FaultHand 004D  
                                     _Timer2Flag 0049                                           ___lmul 0349  
                                         ___wmul 03BE                           _SHT2x_CalcTemperatureC 02C8  
                         __end_of_COS_TmrHandler 0277                                     __pdataCOMMON 007A  
                                ?_WDT_Initialize 0070                           __end_of_COS_TimerSetup 04F6  
       TMR2_SetInterruptHandler@InterruptHandler 004D           SHT2x_CalcTemperatureC@Temperature_UBP8 005C  
                            _RelativeHumidityRaw 0022                                _SYSTEM_Initialize 044D  
                        __end_of__initialization 002B                                 _TemperatureRaw_H 0043  
                               _TemperatureRaw_L 0042  SHT2x_CalcRelativeHumidity@RelativeHumidity_UBP8 005C  
                                      ?_COS_Init 0070                            __end_of_TMR2_CallBack 0497  
                                 _NewMessageFlag 0079                               ?_SYSTEM_Initialize 0070  
                             I2c_ReadByte@rxByte 004F                      PWM1_LoadDutyValue@dutyValue 0070  
                                 __pcstackCOMMON 0070                                     __pidataBANK0 04FC  
                            ??_SYSTEM_Initialize 004F                              __end_of_UartDisplay 04C4  
                                      ?_TMR2_ISR 0070                               _PWM1_LoadDutyValue 040F  
                               ?_TMR2_Initialize 0070                                     ??_COS_TskMan 00A0  
                                      ?_Led2_PWM 0070                                  ?_COS_TmrHandler 0070  
                                 _OPTION_REGbits 0095                              ?_PWM1_LoadDutyValue 0070  
                                ?_COS_TimerSetup 0070                                      ?_SendByUart 0070  
                ??_EUSART_SetOverrunErrorHandler 004F                        __end_of_SYSTEM_Initialize 045F  
                            I2c_WriteByte@txByte 004E                                       __pbssBANK0 0020  
                                 _TemperatureRaw 0024                             __end_of_EUSART_Write 04CC  
                                     ??_COS_Init 004D                        _SensirionTemperature_UBP8 0028  
                          __size_of_I2c_ReadByte 0020                               __end_of_COS_TskMan 01B4  
                           ??_PWM1_LoadDutyValue 0072                                       __pmaintext 03DA  
                                        ?___lmul 004D                                          ?___wmul 004D  
                                     ??_TMR2_ISR 0076                            __end_of_I2c_WriteByte 043A  
                                     __pintentry 0004                                          _BAUDCON 019F  
                                 ___lmul@product 0055                                       ??_Led2_PWM 0074  
                                        _COS_tsk 0471                                          _PWM1DCH 0612  
                                        _PWM1DCL 0611                                          _PWM1CON 0613  
                                        _SSP1ADD 0212                                          _SSP1BUF 0211  
                                   _I2c_ReadByte 039E                         ??_EUSART_SetErrorHandler 004F  
                                        _Command 0046                                        _I2C_Timer 002A  
                                    _UartDisplay 04BC                                        _I2C_State 003E  
                     ??_TMR2_SetInterruptHandler 004F                              __size_of_SendByUart 0009  
                                __size_of___lmul 0030                                  __size_of___wmul 001C  
                             _I2c_StartCondition 04A1                                          __ptext1 044D  
                                        __ptext2 04F6                                          __ptext3 045F  
                                        __ptext4 04D2                                          __ptext5 04B4  
                                        __ptext6 03F5                                          __ptext7 04D8  
                                        __ptext8 0379                                          __ptext9 04DE  
                                        _counter 0032                              ?_I2c_StartCondition 0070  
                          _OSCILLATOR_Initialize 04D8                                        _T2CONbits 001C  
                      _counter@UART_Display$F547 0048                         ??_PIN_MANAGER_Initialize 004D  
                                _SHT21_FaultHand 0480                       __size_of_SYSTEM_Initialize 0012  
                                        clrloop0 04CD                             end_of_initialization 002B  
          __end_of_EUSART_SetOverrunErrorHandler 04E4           __size_of_EUSART_SetOverrunErrorHandler 0006  
                  _EUSART_SetOverrunErrorHandler 04DE                                  _TimeSlotCounter 004A  
                           ??_I2c_StartCondition 004D                                _EUSART_Initialize 0379  
                             ?_EUSART_Initialize 0070                                        _RCSTAbits 019D  
                                      _U8Message 007A                          ?_SHT2x_CalcTemperatureC 0059  
                            ??_EUSART_Initialize 004F                                 ??_WDT_Initialize 004D  
                    __size_of_SHT21_StateMachine 0109                            __size_of_EUSART_Write 0008  
                __size_of_EUSART_SetErrorHandler 0006                        __end_of_EUSART_Initialize 039E  
                                      _TXSTAbits 019E                                __size_of_COS_Init 003B  
                       __size_of_PWM1_Initialize 0008                   __end_of_SHT2x_CalcTemperatureC 030E  
           __end_of_TMR2_DefaultInterruptHandler 04FE            __size_of_TMR2_DefaultInterruptHandler 0001  
                   _TMR2_DefaultInterruptHandler 04FD                                   __end_of___lmul 0379  
                     _EUSART_DefaultErrorHandler 0000                                 ??_COS_TmrHandler 004D  
                                 __end_of___wmul 03DA                                    __pidataCOMMON 04FA  
                                   _EUSART_Write 04C4                                __size_of_TMR2_ISR 0013  
                               ??_COS_TimerSetup 004D                           ?_OSCILLATOR_Initialize 0070  
                        __end_of_SHT21_FaultHand 048C                              start_initialization 0014  
                                   ??_SendByUart 004D                  __size_of_PIN_MANAGER_Initialize 001A  
                              __size_of_Led2_PWM 0066                                        _ErrorStat 0078  
                 ?_EUSART_SetOverrunErrorHandler 004D                       _EUSART_FramingErrorHandler 0068  
                                       ??___lmul 0055                                         ??___wmul 0051  
                         _EUSART_SetErrorHandler 04EA                                     _COS_tcnt_val 0076  
                                   _COS_tcnt_lst 0036                               __end_of_SendByUart 04B4  
                                    __pdataBANK0 006E                    ?_TMR2_DefaultInterruptHandler 0070  
          SHT2x_CalcTemperatureC@TemperatureTemp 005E                           __size_of_TMR2_CallBack 000B  
 SHT2x_CalcRelativeHumidity@RelativeHumidityTemp 005E                                      __pbssCOMMON 0076  
                                      ___latbits 0002                                    __pcstackBANK0 004D  
                                  __pcstackBANK1 00A0                         __size_of_TMR2_Initialize 0012  
                     __size_of_EUSART_Initialize 0025                                     ?_UartDisplay 0070  
                                      __pnvBANK0 0064                      __size_of_PWM1_LoadDutyValue 0016  
                         _PIN_MANAGER_Initialize 03F5                                ??_PWM1_Initialize 004D  
                   ??_INTERRUPT_InterruptManager 0076                                 ?_SHT21_FaultHand 0070  
                                      _dutyValue 0030                                         _I2cState 006E  
                         __size_of_I2c_WriteByte 0015                     ??_SHT2x_CalcRelativeHumidity 005B  
                                 ___wmul@product 0051                                         _COS_Init 030E  
         EUSART_SetErrorHandler@interruptHandler 004D                                         _LATCbits 010E  
                                      clear_ram0 04CC                                    _TMR2_CallBack 048C  
                                       _PIE1bits 0091                                _eusartRxLastError 004B  
            __size_of_INTERRUPT_InterruptManager 000E                                         _PIR1bits 0011  
                ??_EUSART_SetFramingErrorHandler 004F                                         _SSP1CON1 0215  
                                       _SSP1CON2 0216                _EUSART_DefaultOverrunErrorHandler 0000  
                                       _TMR2_ISR 043A                                         _SSP1STAT 0214  
                              ___wmul@multiplier 004D                                         _Led2_PWM 01B4  
                 ??_TMR2_DefaultInterruptHandler 0070                __size_of_TMR2_SetInterruptHandler 0006  
                      ?_TMR2_SetInterruptHandler 004D              __size_of_SHT2x_CalcRelativeHumidity 0051  
                              ___lmul@multiplier 004D                                COS_Init@tempbyte1 0050  
                              COS_Init@tempbyte2 0051                                ??_TMR2_Initialize 004F  
                                 ?_TMR2_CallBack 0070                      __size_of_I2c_StartCondition 000A  
                                    _COS_sec_tmr 003A                                _I2c_StopCondition 0497  
                        ??_OSCILLATOR_Initialize 004D                              _EUSART_ErrorHandler 0064  
                                    _COS_tsk_ena 006C                                      _COS_tsk_ind 004C  
                                    _COS_tsk_msk 006D                                      _COS_tsk_tmr 0038  
                                  _I2c_WriteByte 0425                               ?_I2c_StopCondition 0070  
                     __end_of_SHT21_StateMachine 0138                                         _checksum 0044  
                            ??_I2c_StopCondition 004D                                         __ptext10 04E4  
                                       __ptext11 04EA                                         __ptext20 0349  
                                       __ptext12 0138                                         __ptext21 0480  
                                       __ptext13 03BE                                         __ptext30 043A  
                                       __ptext22 0425                                         __ptext14 002F  
                                       __ptext31 048C                                         __ptext23 0497  
                                       __ptext15 04BC                                         __ptext32 01B4  
                                       __ptext24 04A1                                         __ptext16 04C4  
                                       __ptext33 04FD                                         __ptext25 039E  
                                       __ptext17 04AB                                         __ptext34 040F  
                                       __ptext26 021A                                         __ptext18 02C8  
                                       __ptext27 030E                                         __ptext19 0277  
                                       __ptext28 04F0                                     _SSP1CON1bits 0215  
                                   _SSP1CON2bits 0216                                      _SHT21_Fault 0045  
                                    _SHT21_State 003F                                    __size_of_main 001B  
                        ?_EUSART_SetErrorHandler 004D                        __end_of_I2c_StopCondition 04A1  
                           __size_of_UartDisplay 0008    EUSART_SetOverrunErrorHandler@interruptHandler 004D  
                                       int$flags 007E                                   ?_I2c_WriteByte 0070  
             __end_of_INTERRUPT_InterruptManager 0012                       _INTERRUPT_InterruptManager 0004  
          __end_of_EUSART_SetFramingErrorHandler 04EA           __size_of_EUSART_SetFramingErrorHandler 0006  
                  _EUSART_SetFramingErrorHandler 04E4                                       _COS_TskMan 0138  
                                     _INTCONbits 000B                                       _COS_ms_tmr 003C  
                                  ?_I2c_ReadByte 0070                          __size_of_WDT_Initialize 0004  
                                       intlevel1 0000                                  ??_TMR2_CallBack 0076  
             __end_of_SHT2x_CalcRelativeHumidity 02C8                       _SHT2x_CalcRelativeHumidity 0277  
                        ?_PIN_MANAGER_Initialize 0070                   __end_of_EUSART_SetErrorHandler 04F0  
                                _PWM1_Initialize 04B4    EUSART_SetFramingErrorHandler@interruptHandler 004D  
                                  __pstringtext1 0471                          COS_TmrHandler@tempbyte1 0050  
                        COS_TmrHandler@tempbyte2 0051                            TMR2_ISR@CountCallBack 0034  
                                  SendByUart@Txt 004E                                   ??_I2c_ReadByte 004D  
                        __size_of_COS_TmrHandler 005D                          __size_of_COS_TimerSetup 0006  
                             EUSART_Write@txData 004D                   __end_of_PIN_MANAGER_Initialize 040F  
                          _RelativeHumidityRaw_H 0041                            _RelativeHumidityRaw_L 0040  
                     __end_of_PWM1_LoadDutyValue 0425                         ??_SHT2x_CalcTemperatureC 005B  
                          _TMR2_InterruptHandler 006A                       __size_of_I2c_StopCondition 000A  
