

Microchip MPLAB XC8 Assembler V2.20 build 20200408173844 
                                                                                               Tue Jun 23 17:55:04 2020

Microchip MPLAB XC8 C Compiler v2.20 (Free license) build 20200408173844 Og1 
     1                           	processor	16F1509
     2                           	pagewidth 120
     3                           	opt	flic
     4                           	psect	idataCOMMON,global,class=CODE,delta=2,noexec
     5                           	psect	idataBANK0,global,class=CODE,delta=2,noexec
     6                           	psect	stringtext1,global,class=STRCODE,delta=2,noexec
     7                           	psect	stringtext2,global,class=STRCODE,delta=2,noexec
     8                           	psect	nvBANK0,global,class=BANK0,space=1,delta=1,noexec
     9                           	psect	cinit,global,class=CODE,merge=1,delta=2
    10                           	psect	bssCOMMON,global,class=COMMON,space=1,delta=1,noexec
    11                           	psect	dataCOMMON,global,class=COMMON,space=1,delta=1,noexec
    12                           	psect	bssBANK0,global,class=BANK0,space=1,delta=1,noexec
    13                           	psect	dataBANK0,global,class=BANK0,space=1,delta=1,noexec
    14                           	psect	bssBANK1,global,class=BANK1,space=1,delta=1,noexec
    15                           	psect	clrtext,global,class=CODE,delta=2
    16                           	psect	cstackCOMMON,global,class=COMMON,space=1,delta=1,noexec
    17                           	psect	cstackBANK0,global,class=BANK0,space=1,delta=1,noexec
    18                           	psect	maintext,global,class=CODE,merge=1,split=1,delta=2
    19                           	psect	text1,local,class=CODE,merge=1,delta=2
    20                           	psect	text2,local,class=CODE,merge=1,delta=2
    21                           	psect	text3,local,class=CODE,merge=1,delta=2
    22                           	psect	text4,local,class=CODE,merge=1,delta=2
    23                           	psect	text5,local,class=CODE,merge=1,delta=2
    24                           	psect	text6,local,class=CODE,merge=1,delta=2
    25                           	psect	text7,local,class=CODE,merge=1,delta=2
    26                           	psect	text8,local,class=CODE,merge=1,delta=2
    27                           	psect	text9,local,class=CODE,merge=1,delta=2
    28                           	psect	text10,local,class=CODE,merge=1,delta=2
    29                           	psect	text11,local,class=CODE,merge=1,delta=2
    30                           	psect	text12,local,class=CODE,merge=1,delta=2,group=1
    31                           	psect	text13,local,class=CODE,merge=1,delta=2
    32                           	psect	text14,local,class=CODE,merge=1,delta=2
    33                           	psect	text15,local,class=CODE,merge=1,delta=2
    34                           	psect	text16,local,class=CODE,merge=1,delta=2
    35                           	psect	text17,local,class=CODE,merge=1,delta=2
    36                           	psect	text18,local,class=CODE,merge=1,delta=2,group=1
    37                           	psect	text19,local,class=CODE,merge=1,delta=2
    38                           	psect	text20,local,class=CODE,merge=1,delta=2
    39                           	psect	text21,local,class=CODE,merge=1,delta=2
    40                           	psect	text22,local,class=CODE,merge=1,delta=2
    41                           	psect	text23,local,class=CODE,merge=1,delta=2
    42                           	psect	text24,local,class=CODE,merge=1,delta=2
    43                           	psect	text25,local,class=CODE,merge=1,delta=2
    44                           	psect	text26,local,class=CODE,merge=1,delta=2
    45                           	psect	text27,local,class=CODE,merge=1,delta=2
    46                           	psect	intentry,global,class=CODE,delta=2
    47                           	psect	text29,local,class=CODE,merge=1,delta=2
    48                           	psect	text30,local,class=CODE,merge=1,delta=2
    49                           	psect	text31,local,class=CODE,merge=1,delta=2
    50                           	psect	text32,local,class=CODE,merge=1,delta=2
    51                           	psect	text33,local,class=CODE,merge=1,delta=2
    52                           	psect	config,global,abs,ovrld,class=CONFIG,space=4,delta=2,noexec
    53                           	dabs	1,0x7E,2
    54  0000                     
    55                           ; Version 2.20
    56                           ; Generated 12/02/2020 GMT
    57                           ; 
    58                           ; Copyright © 2020, Microchip Technology Inc. and its subsidiaries ("Microchip")
    59                           ; All rights reserved.
    60                           ; 
    61                           ; This software is developed by Microchip Technology Inc. and its subsidiaries ("Microch
      +                          ip").
    62                           ; 
    63                           ; Redistribution and use in source and binary forms, with or without modification, are
    64                           ; permitted provided that the following conditions are met:
    65                           ; 
    66                           ;     1. Redistributions of source code must retain the above copyright notice, this lis
      +                          t of
    67                           ;        conditions and the following disclaimer.
    68                           ; 
    69                           ;     2. Redistributions in binary form must reproduce the above copyright notice, this 
      +                          list
    70                           ;        of conditions and the following disclaimer in the documentation and/or other
    71                           ;        materials provided with the distribution.
    72                           ; 
    73                           ;     3. Microchip's name may not be used to endorse or promote products derived from th
      +                          is
    74                           ;        software without specific prior written permission.
    75                           ; 
    76                           ; THIS SOFTWARE IS PROVIDED BY MICROCHIP "AS IS" AND ANY EXPRESS OR IMPLIED WARRANTIES,
    77                           ; INCLUDING, BUT NOT LIMITED TO, THE IMPLIED WARRANTIES OF MERCHANTABILITY AND FITNESS F
      +                          OR
    78                           ; PURPOSE ARE DISCLAIMED.  IN NO EVENT SHALL MICROCHIP BE LIABLE FOR ANY DIRECT, INDIREC
      +                          T,
    79                           ; INCIDENTAL, SPECIAL, EXEMPLARY, OR CONSEQUENTIAL DAMAGES (INCLUDING BUT NOT LIMITED TO
    80                           ; PROCUREMENT OF SUBSTITUTE GOODS OR SERVICES; LOSS OF USE, DATA OR PROFITS; OR BUSINESS
    81                           ; INTERRUPTION) HOWSOEVER CAUSED AND ON ANY THEORY OF LIABILITY, WHETHER IN CONTRACT, ST
      +                          RICT
    82                           ; LIABILITY, OR TORT (INCLUDING NEGLIGENCE OR OTHERWISE) ARISING IN ANY WAY OUT OF THE U
      +                          SE OF
    83                           ; THIS SOFTWARE, EVEN IF ADVISED OF THE POSSIBILITY OF SUCH DAMAGE.
    84                           ; 
    85                           ; 
    86                           ; Code-generator required, PIC16F1509 Definitions
    87                           ; 
    88                           ; SFR Addresses
    89  0000                     	;# 
    90  0001                     	;# 
    91  0002                     	;# 
    92  0003                     	;# 
    93  0004                     	;# 
    94  0005                     	;# 
    95  0006                     	;# 
    96  0007                     	;# 
    97  0008                     	;# 
    98  0009                     	;# 
    99  000A                     	;# 
   100  000B                     	;# 
   101  000C                     	;# 
   102  000D                     	;# 
   103  000E                     	;# 
   104  0011                     	;# 
   105  0012                     	;# 
   106  0013                     	;# 
   107  0015                     	;# 
   108  0016                     	;# 
   109  0016                     	;# 
   110  0017                     	;# 
   111  0018                     	;# 
   112  0019                     	;# 
   113  001A                     	;# 
   114  001B                     	;# 
   115  001C                     	;# 
   116  008C                     	;# 
   117  008D                     	;# 
   118  008E                     	;# 
   119  0091                     	;# 
   120  0092                     	;# 
   121  0093                     	;# 
   122  0095                     	;# 
   123  0096                     	;# 
   124  0097                     	;# 
   125  0099                     	;# 
   126  009A                     	;# 
   127  009B                     	;# 
   128  009B                     	;# 
   129  009C                     	;# 
   130  009D                     	;# 
   131  009E                     	;# 
   132  009F                     	;# 
   133  010C                     	;# 
   134  010D                     	;# 
   135  010E                     	;# 
   136  0111                     	;# 
   137  0112                     	;# 
   138  0113                     	;# 
   139  0114                     	;# 
   140  0115                     	;# 
   141  0116                     	;# 
   142  0117                     	;# 
   143  0118                     	;# 
   144  0119                     	;# 
   145  011D                     	;# 
   146  018C                     	;# 
   147  018D                     	;# 
   148  018E                     	;# 
   149  0191                     	;# 
   150  0191                     	;# 
   151  0192                     	;# 
   152  0193                     	;# 
   153  0193                     	;# 
   154  0194                     	;# 
   155  0195                     	;# 
   156  0196                     	;# 
   157  0197                     	;# 
   158  0199                     	;# 
   159  019A                     	;# 
   160  019B                     	;# 
   161  019B                     	;# 
   162  019C                     	;# 
   163  019D                     	;# 
   164  019E                     	;# 
   165  019F                     	;# 
   166  020C                     	;# 
   167  020D                     	;# 
   168  0211                     	;# 
   169  0211                     	;# 
   170  0212                     	;# 
   171  0212                     	;# 
   172  0213                     	;# 
   173  0213                     	;# 
   174  0214                     	;# 
   175  0214                     	;# 
   176  0215                     	;# 
   177  0215                     	;# 
   178  0215                     	;# 
   179  0216                     	;# 
   180  0216                     	;# 
   181  0217                     	;# 
   182  0217                     	;# 
   183  0391                     	;# 
   184  0392                     	;# 
   185  0393                     	;# 
   186  0394                     	;# 
   187  0395                     	;# 
   188  0396                     	;# 
   189  0498                     	;# 
   190  0498                     	;# 
   191  0499                     	;# 
   192  049A                     	;# 
   193  049B                     	;# 
   194  049B                     	;# 
   195  049C                     	;# 
   196  049D                     	;# 
   197  049E                     	;# 
   198  049F                     	;# 
   199  0611                     	;# 
   200  0612                     	;# 
   201  0613                     	;# 
   202  0613                     	;# 
   203  0614                     	;# 
   204  0615                     	;# 
   205  0616                     	;# 
   206  0616                     	;# 
   207  0617                     	;# 
   208  0618                     	;# 
   209  0619                     	;# 
   210  0619                     	;# 
   211  061A                     	;# 
   212  061B                     	;# 
   213  061C                     	;# 
   214  061C                     	;# 
   215  0691                     	;# 
   216  0692                     	;# 
   217  0693                     	;# 
   218  0694                     	;# 
   219  0695                     	;# 
   220  0F0F                     	;# 
   221  0F10                     	;# 
   222  0F11                     	;# 
   223  0F12                     	;# 
   224  0F13                     	;# 
   225  0F14                     	;# 
   226  0F15                     	;# 
   227  0F16                     	;# 
   228  0F17                     	;# 
   229  0F18                     	;# 
   230  0F19                     	;# 
   231  0F1A                     	;# 
   232  0F1B                     	;# 
   233  0F1C                     	;# 
   234  0F1D                     	;# 
   235  0F1E                     	;# 
   236  0F1F                     	;# 
   237  0F20                     	;# 
   238  0F21                     	;# 
   239  0F22                     	;# 
   240  0F23                     	;# 
   241  0F24                     	;# 
   242  0F25                     	;# 
   243  0F26                     	;# 
   244  0F27                     	;# 
   245  0F28                     	;# 
   246  0F29                     	;# 
   247  0F2A                     	;# 
   248  0F2B                     	;# 
   249  0F2C                     	;# 
   250  0F2D                     	;# 
   251  0F2E                     	;# 
   252  0F2F                     	;# 
   253  0F8C                     	;# 
   254  0F8D                     	;# 
   255  0F91                     	;# 
   256  0F95                     	;# 
   257  0F96                     	;# 
   258  0F97                     	;# 
   259  0F9C                     	;# 
   260  0F9D                     	;# 
   261  0F9E                     	;# 
   262  0FE3                     	;# 
   263  0FE4                     	;# 
   264  0FE5                     	;# 
   265  0FE6                     	;# 
   266  0FE7                     	;# 
   267  0FE8                     	;# 
   268  0FE9                     	;# 
   269  0FEA                     	;# 
   270  0FEB                     	;# 
   271  0FED                     	;# 
   272  0FEE                     	;# 
   273  0FEF                     	;# 
   274  0000                     	;# 
   275  0001                     	;# 
   276  0002                     	;# 
   277  0003                     	;# 
   278  0004                     	;# 
   279  0005                     	;# 
   280  0006                     	;# 
   281  0007                     	;# 
   282  0008                     	;# 
   283  0009                     	;# 
   284  000A                     	;# 
   285  000B                     	;# 
   286  000C                     	;# 
   287  000D                     	;# 
   288  000E                     	;# 
   289  0011                     	;# 
   290  0012                     	;# 
   291  0013                     	;# 
   292  0015                     	;# 
   293  0016                     	;# 
   294  0016                     	;# 
   295  0017                     	;# 
   296  0018                     	;# 
   297  0019                     	;# 
   298  001A                     	;# 
   299  001B                     	;# 
   300  001C                     	;# 
   301  008C                     	;# 
   302  008D                     	;# 
   303  008E                     	;# 
   304  0091                     	;# 
   305  0092                     	;# 
   306  0093                     	;# 
   307  0095                     	;# 
   308  0096                     	;# 
   309  0097                     	;# 
   310  0099                     	;# 
   311  009A                     	;# 
   312  009B                     	;# 
   313  009B                     	;# 
   314  009C                     	;# 
   315  009D                     	;# 
   316  009E                     	;# 
   317  009F                     	;# 
   318  010C                     	;# 
   319  010D                     	;# 
   320  010E                     	;# 
   321  0111                     	;# 
   322  0112                     	;# 
   323  0113                     	;# 
   324  0114                     	;# 
   325  0115                     	;# 
   326  0116                     	;# 
   327  0117                     	;# 
   328  0118                     	;# 
   329  0119                     	;# 
   330  011D                     	;# 
   331  018C                     	;# 
   332  018D                     	;# 
   333  018E                     	;# 
   334  0191                     	;# 
   335  0191                     	;# 
   336  0192                     	;# 
   337  0193                     	;# 
   338  0193                     	;# 
   339  0194                     	;# 
   340  0195                     	;# 
   341  0196                     	;# 
   342  0197                     	;# 
   343  0199                     	;# 
   344  019A                     	;# 
   345  019B                     	;# 
   346  019B                     	;# 
   347  019C                     	;# 
   348  019D                     	;# 
   349  019E                     	;# 
   350  019F                     	;# 
   351  020C                     	;# 
   352  020D                     	;# 
   353  0211                     	;# 
   354  0211                     	;# 
   355  0212                     	;# 
   356  0212                     	;# 
   357  0213                     	;# 
   358  0213                     	;# 
   359  0214                     	;# 
   360  0214                     	;# 
   361  0215                     	;# 
   362  0215                     	;# 
   363  0215                     	;# 
   364  0216                     	;# 
   365  0216                     	;# 
   366  0217                     	;# 
   367  0217                     	;# 
   368  0391                     	;# 
   369  0392                     	;# 
   370  0393                     	;# 
   371  0394                     	;# 
   372  0395                     	;# 
   373  0396                     	;# 
   374  0498                     	;# 
   375  0498                     	;# 
   376  0499                     	;# 
   377  049A                     	;# 
   378  049B                     	;# 
   379  049B                     	;# 
   380  049C                     	;# 
   381  049D                     	;# 
   382  049E                     	;# 
   383  049F                     	;# 
   384  0611                     	;# 
   385  0612                     	;# 
   386  0613                     	;# 
   387  0613                     	;# 
   388  0614                     	;# 
   389  0615                     	;# 
   390  0616                     	;# 
   391  0616                     	;# 
   392  0617                     	;# 
   393  0618                     	;# 
   394  0619                     	;# 
   395  0619                     	;# 
   396  061A                     	;# 
   397  061B                     	;# 
   398  061C                     	;# 
   399  061C                     	;# 
   400  0691                     	;# 
   401  0692                     	;# 
   402  0693                     	;# 
   403  0694                     	;# 
   404  0695                     	;# 
   405  0F0F                     	;# 
   406  0F10                     	;# 
   407  0F11                     	;# 
   408  0F12                     	;# 
   409  0F13                     	;# 
   410  0F14                     	;# 
   411  0F15                     	;# 
   412  0F16                     	;# 
   413  0F17                     	;# 
   414  0F18                     	;# 
   415  0F19                     	;# 
   416  0F1A                     	;# 
   417  0F1B                     	;# 
   418  0F1C                     	;# 
   419  0F1D                     	;# 
   420  0F1E                     	;# 
   421  0F1F                     	;# 
   422  0F20                     	;# 
   423  0F21                     	;# 
   424  0F22                     	;# 
   425  0F23                     	;# 
   426  0F24                     	;# 
   427  0F25                     	;# 
   428  0F26                     	;# 
   429  0F27                     	;# 
   430  0F28                     	;# 
   431  0F29                     	;# 
   432  0F2A                     	;# 
   433  0F2B                     	;# 
   434  0F2C                     	;# 
   435  0F2D                     	;# 
   436  0F2E                     	;# 
   437  0F2F                     	;# 
   438  0F8C                     	;# 
   439  0F8D                     	;# 
   440  0F91                     	;# 
   441  0F95                     	;# 
   442  0F96                     	;# 
   443  0F97                     	;# 
   444  0F9C                     	;# 
   445  0F9D                     	;# 
   446  0F9E                     	;# 
   447  0FE3                     	;# 
   448  0FE4                     	;# 
   449  0FE5                     	;# 
   450  0FE6                     	;# 
   451  0FE7                     	;# 
   452  0FE8                     	;# 
   453  0FE9                     	;# 
   454  0FEA                     	;# 
   455  0FEB                     	;# 
   456  0FED                     	;# 
   457  0FEE                     	;# 
   458  0FEF                     	;# 
   459  0000                     	;# 
   460  0001                     	;# 
   461  0002                     	;# 
   462  0003                     	;# 
   463  0004                     	;# 
   464  0005                     	;# 
   465  0006                     	;# 
   466  0007                     	;# 
   467  0008                     	;# 
   468  0009                     	;# 
   469  000A                     	;# 
   470  000B                     	;# 
   471  000C                     	;# 
   472  000D                     	;# 
   473  000E                     	;# 
   474  0011                     	;# 
   475  0012                     	;# 
   476  0013                     	;# 
   477  0015                     	;# 
   478  0016                     	;# 
   479  0016                     	;# 
   480  0017                     	;# 
   481  0018                     	;# 
   482  0019                     	;# 
   483  001A                     	;# 
   484  001B                     	;# 
   485  001C                     	;# 
   486  008C                     	;# 
   487  008D                     	;# 
   488  008E                     	;# 
   489  0091                     	;# 
   490  0092                     	;# 
   491  0093                     	;# 
   492  0095                     	;# 
   493  0096                     	;# 
   494  0097                     	;# 
   495  0099                     	;# 
   496  009A                     	;# 
   497  009B                     	;# 
   498  009B                     	;# 
   499  009C                     	;# 
   500  009D                     	;# 
   501  009E                     	;# 
   502  009F                     	;# 
   503  010C                     	;# 
   504  010D                     	;# 
   505  010E                     	;# 
   506  0111                     	;# 
   507  0112                     	;# 
   508  0113                     	;# 
   509  0114                     	;# 
   510  0115                     	;# 
   511  0116                     	;# 
   512  0117                     	;# 
   513  0118                     	;# 
   514  0119                     	;# 
   515  011D                     	;# 
   516  018C                     	;# 
   517  018D                     	;# 
   518  018E                     	;# 
   519  0191                     	;# 
   520  0191                     	;# 
   521  0192                     	;# 
   522  0193                     	;# 
   523  0193                     	;# 
   524  0194                     	;# 
   525  0195                     	;# 
   526  0196                     	;# 
   527  0197                     	;# 
   528  0199                     	;# 
   529  019A                     	;# 
   530  019B                     	;# 
   531  019B                     	;# 
   532  019C                     	;# 
   533  019D                     	;# 
   534  019E                     	;# 
   535  019F                     	;# 
   536  020C                     	;# 
   537  020D                     	;# 
   538  0211                     	;# 
   539  0211                     	;# 
   540  0212                     	;# 
   541  0212                     	;# 
   542  0213                     	;# 
   543  0213                     	;# 
   544  0214                     	;# 
   545  0214                     	;# 
   546  0215                     	;# 
   547  0215                     	;# 
   548  0215                     	;# 
   549  0216                     	;# 
   550  0216                     	;# 
   551  0217                     	;# 
   552  0217                     	;# 
   553  0391                     	;# 
   554  0392                     	;# 
   555  0393                     	;# 
   556  0394                     	;# 
   557  0395                     	;# 
   558  0396                     	;# 
   559  0498                     	;# 
   560  0498                     	;# 
   561  0499                     	;# 
   562  049A                     	;# 
   563  049B                     	;# 
   564  049B                     	;# 
   565  049C                     	;# 
   566  049D                     	;# 
   567  049E                     	;# 
   568  049F                     	;# 
   569  0611                     	;# 
   570  0612                     	;# 
   571  0613                     	;# 
   572  0613                     	;# 
   573  0614                     	;# 
   574  0615                     	;# 
   575  0616                     	;# 
   576  0616                     	;# 
   577  0617                     	;# 
   578  0618                     	;# 
   579  0619                     	;# 
   580  0619                     	;# 
   581  061A                     	;# 
   582  061B                     	;# 
   583  061C                     	;# 
   584  061C                     	;# 
   585  0691                     	;# 
   586  0692                     	;# 
   587  0693                     	;# 
   588  0694                     	;# 
   589  0695                     	;# 
   590  0F0F                     	;# 
   591  0F10                     	;# 
   592  0F11                     	;# 
   593  0F12                     	;# 
   594  0F13                     	;# 
   595  0F14                     	;# 
   596  0F15                     	;# 
   597  0F16                     	;# 
   598  0F17                     	;# 
   599  0F18                     	;# 
   600  0F19                     	;# 
   601  0F1A                     	;# 
   602  0F1B                     	;# 
   603  0F1C                     	;# 
   604  0F1D                     	;# 
   605  0F1E                     	;# 
   606  0F1F                     	;# 
   607  0F20                     	;# 
   608  0F21                     	;# 
   609  0F22                     	;# 
   610  0F23                     	;# 
   611  0F24                     	;# 
   612  0F25                     	;# 
   613  0F26                     	;# 
   614  0F27                     	;# 
   615  0F28                     	;# 
   616  0F29                     	;# 
   617  0F2A                     	;# 
   618  0F2B                     	;# 
   619  0F2C                     	;# 
   620  0F2D                     	;# 
   621  0F2E                     	;# 
   622  0F2F                     	;# 
   623  0F8C                     	;# 
   624  0F8D                     	;# 
   625  0F91                     	;# 
   626  0F95                     	;# 
   627  0F96                     	;# 
   628  0F97                     	;# 
   629  0F9C                     	;# 
   630  0F9D                     	;# 
   631  0F9E                     	;# 
   632  0FE3                     	;# 
   633  0FE4                     	;# 
   634  0FE5                     	;# 
   635  0FE6                     	;# 
   636  0FE7                     	;# 
   637  0FE8                     	;# 
   638  0FE9                     	;# 
   639  0FEA                     	;# 
   640  0FEB                     	;# 
   641  0FED                     	;# 
   642  0FEE                     	;# 
   643  0FEF                     	;# 
   644  0000                     	;# 
   645  0001                     	;# 
   646  0002                     	;# 
   647  0003                     	;# 
   648  0004                     	;# 
   649  0005                     	;# 
   650  0006                     	;# 
   651  0007                     	;# 
   652  0008                     	;# 
   653  0009                     	;# 
   654  000A                     	;# 
   655  000B                     	;# 
   656  000C                     	;# 
   657  000D                     	;# 
   658  000E                     	;# 
   659  0011                     	;# 
   660  0012                     	;# 
   661  0013                     	;# 
   662  0015                     	;# 
   663  0016                     	;# 
   664  0016                     	;# 
   665  0017                     	;# 
   666  0018                     	;# 
   667  0019                     	;# 
   668  001A                     	;# 
   669  001B                     	;# 
   670  001C                     	;# 
   671  008C                     	;# 
   672  008D                     	;# 
   673  008E                     	;# 
   674  0091                     	;# 
   675  0092                     	;# 
   676  0093                     	;# 
   677  0095                     	;# 
   678  0096                     	;# 
   679  0097                     	;# 
   680  0099                     	;# 
   681  009A                     	;# 
   682  009B                     	;# 
   683  009B                     	;# 
   684  009C                     	;# 
   685  009D                     	;# 
   686  009E                     	;# 
   687  009F                     	;# 
   688  010C                     	;# 
   689  010D                     	;# 
   690  010E                     	;# 
   691  0111                     	;# 
   692  0112                     	;# 
   693  0113                     	;# 
   694  0114                     	;# 
   695  0115                     	;# 
   696  0116                     	;# 
   697  0117                     	;# 
   698  0118                     	;# 
   699  0119                     	;# 
   700  011D                     	;# 
   701  018C                     	;# 
   702  018D                     	;# 
   703  018E                     	;# 
   704  0191                     	;# 
   705  0191                     	;# 
   706  0192                     	;# 
   707  0193                     	;# 
   708  0193                     	;# 
   709  0194                     	;# 
   710  0195                     	;# 
   711  0196                     	;# 
   712  0197                     	;# 
   713  0199                     	;# 
   714  019A                     	;# 
   715  019B                     	;# 
   716  019B                     	;# 
   717  019C                     	;# 
   718  019D                     	;# 
   719  019E                     	;# 
   720  019F                     	;# 
   721  020C                     	;# 
   722  020D                     	;# 
   723  0211                     	;# 
   724  0211                     	;# 
   725  0212                     	;# 
   726  0212                     	;# 
   727  0213                     	;# 
   728  0213                     	;# 
   729  0214                     	;# 
   730  0214                     	;# 
   731  0215                     	;# 
   732  0215                     	;# 
   733  0215                     	;# 
   734  0216                     	;# 
   735  0216                     	;# 
   736  0217                     	;# 
   737  0217                     	;# 
   738  0391                     	;# 
   739  0392                     	;# 
   740  0393                     	;# 
   741  0394                     	;# 
   742  0395                     	;# 
   743  0396                     	;# 
   744  0498                     	;# 
   745  0498                     	;# 
   746  0499                     	;# 
   747  049A                     	;# 
   748  049B                     	;# 
   749  049B                     	;# 
   750  049C                     	;# 
   751  049D                     	;# 
   752  049E                     	;# 
   753  049F                     	;# 
   754  0611                     	;# 
   755  0612                     	;# 
   756  0613                     	;# 
   757  0613                     	;# 
   758  0614                     	;# 
   759  0615                     	;# 
   760  0616                     	;# 
   761  0616                     	;# 
   762  0617                     	;# 
   763  0618                     	;# 
   764  0619                     	;# 
   765  0619                     	;# 
   766  061A                     	;# 
   767  061B                     	;# 
   768  061C                     	;# 
   769  061C                     	;# 
   770  0691                     	;# 
   771  0692                     	;# 
   772  0693                     	;# 
   773  0694                     	;# 
   774  0695                     	;# 
   775  0F0F                     	;# 
   776  0F10                     	;# 
   777  0F11                     	;# 
   778  0F12                     	;# 
   779  0F13                     	;# 
   780  0F14                     	;# 
   781  0F15                     	;# 
   782  0F16                     	;# 
   783  0F17                     	;# 
   784  0F18                     	;# 
   785  0F19                     	;# 
   786  0F1A                     	;# 
   787  0F1B                     	;# 
   788  0F1C                     	;# 
   789  0F1D                     	;# 
   790  0F1E                     	;# 
   791  0F1F                     	;# 
   792  0F20                     	;# 
   793  0F21                     	;# 
   794  0F22                     	;# 
   795  0F23                     	;# 
   796  0F24                     	;# 
   797  0F25                     	;# 
   798  0F26                     	;# 
   799  0F27                     	;# 
   800  0F28                     	;# 
   801  0F29                     	;# 
   802  0F2A                     	;# 
   803  0F2B                     	;# 
   804  0F2C                     	;# 
   805  0F2D                     	;# 
   806  0F2E                     	;# 
   807  0F2F                     	;# 
   808  0F8C                     	;# 
   809  0F8D                     	;# 
   810  0F91                     	;# 
   811  0F95                     	;# 
   812  0F96                     	;# 
   813  0F97                     	;# 
   814  0F9C                     	;# 
   815  0F9D                     	;# 
   816  0F9E                     	;# 
   817  0FE3                     	;# 
   818  0FE4                     	;# 
   819  0FE5                     	;# 
   820  0FE6                     	;# 
   821  0FE7                     	;# 
   822  0FE8                     	;# 
   823  0FE9                     	;# 
   824  0FEA                     	;# 
   825  0FEB                     	;# 
   826  0FED                     	;# 
   827  0FEE                     	;# 
   828  0FEF                     	;# 
   829  0000                     	;# 
   830  0001                     	;# 
   831  0002                     	;# 
   832  0003                     	;# 
   833  0004                     	;# 
   834  0005                     	;# 
   835  0006                     	;# 
   836  0007                     	;# 
   837  0008                     	;# 
   838  0009                     	;# 
   839  000A                     	;# 
   840  000B                     	;# 
   841  000C                     	;# 
   842  000D                     	;# 
   843  000E                     	;# 
   844  0011                     	;# 
   845  0012                     	;# 
   846  0013                     	;# 
   847  0015                     	;# 
   848  0016                     	;# 
   849  0016                     	;# 
   850  0017                     	;# 
   851  0018                     	;# 
   852  0019                     	;# 
   853  001A                     	;# 
   854  001B                     	;# 
   855  001C                     	;# 
   856  008C                     	;# 
   857  008D                     	;# 
   858  008E                     	;# 
   859  0091                     	;# 
   860  0092                     	;# 
   861  0093                     	;# 
   862  0095                     	;# 
   863  0096                     	;# 
   864  0097                     	;# 
   865  0099                     	;# 
   866  009A                     	;# 
   867  009B                     	;# 
   868  009B                     	;# 
   869  009C                     	;# 
   870  009D                     	;# 
   871  009E                     	;# 
   872  009F                     	;# 
   873  010C                     	;# 
   874  010D                     	;# 
   875  010E                     	;# 
   876  0111                     	;# 
   877  0112                     	;# 
   878  0113                     	;# 
   879  0114                     	;# 
   880  0115                     	;# 
   881  0116                     	;# 
   882  0117                     	;# 
   883  0118                     	;# 
   884  0119                     	;# 
   885  011D                     	;# 
   886  018C                     	;# 
   887  018D                     	;# 
   888  018E                     	;# 
   889  0191                     	;# 
   890  0191                     	;# 
   891  0192                     	;# 
   892  0193                     	;# 
   893  0193                     	;# 
   894  0194                     	;# 
   895  0195                     	;# 
   896  0196                     	;# 
   897  0197                     	;# 
   898  0199                     	;# 
   899  019A                     	;# 
   900  019B                     	;# 
   901  019B                     	;# 
   902  019C                     	;# 
   903  019D                     	;# 
   904  019E                     	;# 
   905  019F                     	;# 
   906  020C                     	;# 
   907  020D                     	;# 
   908  0211                     	;# 
   909  0211                     	;# 
   910  0212                     	;# 
   911  0212                     	;# 
   912  0213                     	;# 
   913  0213                     	;# 
   914  0214                     	;# 
   915  0214                     	;# 
   916  0215                     	;# 
   917  0215                     	;# 
   918  0215                     	;# 
   919  0216                     	;# 
   920  0216                     	;# 
   921  0217                     	;# 
   922  0217                     	;# 
   923  0391                     	;# 
   924  0392                     	;# 
   925  0393                     	;# 
   926  0394                     	;# 
   927  0395                     	;# 
   928  0396                     	;# 
   929  0498                     	;# 
   930  0498                     	;# 
   931  0499                     	;# 
   932  049A                     	;# 
   933  049B                     	;# 
   934  049B                     	;# 
   935  049C                     	;# 
   936  049D                     	;# 
   937  049E                     	;# 
   938  049F                     	;# 
   939  0611                     	;# 
   940  0612                     	;# 
   941  0613                     	;# 
   942  0613                     	;# 
   943  0614                     	;# 
   944  0615                     	;# 
   945  0616                     	;# 
   946  0616                     	;# 
   947  0617                     	;# 
   948  0618                     	;# 
   949  0619                     	;# 
   950  0619                     	;# 
   951  061A                     	;# 
   952  061B                     	;# 
   953  061C                     	;# 
   954  061C                     	;# 
   955  0691                     	;# 
   956  0692                     	;# 
   957  0693                     	;# 
   958  0694                     	;# 
   959  0695                     	;# 
   960  0F0F                     	;# 
   961  0F10                     	;# 
   962  0F11                     	;# 
   963  0F12                     	;# 
   964  0F13                     	;# 
   965  0F14                     	;# 
   966  0F15                     	;# 
   967  0F16                     	;# 
   968  0F17                     	;# 
   969  0F18                     	;# 
   970  0F19                     	;# 
   971  0F1A                     	;# 
   972  0F1B                     	;# 
   973  0F1C                     	;# 
   974  0F1D                     	;# 
   975  0F1E                     	;# 
   976  0F1F                     	;# 
   977  0F20                     	;# 
   978  0F21                     	;# 
   979  0F22                     	;# 
   980  0F23                     	;# 
   981  0F24                     	;# 
   982  0F25                     	;# 
   983  0F26                     	;# 
   984  0F27                     	;# 
   985  0F28                     	;# 
   986  0F29                     	;# 
   987  0F2A                     	;# 
   988  0F2B                     	;# 
   989  0F2C                     	;# 
   990  0F2D                     	;# 
   991  0F2E                     	;# 
   992  0F2F                     	;# 
   993  0F8C                     	;# 
   994  0F8D                     	;# 
   995  0F91                     	;# 
   996  0F95                     	;# 
   997  0F96                     	;# 
   998  0F97                     	;# 
   999  0F9C                     	;# 
  1000  0F9D                     	;# 
  1001  0F9E                     	;# 
  1002  0FE3                     	;# 
  1003  0FE4                     	;# 
  1004  0FE5                     	;# 
  1005  0FE6                     	;# 
  1006  0FE7                     	;# 
  1007  0FE8                     	;# 
  1008  0FE9                     	;# 
  1009  0FEA                     	;# 
  1010  0FEB                     	;# 
  1011  0FED                     	;# 
  1012  0FEE                     	;# 
  1013  0FEF                     	;# 
  1014  0000                     	;# 
  1015  0001                     	;# 
  1016  0002                     	;# 
  1017  0003                     	;# 
  1018  0004                     	;# 
  1019  0005                     	;# 
  1020  0006                     	;# 
  1021  0007                     	;# 
  1022  0008                     	;# 
  1023  0009                     	;# 
  1024  000A                     	;# 
  1025  000B                     	;# 
  1026  000C                     	;# 
  1027  000D                     	;# 
  1028  000E                     	;# 
  1029  0011                     	;# 
  1030  0012                     	;# 
  1031  0013                     	;# 
  1032  0015                     	;# 
  1033  0016                     	;# 
  1034  0016                     	;# 
  1035  0017                     	;# 
  1036  0018                     	;# 
  1037  0019                     	;# 
  1038  001A                     	;# 
  1039  001B                     	;# 
  1040  001C                     	;# 
  1041  008C                     	;# 
  1042  008D                     	;# 
  1043  008E                     	;# 
  1044  0091                     	;# 
  1045  0092                     	;# 
  1046  0093                     	;# 
  1047  0095                     	;# 
  1048  0096                     	;# 
  1049  0097                     	;# 
  1050  0099                     	;# 
  1051  009A                     	;# 
  1052  009B                     	;# 
  1053  009B                     	;# 
  1054  009C                     	;# 
  1055  009D                     	;# 
  1056  009E                     	;# 
  1057  009F                     	;# 
  1058  010C                     	;# 
  1059  010D                     	;# 
  1060  010E                     	;# 
  1061  0111                     	;# 
  1062  0112                     	;# 
  1063  0113                     	;# 
  1064  0114                     	;# 
  1065  0115                     	;# 
  1066  0116                     	;# 
  1067  0117                     	;# 
  1068  0118                     	;# 
  1069  0119                     	;# 
  1070  011D                     	;# 
  1071  018C                     	;# 
  1072  018D                     	;# 
  1073  018E                     	;# 
  1074  0191                     	;# 
  1075  0191                     	;# 
  1076  0192                     	;# 
  1077  0193                     	;# 
  1078  0193                     	;# 
  1079  0194                     	;# 
  1080  0195                     	;# 
  1081  0196                     	;# 
  1082  0197                     	;# 
  1083  0199                     	;# 
  1084  019A                     	;# 
  1085  019B                     	;# 
  1086  019B                     	;# 
  1087  019C                     	;# 
  1088  019D                     	;# 
  1089  019E                     	;# 
  1090  019F                     	;# 
  1091  020C                     	;# 
  1092  020D                     	;# 
  1093  0211                     	;# 
  1094  0211                     	;# 
  1095  0212                     	;# 
  1096  0212                     	;# 
  1097  0213                     	;# 
  1098  0213                     	;# 
  1099  0214                     	;# 
  1100  0214                     	;# 
  1101  0215                     	;# 
  1102  0215                     	;# 
  1103  0215                     	;# 
  1104  0216                     	;# 
  1105  0216                     	;# 
  1106  0217                     	;# 
  1107  0217                     	;# 
  1108  0391                     	;# 
  1109  0392                     	;# 
  1110  0393                     	;# 
  1111  0394                     	;# 
  1112  0395                     	;# 
  1113  0396                     	;# 
  1114  0498                     	;# 
  1115  0498                     	;# 
  1116  0499                     	;# 
  1117  049A                     	;# 
  1118  049B                     	;# 
  1119  049B                     	;# 
  1120  049C                     	;# 
  1121  049D                     	;# 
  1122  049E                     	;# 
  1123  049F                     	;# 
  1124  0611                     	;# 
  1125  0612                     	;# 
  1126  0613                     	;# 
  1127  0613                     	;# 
  1128  0614                     	;# 
  1129  0615                     	;# 
  1130  0616                     	;# 
  1131  0616                     	;# 
  1132  0617                     	;# 
  1133  0618                     	;# 
  1134  0619                     	;# 
  1135  0619                     	;# 
  1136  061A                     	;# 
  1137  061B                     	;# 
  1138  061C                     	;# 
  1139  061C                     	;# 
  1140  0691                     	;# 
  1141  0692                     	;# 
  1142  0693                     	;# 
  1143  0694                     	;# 
  1144  0695                     	;# 
  1145  0F0F                     	;# 
  1146  0F10                     	;# 
  1147  0F11                     	;# 
  1148  0F12                     	;# 
  1149  0F13                     	;# 
  1150  0F14                     	;# 
  1151  0F15                     	;# 
  1152  0F16                     	;# 
  1153  0F17                     	;# 
  1154  0F18                     	;# 
  1155  0F19                     	;# 
  1156  0F1A                     	;# 
  1157  0F1B                     	;# 
  1158  0F1C                     	;# 
  1159  0F1D                     	;# 
  1160  0F1E                     	;# 
  1161  0F1F                     	;# 
  1162  0F20                     	;# 
  1163  0F21                     	;# 
  1164  0F22                     	;# 
  1165  0F23                     	;# 
  1166  0F24                     	;# 
  1167  0F25                     	;# 
  1168  0F26                     	;# 
  1169  0F27                     	;# 
  1170  0F28                     	;# 
  1171  0F29                     	;# 
  1172  0F2A                     	;# 
  1173  0F2B                     	;# 
  1174  0F2C                     	;# 
  1175  0F2D                     	;# 
  1176  0F2E                     	;# 
  1177  0F2F                     	;# 
  1178  0F8C                     	;# 
  1179  0F8D                     	;# 
  1180  0F91                     	;# 
  1181  0F95                     	;# 
  1182  0F96                     	;# 
  1183  0F97                     	;# 
  1184  0F9C                     	;# 
  1185  0F9D                     	;# 
  1186  0F9E                     	;# 
  1187  0FE3                     	;# 
  1188  0FE4                     	;# 
  1189  0FE5                     	;# 
  1190  0FE6                     	;# 
  1191  0FE7                     	;# 
  1192  0FE8                     	;# 
  1193  0FE9                     	;# 
  1194  0FEA                     	;# 
  1195  0FEB                     	;# 
  1196  0FED                     	;# 
  1197  0FEE                     	;# 
  1198  0FEF                     	;# 
  1199  0000                     	;# 
  1200  0001                     	;# 
  1201  0002                     	;# 
  1202  0003                     	;# 
  1203  0004                     	;# 
  1204  0005                     	;# 
  1205  0006                     	;# 
  1206  0007                     	;# 
  1207  0008                     	;# 
  1208  0009                     	;# 
  1209  000A                     	;# 
  1210  000B                     	;# 
  1211  000C                     	;# 
  1212  000D                     	;# 
  1213  000E                     	;# 
  1214  0011                     	;# 
  1215  0012                     	;# 
  1216  0013                     	;# 
  1217  0015                     	;# 
  1218  0016                     	;# 
  1219  0016                     	;# 
  1220  0017                     	;# 
  1221  0018                     	;# 
  1222  0019                     	;# 
  1223  001A                     	;# 
  1224  001B                     	;# 
  1225  001C                     	;# 
  1226  008C                     	;# 
  1227  008D                     	;# 
  1228  008E                     	;# 
  1229  0091                     	;# 
  1230  0092                     	;# 
  1231  0093                     	;# 
  1232  0095                     	;# 
  1233  0096                     	;# 
  1234  0097                     	;# 
  1235  0099                     	;# 
  1236  009A                     	;# 
  1237  009B                     	;# 
  1238  009B                     	;# 
  1239  009C                     	;# 
  1240  009D                     	;# 
  1241  009E                     	;# 
  1242  009F                     	;# 
  1243  010C                     	;# 
  1244  010D                     	;# 
  1245  010E                     	;# 
  1246  0111                     	;# 
  1247  0112                     	;# 
  1248  0113                     	;# 
  1249  0114                     	;# 
  1250  0115                     	;# 
  1251  0116                     	;# 
  1252  0117                     	;# 
  1253  0118                     	;# 
  1254  0119                     	;# 
  1255  011D                     	;# 
  1256  018C                     	;# 
  1257  018D                     	;# 
  1258  018E                     	;# 
  1259  0191                     	;# 
  1260  0191                     	;# 
  1261  0192                     	;# 
  1262  0193                     	;# 
  1263  0193                     	;# 
  1264  0194                     	;# 
  1265  0195                     	;# 
  1266  0196                     	;# 
  1267  0197                     	;# 
  1268  0199                     	;# 
  1269  019A                     	;# 
  1270  019B                     	;# 
  1271  019B                     	;# 
  1272  019C                     	;# 
  1273  019D                     	;# 
  1274  019E                     	;# 
  1275  019F                     	;# 
  1276  020C                     	;# 
  1277  020D                     	;# 
  1278  0211                     	;# 
  1279  0211                     	;# 
  1280  0212                     	;# 
  1281  0212                     	;# 
  1282  0213                     	;# 
  1283  0213                     	;# 
  1284  0214                     	;# 
  1285  0214                     	;# 
  1286  0215                     	;# 
  1287  0215                     	;# 
  1288  0215                     	;# 
  1289  0216                     	;# 
  1290  0216                     	;# 
  1291  0217                     	;# 
  1292  0217                     	;# 
  1293  0391                     	;# 
  1294  0392                     	;# 
  1295  0393                     	;# 
  1296  0394                     	;# 
  1297  0395                     	;# 
  1298  0396                     	;# 
  1299  0498                     	;# 
  1300  0498                     	;# 
  1301  0499                     	;# 
  1302  049A                     	;# 
  1303  049B                     	;# 
  1304  049B                     	;# 
  1305  049C                     	;# 
  1306  049D                     	;# 
  1307  049E                     	;# 
  1308  049F                     	;# 
  1309  0611                     	;# 
  1310  0612                     	;# 
  1311  0613                     	;# 
  1312  0613                     	;# 
  1313  0614                     	;# 
  1314  0615                     	;# 
  1315  0616                     	;# 
  1316  0616                     	;# 
  1317  0617                     	;# 
  1318  0618                     	;# 
  1319  0619                     	;# 
  1320  0619                     	;# 
  1321  061A                     	;# 
  1322  061B                     	;# 
  1323  061C                     	;# 
  1324  061C                     	;# 
  1325  0691                     	;# 
  1326  0692                     	;# 
  1327  0693                     	;# 
  1328  0694                     	;# 
  1329  0695                     	;# 
  1330  0F0F                     	;# 
  1331  0F10                     	;# 
  1332  0F11                     	;# 
  1333  0F12                     	;# 
  1334  0F13                     	;# 
  1335  0F14                     	;# 
  1336  0F15                     	;# 
  1337  0F16                     	;# 
  1338  0F17                     	;# 
  1339  0F18                     	;# 
  1340  0F19                     	;# 
  1341  0F1A                     	;# 
  1342  0F1B                     	;# 
  1343  0F1C                     	;# 
  1344  0F1D                     	;# 
  1345  0F1E                     	;# 
  1346  0F1F                     	;# 
  1347  0F20                     	;# 
  1348  0F21                     	;# 
  1349  0F22                     	;# 
  1350  0F23                     	;# 
  1351  0F24                     	;# 
  1352  0F25                     	;# 
  1353  0F26                     	;# 
  1354  0F27                     	;# 
  1355  0F28                     	;# 
  1356  0F29                     	;# 
  1357  0F2A                     	;# 
  1358  0F2B                     	;# 
  1359  0F2C                     	;# 
  1360  0F2D                     	;# 
  1361  0F2E                     	;# 
  1362  0F2F                     	;# 
  1363  0F8C                     	;# 
  1364  0F8D                     	;# 
  1365  0F91                     	;# 
  1366  0F95                     	;# 
  1367  0F96                     	;# 
  1368  0F97                     	;# 
  1369  0F9C                     	;# 
  1370  0F9D                     	;# 
  1371  0F9E                     	;# 
  1372  0FE3                     	;# 
  1373  0FE4                     	;# 
  1374  0FE5                     	;# 
  1375  0FE6                     	;# 
  1376  0FE7                     	;# 
  1377  0FE8                     	;# 
  1378  0FE9                     	;# 
  1379  0FEA                     	;# 
  1380  0FEB                     	;# 
  1381  0FED                     	;# 
  1382  0FEE                     	;# 
  1383  0FEF                     	;# 
  1384  0000                     	;# 
  1385  0001                     	;# 
  1386  0002                     	;# 
  1387  0003                     	;# 
  1388  0004                     	;# 
  1389  0005                     	;# 
  1390  0006                     	;# 
  1391  0007                     	;# 
  1392  0008                     	;# 
  1393  0009                     	;# 
  1394  000A                     	;# 
  1395  000B                     	;# 
  1396  000C                     	;# 
  1397  000D                     	;# 
  1398  000E                     	;# 
  1399  0011                     	;# 
  1400  0012                     	;# 
  1401  0013                     	;# 
  1402  0015                     	;# 
  1403  0016                     	;# 
  1404  0016                     	;# 
  1405  0017                     	;# 
  1406  0018                     	;# 
  1407  0019                     	;# 
  1408  001A                     	;# 
  1409  001B                     	;# 
  1410  001C                     	;# 
  1411  008C                     	;# 
  1412  008D                     	;# 
  1413  008E                     	;# 
  1414  0091                     	;# 
  1415  0092                     	;# 
  1416  0093                     	;# 
  1417  0095                     	;# 
  1418  0096                     	;# 
  1419  0097                     	;# 
  1420  0099                     	;# 
  1421  009A                     	;# 
  1422  009B                     	;# 
  1423  009B                     	;# 
  1424  009C                     	;# 
  1425  009D                     	;# 
  1426  009E                     	;# 
  1427  009F                     	;# 
  1428  010C                     	;# 
  1429  010D                     	;# 
  1430  010E                     	;# 
  1431  0111                     	;# 
  1432  0112                     	;# 
  1433  0113                     	;# 
  1434  0114                     	;# 
  1435  0115                     	;# 
  1436  0116                     	;# 
  1437  0117                     	;# 
  1438  0118                     	;# 
  1439  0119                     	;# 
  1440  011D                     	;# 
  1441  018C                     	;# 
  1442  018D                     	;# 
  1443  018E                     	;# 
  1444  0191                     	;# 
  1445  0191                     	;# 
  1446  0192                     	;# 
  1447  0193                     	;# 
  1448  0193                     	;# 
  1449  0194                     	;# 
  1450  0195                     	;# 
  1451  0196                     	;# 
  1452  0197                     	;# 
  1453  0199                     	;# 
  1454  019A                     	;# 
  1455  019B                     	;# 
  1456  019B                     	;# 
  1457  019C                     	;# 
  1458  019D                     	;# 
  1459  019E                     	;# 
  1460  019F                     	;# 
  1461  020C                     	;# 
  1462  020D                     	;# 
  1463  0211                     	;# 
  1464  0211                     	;# 
  1465  0212                     	;# 
  1466  0212                     	;# 
  1467  0213                     	;# 
  1468  0213                     	;# 
  1469  0214                     	;# 
  1470  0214                     	;# 
  1471  0215                     	;# 
  1472  0215                     	;# 
  1473  0215                     	;# 
  1474  0216                     	;# 
  1475  0216                     	;# 
  1476  0217                     	;# 
  1477  0217                     	;# 
  1478  0391                     	;# 
  1479  0392                     	;# 
  1480  0393                     	;# 
  1481  0394                     	;# 
  1482  0395                     	;# 
  1483  0396                     	;# 
  1484  0498                     	;# 
  1485  0498                     	;# 
  1486  0499                     	;# 
  1487  049A                     	;# 
  1488  049B                     	;# 
  1489  049B                     	;# 
  1490  049C                     	;# 
  1491  049D                     	;# 
  1492  049E                     	;# 
  1493  049F                     	;# 
  1494  0611                     	;# 
  1495  0612                     	;# 
  1496  0613                     	;# 
  1497  0613                     	;# 
  1498  0614                     	;# 
  1499  0615                     	;# 
  1500  0616                     	;# 
  1501  0616                     	;# 
  1502  0617                     	;# 
  1503  0618                     	;# 
  1504  0619                     	;# 
  1505  0619                     	;# 
  1506  061A                     	;# 
  1507  061B                     	;# 
  1508  061C                     	;# 
  1509  061C                     	;# 
  1510  0691                     	;# 
  1511  0692                     	;# 
  1512  0693                     	;# 
  1513  0694                     	;# 
  1514  0695                     	;# 
  1515  0F0F                     	;# 
  1516  0F10                     	;# 
  1517  0F11                     	;# 
  1518  0F12                     	;# 
  1519  0F13                     	;# 
  1520  0F14                     	;# 
  1521  0F15                     	;# 
  1522  0F16                     	;# 
  1523  0F17                     	;# 
  1524  0F18                     	;# 
  1525  0F19                     	;# 
  1526  0F1A                     	;# 
  1527  0F1B                     	;# 
  1528  0F1C                     	;# 
  1529  0F1D                     	;# 
  1530  0F1E                     	;# 
  1531  0F1F                     	;# 
  1532  0F20                     	;# 
  1533  0F21                     	;# 
  1534  0F22                     	;# 
  1535  0F23                     	;# 
  1536  0F24                     	;# 
  1537  0F25                     	;# 
  1538  0F26                     	;# 
  1539  0F27                     	;# 
  1540  0F28                     	;# 
  1541  0F29                     	;# 
  1542  0F2A                     	;# 
  1543  0F2B                     	;# 
  1544  0F2C                     	;# 
  1545  0F2D                     	;# 
  1546  0F2E                     	;# 
  1547  0F2F                     	;# 
  1548  0F8C                     	;# 
  1549  0F8D                     	;# 
  1550  0F91                     	;# 
  1551  0F95                     	;# 
  1552  0F96                     	;# 
  1553  0F97                     	;# 
  1554  0F9C                     	;# 
  1555  0F9D                     	;# 
  1556  0F9E                     	;# 
  1557  0FE3                     	;# 
  1558  0FE4                     	;# 
  1559  0FE5                     	;# 
  1560  0FE6                     	;# 
  1561  0FE7                     	;# 
  1562  0FE8                     	;# 
  1563  0FE9                     	;# 
  1564  0FEA                     	;# 
  1565  0FEB                     	;# 
  1566  0FED                     	;# 
  1567  0FEE                     	;# 
  1568  0FEF                     	;# 
  1569  0000                     	;# 
  1570  0001                     	;# 
  1571  0002                     	;# 
  1572  0003                     	;# 
  1573  0004                     	;# 
  1574  0005                     	;# 
  1575  0006                     	;# 
  1576  0007                     	;# 
  1577  0008                     	;# 
  1578  0009                     	;# 
  1579  000A                     	;# 
  1580  000B                     	;# 
  1581  000C                     	;# 
  1582  000D                     	;# 
  1583  000E                     	;# 
  1584  0011                     	;# 
  1585  0012                     	;# 
  1586  0013                     	;# 
  1587  0015                     	;# 
  1588  0016                     	;# 
  1589  0016                     	;# 
  1590  0017                     	;# 
  1591  0018                     	;# 
  1592  0019                     	;# 
  1593  001A                     	;# 
  1594  001B                     	;# 
  1595  001C                     	;# 
  1596  008C                     	;# 
  1597  008D                     	;# 
  1598  008E                     	;# 
  1599  0091                     	;# 
  1600  0092                     	;# 
  1601  0093                     	;# 
  1602  0095                     	;# 
  1603  0096                     	;# 
  1604  0097                     	;# 
  1605  0099                     	;# 
  1606  009A                     	;# 
  1607  009B                     	;# 
  1608  009B                     	;# 
  1609  009C                     	;# 
  1610  009D                     	;# 
  1611  009E                     	;# 
  1612  009F                     	;# 
  1613  010C                     	;# 
  1614  010D                     	;# 
  1615  010E                     	;# 
  1616  0111                     	;# 
  1617  0112                     	;# 
  1618  0113                     	;# 
  1619  0114                     	;# 
  1620  0115                     	;# 
  1621  0116                     	;# 
  1622  0117                     	;# 
  1623  0118                     	;# 
  1624  0119                     	;# 
  1625  011D                     	;# 
  1626  018C                     	;# 
  1627  018D                     	;# 
  1628  018E                     	;# 
  1629  0191                     	;# 
  1630  0191                     	;# 
  1631  0192                     	;# 
  1632  0193                     	;# 
  1633  0193                     	;# 
  1634  0194                     	;# 
  1635  0195                     	;# 
  1636  0196                     	;# 
  1637  0197                     	;# 
  1638  0199                     	;# 
  1639  019A                     	;# 
  1640  019B                     	;# 
  1641  019B                     	;# 
  1642  019C                     	;# 
  1643  019D                     	;# 
  1644  019E                     	;# 
  1645  019F                     	;# 
  1646  020C                     	;# 
  1647  020D                     	;# 
  1648  0211                     	;# 
  1649  0211                     	;# 
  1650  0212                     	;# 
  1651  0212                     	;# 
  1652  0213                     	;# 
  1653  0213                     	;# 
  1654  0214                     	;# 
  1655  0214                     	;# 
  1656  0215                     	;# 
  1657  0215                     	;# 
  1658  0215                     	;# 
  1659  0216                     	;# 
  1660  0216                     	;# 
  1661  0217                     	;# 
  1662  0217                     	;# 
  1663  0391                     	;# 
  1664  0392                     	;# 
  1665  0393                     	;# 
  1666  0394                     	;# 
  1667  0395                     	;# 
  1668  0396                     	;# 
  1669  0498                     	;# 
  1670  0498                     	;# 
  1671  0499                     	;# 
  1672  049A                     	;# 
  1673  049B                     	;# 
  1674  049B                     	;# 
  1675  049C                     	;# 
  1676  049D                     	;# 
  1677  049E                     	;# 
  1678  049F                     	;# 
  1679  0611                     	;# 
  1680  0612                     	;# 
  1681  0613                     	;# 
  1682  0613                     	;# 
  1683  0614                     	;# 
  1684  0615                     	;# 
  1685  0616                     	;# 
  1686  0616                     	;# 
  1687  0617                     	;# 
  1688  0618                     	;# 
  1689  0619                     	;# 
  1690  0619                     	;# 
  1691  061A                     	;# 
  1692  061B                     	;# 
  1693  061C                     	;# 
  1694  061C                     	;# 
  1695  0691                     	;# 
  1696  0692                     	;# 
  1697  0693                     	;# 
  1698  0694                     	;# 
  1699  0695                     	;# 
  1700  0F0F                     	;# 
  1701  0F10                     	;# 
  1702  0F11                     	;# 
  1703  0F12                     	;# 
  1704  0F13                     	;# 
  1705  0F14                     	;# 
  1706  0F15                     	;# 
  1707  0F16                     	;# 
  1708  0F17                     	;# 
  1709  0F18                     	;# 
  1710  0F19                     	;# 
  1711  0F1A                     	;# 
  1712  0F1B                     	;# 
  1713  0F1C                     	;# 
  1714  0F1D                     	;# 
  1715  0F1E                     	;# 
  1716  0F1F                     	;# 
  1717  0F20                     	;# 
  1718  0F21                     	;# 
  1719  0F22                     	;# 
  1720  0F23                     	;# 
  1721  0F24                     	;# 
  1722  0F25                     	;# 
  1723  0F26                     	;# 
  1724  0F27                     	;# 
  1725  0F28                     	;# 
  1726  0F29                     	;# 
  1727  0F2A                     	;# 
  1728  0F2B                     	;# 
  1729  0F2C                     	;# 
  1730  0F2D                     	;# 
  1731  0F2E                     	;# 
  1732  0F2F                     	;# 
  1733  0F8C                     	;# 
  1734  0F8D                     	;# 
  1735  0F91                     	;# 
  1736  0F95                     	;# 
  1737  0F96                     	;# 
  1738  0F97                     	;# 
  1739  0F9C                     	;# 
  1740  0F9D                     	;# 
  1741  0F9E                     	;# 
  1742  0FE3                     	;# 
  1743  0FE4                     	;# 
  1744  0FE5                     	;# 
  1745  0FE6                     	;# 
  1746  0FE7                     	;# 
  1747  0FE8                     	;# 
  1748  0FE9                     	;# 
  1749  0FEA                     	;# 
  1750  0FEB                     	;# 
  1751  0FED                     	;# 
  1752  0FEE                     	;# 
  1753  0FEF                     	;# 
  1754  0000                     	;# 
  1755  0001                     	;# 
  1756  0002                     	;# 
  1757  0003                     	;# 
  1758  0004                     	;# 
  1759  0005                     	;# 
  1760  0006                     	;# 
  1761  0007                     	;# 
  1762  0008                     	;# 
  1763  0009                     	;# 
  1764  000A                     	;# 
  1765  000B                     	;# 
  1766  000C                     	;# 
  1767  000D                     	;# 
  1768  000E                     	;# 
  1769  0011                     	;# 
  1770  0012                     	;# 
  1771  0013                     	;# 
  1772  0015                     	;# 
  1773  0016                     	;# 
  1774  0016                     	;# 
  1775  0017                     	;# 
  1776  0018                     	;# 
  1777  0019                     	;# 
  1778  001A                     	;# 
  1779  001B                     	;# 
  1780  001C                     	;# 
  1781  008C                     	;# 
  1782  008D                     	;# 
  1783  008E                     	;# 
  1784  0091                     	;# 
  1785  0092                     	;# 
  1786  0093                     	;# 
  1787  0095                     	;# 
  1788  0096                     	;# 
  1789  0097                     	;# 
  1790  0099                     	;# 
  1791  009A                     	;# 
  1792  009B                     	;# 
  1793  009B                     	;# 
  1794  009C                     	;# 
  1795  009D                     	;# 
  1796  009E                     	;# 
  1797  009F                     	;# 
  1798  010C                     	;# 
  1799  010D                     	;# 
  1800  010E                     	;# 
  1801  0111                     	;# 
  1802  0112                     	;# 
  1803  0113                     	;# 
  1804  0114                     	;# 
  1805  0115                     	;# 
  1806  0116                     	;# 
  1807  0117                     	;# 
  1808  0118                     	;# 
  1809  0119                     	;# 
  1810  011D                     	;# 
  1811  018C                     	;# 
  1812  018D                     	;# 
  1813  018E                     	;# 
  1814  0191                     	;# 
  1815  0191                     	;# 
  1816  0192                     	;# 
  1817  0193                     	;# 
  1818  0193                     	;# 
  1819  0194                     	;# 
  1820  0195                     	;# 
  1821  0196                     	;# 
  1822  0197                     	;# 
  1823  0199                     	;# 
  1824  019A                     	;# 
  1825  019B                     	;# 
  1826  019B                     	;# 
  1827  019C                     	;# 
  1828  019D                     	;# 
  1829  019E                     	;# 
  1830  019F                     	;# 
  1831  020C                     	;# 
  1832  020D                     	;# 
  1833  0211                     	;# 
  1834  0211                     	;# 
  1835  0212                     	;# 
  1836  0212                     	;# 
  1837  0213                     	;# 
  1838  0213                     	;# 
  1839  0214                     	;# 
  1840  0214                     	;# 
  1841  0215                     	;# 
  1842  0215                     	;# 
  1843  0215                     	;# 
  1844  0216                     	;# 
  1845  0216                     	;# 
  1846  0217                     	;# 
  1847  0217                     	;# 
  1848  0391                     	;# 
  1849  0392                     	;# 
  1850  0393                     	;# 
  1851  0394                     	;# 
  1852  0395                     	;# 
  1853  0396                     	;# 
  1854  0498                     	;# 
  1855  0498                     	;# 
  1856  0499                     	;# 
  1857  049A                     	;# 
  1858  049B                     	;# 
  1859  049B                     	;# 
  1860  049C                     	;# 
  1861  049D                     	;# 
  1862  049E                     	;# 
  1863  049F                     	;# 
  1864  0611                     	;# 
  1865  0612                     	;# 
  1866  0613                     	;# 
  1867  0613                     	;# 
  1868  0614                     	;# 
  1869  0615                     	;# 
  1870  0616                     	;# 
  1871  0616                     	;# 
  1872  0617                     	;# 
  1873  0618                     	;# 
  1874  0619                     	;# 
  1875  0619                     	;# 
  1876  061A                     	;# 
  1877  061B                     	;# 
  1878  061C                     	;# 
  1879  061C                     	;# 
  1880  0691                     	;# 
  1881  0692                     	;# 
  1882  0693                     	;# 
  1883  0694                     	;# 
  1884  0695                     	;# 
  1885  0F0F                     	;# 
  1886  0F10                     	;# 
  1887  0F11                     	;# 
  1888  0F12                     	;# 
  1889  0F13                     	;# 
  1890  0F14                     	;# 
  1891  0F15                     	;# 
  1892  0F16                     	;# 
  1893  0F17                     	;# 
  1894  0F18                     	;# 
  1895  0F19                     	;# 
  1896  0F1A                     	;# 
  1897  0F1B                     	;# 
  1898  0F1C                     	;# 
  1899  0F1D                     	;# 
  1900  0F1E                     	;# 
  1901  0F1F                     	;# 
  1902  0F20                     	;# 
  1903  0F21                     	;# 
  1904  0F22                     	;# 
  1905  0F23                     	;# 
  1906  0F24                     	;# 
  1907  0F25                     	;# 
  1908  0F26                     	;# 
  1909  0F27                     	;# 
  1910  0F28                     	;# 
  1911  0F29                     	;# 
  1912  0F2A                     	;# 
  1913  0F2B                     	;# 
  1914  0F2C                     	;# 
  1915  0F2D                     	;# 
  1916  0F2E                     	;# 
  1917  0F2F                     	;# 
  1918  0F8C                     	;# 
  1919  0F8D                     	;# 
  1920  0F91                     	;# 
  1921  0F95                     	;# 
  1922  0F96                     	;# 
  1923  0F97                     	;# 
  1924  0F9C                     	;# 
  1925  0F9D                     	;# 
  1926  0F9E                     	;# 
  1927  0FE3                     	;# 
  1928  0FE4                     	;# 
  1929  0FE5                     	;# 
  1930  0FE6                     	;# 
  1931  0FE7                     	;# 
  1932  0FE8                     	;# 
  1933  0FE9                     	;# 
  1934  0FEA                     	;# 
  1935  0FEB                     	;# 
  1936  0FED                     	;# 
  1937  0FEE                     	;# 
  1938  0FEF                     	;# 
  1939  0000                     	;# 
  1940  0001                     	;# 
  1941  0002                     	;# 
  1942  0003                     	;# 
  1943  0004                     	;# 
  1944  0005                     	;# 
  1945  0006                     	;# 
  1946  0007                     	;# 
  1947  0008                     	;# 
  1948  0009                     	;# 
  1949  000A                     	;# 
  1950  000B                     	;# 
  1951  000C                     	;# 
  1952  000D                     	;# 
  1953  000E                     	;# 
  1954  0011                     	;# 
  1955  0012                     	;# 
  1956  0013                     	;# 
  1957  0015                     	;# 
  1958  0016                     	;# 
  1959  0016                     	;# 
  1960  0017                     	;# 
  1961  0018                     	;# 
  1962  0019                     	;# 
  1963  001A                     	;# 
  1964  001B                     	;# 
  1965  001C                     	;# 
  1966  008C                     	;# 
  1967  008D                     	;# 
  1968  008E                     	;# 
  1969  0091                     	;# 
  1970  0092                     	;# 
  1971  0093                     	;# 
  1972  0095                     	;# 
  1973  0096                     	;# 
  1974  0097                     	;# 
  1975  0099                     	;# 
  1976  009A                     	;# 
  1977  009B                     	;# 
  1978  009B                     	;# 
  1979  009C                     	;# 
  1980  009D                     	;# 
  1981  009E                     	;# 
  1982  009F                     	;# 
  1983  010C                     	;# 
  1984  010D                     	;# 
  1985  010E                     	;# 
  1986  0111                     	;# 
  1987  0112                     	;# 
  1988  0113                     	;# 
  1989  0114                     	;# 
  1990  0115                     	;# 
  1991  0116                     	;# 
  1992  0117                     	;# 
  1993  0118                     	;# 
  1994  0119                     	;# 
  1995  011D                     	;# 
  1996  018C                     	;# 
  1997  018D                     	;# 
  1998  018E                     	;# 
  1999  0191                     	;# 
  2000  0191                     	;# 
  2001  0192                     	;# 
  2002  0193                     	;# 
  2003  0193                     	;# 
  2004  0194                     	;# 
  2005  0195                     	;# 
  2006  0196                     	;# 
  2007  0197                     	;# 
  2008  0199                     	;# 
  2009  019A                     	;# 
  2010  019B                     	;# 
  2011  019B                     	;# 
  2012  019C                     	;# 
  2013  019D                     	;# 
  2014  019E                     	;# 
  2015  019F                     	;# 
  2016  020C                     	;# 
  2017  020D                     	;# 
  2018  0211                     	;# 
  2019  0211                     	;# 
  2020  0212                     	;# 
  2021  0212                     	;# 
  2022  0213                     	;# 
  2023  0213                     	;# 
  2024  0214                     	;# 
  2025  0214                     	;# 
  2026  0215                     	;# 
  2027  0215                     	;# 
  2028  0215                     	;# 
  2029  0216                     	;# 
  2030  0216                     	;# 
  2031  0217                     	;# 
  2032  0217                     	;# 
  2033  0391                     	;# 
  2034  0392                     	;# 
  2035  0393                     	;# 
  2036  0394                     	;# 
  2037  0395                     	;# 
  2038  0396                     	;# 
  2039  0498                     	;# 
  2040  0498                     	;# 
  2041  0499                     	;# 
  2042  049A                     	;# 
  2043  049B                     	;# 
  2044  049B                     	;# 
  2045  049C                     	;# 
  2046  049D                     	;# 
  2047  049E                     	;# 
  2048  049F                     	;# 
  2049  0611                     	;# 
  2050  0612                     	;# 
  2051  0613                     	;# 
  2052  0613                     	;# 
  2053  0614                     	;# 
  2054  0615                     	;# 
  2055  0616                     	;# 
  2056  0616                     	;# 
  2057  0617                     	;# 
  2058  0618                     	;# 
  2059  0619                     	;# 
  2060  0619                     	;# 
  2061  061A                     	;# 
  2062  061B                     	;# 
  2063  061C                     	;# 
  2064  061C                     	;# 
  2065  0691                     	;# 
  2066  0692                     	;# 
  2067  0693                     	;# 
  2068  0694                     	;# 
  2069  0695                     	;# 
  2070  0F0F                     	;# 
  2071  0F10                     	;# 
  2072  0F11                     	;# 
  2073  0F12                     	;# 
  2074  0F13                     	;# 
  2075  0F14                     	;# 
  2076  0F15                     	;# 
  2077  0F16                     	;# 
  2078  0F17                     	;# 
  2079  0F18                     	;# 
  2080  0F19                     	;# 
  2081  0F1A                     	;# 
  2082  0F1B                     	;# 
  2083  0F1C                     	;# 
  2084  0F1D                     	;# 
  2085  0F1E                     	;# 
  2086  0F1F                     	;# 
  2087  0F20                     	;# 
  2088  0F21                     	;# 
  2089  0F22                     	;# 
  2090  0F23                     	;# 
  2091  0F24                     	;# 
  2092  0F25                     	;# 
  2093  0F26                     	;# 
  2094  0F27                     	;# 
  2095  0F28                     	;# 
  2096  0F29                     	;# 
  2097  0F2A                     	;# 
  2098  0F2B                     	;# 
  2099  0F2C                     	;# 
  2100  0F2D                     	;# 
  2101  0F2E                     	;# 
  2102  0F2F                     	;# 
  2103  0F8C                     	;# 
  2104  0F8D                     	;# 
  2105  0F91                     	;# 
  2106  0F95                     	;# 
  2107  0F96                     	;# 
  2108  0F97                     	;# 
  2109  0F9C                     	;# 
  2110  0F9D                     	;# 
  2111  0F9E                     	;# 
  2112  0FE3                     	;# 
  2113  0FE4                     	;# 
  2114  0FE5                     	;# 
  2115  0FE6                     	;# 
  2116  0FE7                     	;# 
  2117  0FE8                     	;# 
  2118  0FE9                     	;# 
  2119  0FEA                     	;# 
  2120  0FEB                     	;# 
  2121  0FED                     	;# 
  2122  0FEE                     	;# 
  2123  0FEF                     	;# 
  2124  0000                     	;# 
  2125  0001                     	;# 
  2126  0002                     	;# 
  2127  0003                     	;# 
  2128  0004                     	;# 
  2129  0005                     	;# 
  2130  0006                     	;# 
  2131  0007                     	;# 
  2132  0008                     	;# 
  2133  0009                     	;# 
  2134  000A                     	;# 
  2135  000B                     	;# 
  2136  000C                     	;# 
  2137  000D                     	;# 
  2138  000E                     	;# 
  2139  0011                     	;# 
  2140  0012                     	;# 
  2141  0013                     	;# 
  2142  0015                     	;# 
  2143  0016                     	;# 
  2144  0016                     	;# 
  2145  0017                     	;# 
  2146  0018                     	;# 
  2147  0019                     	;# 
  2148  001A                     	;# 
  2149  001B                     	;# 
  2150  001C                     	;# 
  2151  008C                     	;# 
  2152  008D                     	;# 
  2153  008E                     	;# 
  2154  0091                     	;# 
  2155  0092                     	;# 
  2156  0093                     	;# 
  2157  0095                     	;# 
  2158  0096                     	;# 
  2159  0097                     	;# 
  2160  0099                     	;# 
  2161  009A                     	;# 
  2162  009B                     	;# 
  2163  009B                     	;# 
  2164  009C                     	;# 
  2165  009D                     	;# 
  2166  009E                     	;# 
  2167  009F                     	;# 
  2168  010C                     	;# 
  2169  010D                     	;# 
  2170  010E                     	;# 
  2171  0111                     	;# 
  2172  0112                     	;# 
  2173  0113                     	;# 
  2174  0114                     	;# 
  2175  0115                     	;# 
  2176  0116                     	;# 
  2177  0117                     	;# 
  2178  0118                     	;# 
  2179  0119                     	;# 
  2180  011D                     	;# 
  2181  018C                     	;# 
  2182  018D                     	;# 
  2183  018E                     	;# 
  2184  0191                     	;# 
  2185  0191                     	;# 
  2186  0192                     	;# 
  2187  0193                     	;# 
  2188  0193                     	;# 
  2189  0194                     	;# 
  2190  0195                     	;# 
  2191  0196                     	;# 
  2192  0197                     	;# 
  2193  0199                     	;# 
  2194  019A                     	;# 
  2195  019B                     	;# 
  2196  019B                     	;# 
  2197  019C                     	;# 
  2198  019D                     	;# 
  2199  019E                     	;# 
  2200  019F                     	;# 
  2201  020C                     	;# 
  2202  020D                     	;# 
  2203  0211                     	;# 
  2204  0211                     	;# 
  2205  0212                     	;# 
  2206  0212                     	;# 
  2207  0213                     	;# 
  2208  0213                     	;# 
  2209  0214                     	;# 
  2210  0214                     	;# 
  2211  0215                     	;# 
  2212  0215                     	;# 
  2213  0215                     	;# 
  2214  0216                     	;# 
  2215  0216                     	;# 
  2216  0217                     	;# 
  2217  0217                     	;# 
  2218  0391                     	;# 
  2219  0392                     	;# 
  2220  0393                     	;# 
  2221  0394                     	;# 
  2222  0395                     	;# 
  2223  0396                     	;# 
  2224  0498                     	;# 
  2225  0498                     	;# 
  2226  0499                     	;# 
  2227  049A                     	;# 
  2228  049B                     	;# 
  2229  049B                     	;# 
  2230  049C                     	;# 
  2231  049D                     	;# 
  2232  049E                     	;# 
  2233  049F                     	;# 
  2234  0611                     	;# 
  2235  0612                     	;# 
  2236  0613                     	;# 
  2237  0613                     	;# 
  2238  0614                     	;# 
  2239  0615                     	;# 
  2240  0616                     	;# 
  2241  0616                     	;# 
  2242  0617                     	;# 
  2243  0618                     	;# 
  2244  0619                     	;# 
  2245  0619                     	;# 
  2246  061A                     	;# 
  2247  061B                     	;# 
  2248  061C                     	;# 
  2249  061C                     	;# 
  2250  0691                     	;# 
  2251  0692                     	;# 
  2252  0693                     	;# 
  2253  0694                     	;# 
  2254  0695                     	;# 
  2255  0F0F                     	;# 
  2256  0F10                     	;# 
  2257  0F11                     	;# 
  2258  0F12                     	;# 
  2259  0F13                     	;# 
  2260  0F14                     	;# 
  2261  0F15                     	;# 
  2262  0F16                     	;# 
  2263  0F17                     	;# 
  2264  0F18                     	;# 
  2265  0F19                     	;# 
  2266  0F1A                     	;# 
  2267  0F1B                     	;# 
  2268  0F1C                     	;# 
  2269  0F1D                     	;# 
  2270  0F1E                     	;# 
  2271  0F1F                     	;# 
  2272  0F20                     	;# 
  2273  0F21                     	;# 
  2274  0F22                     	;# 
  2275  0F23                     	;# 
  2276  0F24                     	;# 
  2277  0F25                     	;# 
  2278  0F26                     	;# 
  2279  0F27                     	;# 
  2280  0F28                     	;# 
  2281  0F29                     	;# 
  2282  0F2A                     	;# 
  2283  0F2B                     	;# 
  2284  0F2C                     	;# 
  2285  0F2D                     	;# 
  2286  0F2E                     	;# 
  2287  0F2F                     	;# 
  2288  0F8C                     	;# 
  2289  0F8D                     	;# 
  2290  0F91                     	;# 
  2291  0F95                     	;# 
  2292  0F96                     	;# 
  2293  0F97                     	;# 
  2294  0F9C                     	;# 
  2295  0F9D                     	;# 
  2296  0F9E                     	;# 
  2297  0FE3                     	;# 
  2298  0FE4                     	;# 
  2299  0FE5                     	;# 
  2300  0FE6                     	;# 
  2301  0FE7                     	;# 
  2302  0FE8                     	;# 
  2303  0FE9                     	;# 
  2304  0FEA                     	;# 
  2305  0FEB                     	;# 
  2306  0FED                     	;# 
  2307  0FEE                     	;# 
  2308  0FEF                     	;# 
  2309  0000                     	;# 
  2310  0001                     	;# 
  2311  0002                     	;# 
  2312  0003                     	;# 
  2313  0004                     	;# 
  2314  0005                     	;# 
  2315  0006                     	;# 
  2316  0007                     	;# 
  2317  0008                     	;# 
  2318  0009                     	;# 
  2319  000A                     	;# 
  2320  000B                     	;# 
  2321  000C                     	;# 
  2322  000D                     	;# 
  2323  000E                     	;# 
  2324  0011                     	;# 
  2325  0012                     	;# 
  2326  0013                     	;# 
  2327  0015                     	;# 
  2328  0016                     	;# 
  2329  0016                     	;# 
  2330  0017                     	;# 
  2331  0018                     	;# 
  2332  0019                     	;# 
  2333  001A                     	;# 
  2334  001B                     	;# 
  2335  001C                     	;# 
  2336  008C                     	;# 
  2337  008D                     	;# 
  2338  008E                     	;# 
  2339  0091                     	;# 
  2340  0092                     	;# 
  2341  0093                     	;# 
  2342  0095                     	;# 
  2343  0096                     	;# 
  2344  0097                     	;# 
  2345  0099                     	;# 
  2346  009A                     	;# 
  2347  009B                     	;# 
  2348  009B                     	;# 
  2349  009C                     	;# 
  2350  009D                     	;# 
  2351  009E                     	;# 
  2352  009F                     	;# 
  2353  010C                     	;# 
  2354  010D                     	;# 
  2355  010E                     	;# 
  2356  0111                     	;# 
  2357  0112                     	;# 
  2358  0113                     	;# 
  2359  0114                     	;# 
  2360  0115                     	;# 
  2361  0116                     	;# 
  2362  0117                     	;# 
  2363  0118                     	;# 
  2364  0119                     	;# 
  2365  011D                     	;# 
  2366  018C                     	;# 
  2367  018D                     	;# 
  2368  018E                     	;# 
  2369  0191                     	;# 
  2370  0191                     	;# 
  2371  0192                     	;# 
  2372  0193                     	;# 
  2373  0193                     	;# 
  2374  0194                     	;# 
  2375  0195                     	;# 
  2376  0196                     	;# 
  2377  0197                     	;# 
  2378  0199                     	;# 
  2379  019A                     	;# 
  2380  019B                     	;# 
  2381  019B                     	;# 
  2382  019C                     	;# 
  2383  019D                     	;# 
  2384  019E                     	;# 
  2385  019F                     	;# 
  2386  020C                     	;# 
  2387  020D                     	;# 
  2388  0211                     	;# 
  2389  0211                     	;# 
  2390  0212                     	;# 
  2391  0212                     	;# 
  2392  0213                     	;# 
  2393  0213                     	;# 
  2394  0214                     	;# 
  2395  0214                     	;# 
  2396  0215                     	;# 
  2397  0215                     	;# 
  2398  0215                     	;# 
  2399  0216                     	;# 
  2400  0216                     	;# 
  2401  0217                     	;# 
  2402  0217                     	;# 
  2403  0391                     	;# 
  2404  0392                     	;# 
  2405  0393                     	;# 
  2406  0394                     	;# 
  2407  0395                     	;# 
  2408  0396                     	;# 
  2409  0498                     	;# 
  2410  0498                     	;# 
  2411  0499                     	;# 
  2412  049A                     	;# 
  2413  049B                     	;# 
  2414  049B                     	;# 
  2415  049C                     	;# 
  2416  049D                     	;# 
  2417  049E                     	;# 
  2418  049F                     	;# 
  2419  0611                     	;# 
  2420  0612                     	;# 
  2421  0613                     	;# 
  2422  0613                     	;# 
  2423  0614                     	;# 
  2424  0615                     	;# 
  2425  0616                     	;# 
  2426  0616                     	;# 
  2427  0617                     	;# 
  2428  0618                     	;# 
  2429  0619                     	;# 
  2430  0619                     	;# 
  2431  061A                     	;# 
  2432  061B                     	;# 
  2433  061C                     	;# 
  2434  061C                     	;# 
  2435  0691                     	;# 
  2436  0692                     	;# 
  2437  0693                     	;# 
  2438  0694                     	;# 
  2439  0695                     	;# 
  2440  0F0F                     	;# 
  2441  0F10                     	;# 
  2442  0F11                     	;# 
  2443  0F12                     	;# 
  2444  0F13                     	;# 
  2445  0F14                     	;# 
  2446  0F15                     	;# 
  2447  0F16                     	;# 
  2448  0F17                     	;# 
  2449  0F18                     	;# 
  2450  0F19                     	;# 
  2451  0F1A                     	;# 
  2452  0F1B                     	;# 
  2453  0F1C                     	;# 
  2454  0F1D                     	;# 
  2455  0F1E                     	;# 
  2456  0F1F                     	;# 
  2457  0F20                     	;# 
  2458  0F21                     	;# 
  2459  0F22                     	;# 
  2460  0F23                     	;# 
  2461  0F24                     	;# 
  2462  0F25                     	;# 
  2463  0F26                     	;# 
  2464  0F27                     	;# 
  2465  0F28                     	;# 
  2466  0F29                     	;# 
  2467  0F2A                     	;# 
  2468  0F2B                     	;# 
  2469  0F2C                     	;# 
  2470  0F2D                     	;# 
  2471  0F2E                     	;# 
  2472  0F2F                     	;# 
  2473  0F8C                     	;# 
  2474  0F8D                     	;# 
  2475  0F91                     	;# 
  2476  0F95                     	;# 
  2477  0F96                     	;# 
  2478  0F97                     	;# 
  2479  0F9C                     	;# 
  2480  0F9D                     	;# 
  2481  0F9E                     	;# 
  2482  0FE3                     	;# 
  2483  0FE4                     	;# 
  2484  0FE5                     	;# 
  2485  0FE6                     	;# 
  2486  0FE7                     	;# 
  2487  0FE8                     	;# 
  2488  0FE9                     	;# 
  2489  0FEA                     	;# 
  2490  0FEB                     	;# 
  2491  0FED                     	;# 
  2492  0FEE                     	;# 
  2493  0FEF                     	;# 
  2494  0000                     	;# 
  2495  0001                     	;# 
  2496  0002                     	;# 
  2497  0003                     	;# 
  2498  0004                     	;# 
  2499  0005                     	;# 
  2500  0006                     	;# 
  2501  0007                     	;# 
  2502  0008                     	;# 
  2503  0009                     	;# 
  2504  000A                     	;# 
  2505  000B                     	;# 
  2506  000C                     	;# 
  2507  000D                     	;# 
  2508  000E                     	;# 
  2509  0011                     	;# 
  2510  0012                     	;# 
  2511  0013                     	;# 
  2512  0015                     	;# 
  2513  0016                     	;# 
  2514  0016                     	;# 
  2515  0017                     	;# 
  2516  0018                     	;# 
  2517  0019                     	;# 
  2518  001A                     	;# 
  2519  001B                     	;# 
  2520  001C                     	;# 
  2521  008C                     	;# 
  2522  008D                     	;# 
  2523  008E                     	;# 
  2524  0091                     	;# 
  2525  0092                     	;# 
  2526  0093                     	;# 
  2527  0095                     	;# 
  2528  0096                     	;# 
  2529  0097                     	;# 
  2530  0099                     	;# 
  2531  009A                     	;# 
  2532  009B                     	;# 
  2533  009B                     	;# 
  2534  009C                     	;# 
  2535  009D                     	;# 
  2536  009E                     	;# 
  2537  009F                     	;# 
  2538  010C                     	;# 
  2539  010D                     	;# 
  2540  010E                     	;# 
  2541  0111                     	;# 
  2542  0112                     	;# 
  2543  0113                     	;# 
  2544  0114                     	;# 
  2545  0115                     	;# 
  2546  0116                     	;# 
  2547  0117                     	;# 
  2548  0118                     	;# 
  2549  0119                     	;# 
  2550  011D                     	;# 
  2551  018C                     	;# 
  2552  018D                     	;# 
  2553  018E                     	;# 
  2554  0191                     	;# 
  2555  0191                     	;# 
  2556  0192                     	;# 
  2557  0193                     	;# 
  2558  0193                     	;# 
  2559  0194                     	;# 
  2560  0195                     	;# 
  2561  0196                     	;# 
  2562  0197                     	;# 
  2563  0199                     	;# 
  2564  019A                     	;# 
  2565  019B                     	;# 
  2566  019B                     	;# 
  2567  019C                     	;# 
  2568  019D                     	;# 
  2569  019E                     	;# 
  2570  019F                     	;# 
  2571  020C                     	;# 
  2572  020D                     	;# 
  2573  0211                     	;# 
  2574  0211                     	;# 
  2575  0212                     	;# 
  2576  0212                     	;# 
  2577  0213                     	;# 
  2578  0213                     	;# 
  2579  0214                     	;# 
  2580  0214                     	;# 
  2581  0215                     	;# 
  2582  0215                     	;# 
  2583  0215                     	;# 
  2584  0216                     	;# 
  2585  0216                     	;# 
  2586  0217                     	;# 
  2587  0217                     	;# 
  2588  0391                     	;# 
  2589  0392                     	;# 
  2590  0393                     	;# 
  2591  0394                     	;# 
  2592  0395                     	;# 
  2593  0396                     	;# 
  2594  0498                     	;# 
  2595  0498                     	;# 
  2596  0499                     	;# 
  2597  049A                     	;# 
  2598  049B                     	;# 
  2599  049B                     	;# 
  2600  049C                     	;# 
  2601  049D                     	;# 
  2602  049E                     	;# 
  2603  049F                     	;# 
  2604  0611                     	;# 
  2605  0612                     	;# 
  2606  0613                     	;# 
  2607  0613                     	;# 
  2608  0614                     	;# 
  2609  0615                     	;# 
  2610  0616                     	;# 
  2611  0616                     	;# 
  2612  0617                     	;# 
  2613  0618                     	;# 
  2614  0619                     	;# 
  2615  0619                     	;# 
  2616  061A                     	;# 
  2617  061B                     	;# 
  2618  061C                     	;# 
  2619  061C                     	;# 
  2620  0691                     	;# 
  2621  0692                     	;# 
  2622  0693                     	;# 
  2623  0694                     	;# 
  2624  0695                     	;# 
  2625  0F0F                     	;# 
  2626  0F10                     	;# 
  2627  0F11                     	;# 
  2628  0F12                     	;# 
  2629  0F13                     	;# 
  2630  0F14                     	;# 
  2631  0F15                     	;# 
  2632  0F16                     	;# 
  2633  0F17                     	;# 
  2634  0F18                     	;# 
  2635  0F19                     	;# 
  2636  0F1A                     	;# 
  2637  0F1B                     	;# 
  2638  0F1C                     	;# 
  2639  0F1D                     	;# 
  2640  0F1E                     	;# 
  2641  0F1F                     	;# 
  2642  0F20                     	;# 
  2643  0F21                     	;# 
  2644  0F22                     	;# 
  2645  0F23                     	;# 
  2646  0F24                     	;# 
  2647  0F25                     	;# 
  2648  0F26                     	;# 
  2649  0F27                     	;# 
  2650  0F28                     	;# 
  2651  0F29                     	;# 
  2652  0F2A                     	;# 
  2653  0F2B                     	;# 
  2654  0F2C                     	;# 
  2655  0F2D                     	;# 
  2656  0F2E                     	;# 
  2657  0F2F                     	;# 
  2658  0F8C                     	;# 
  2659  0F8D                     	;# 
  2660  0F91                     	;# 
  2661  0F95                     	;# 
  2662  0F96                     	;# 
  2663  0F97                     	;# 
  2664  0F9C                     	;# 
  2665  0F9D                     	;# 
  2666  0F9E                     	;# 
  2667  0FE3                     	;# 
  2668  0FE4                     	;# 
  2669  0FE5                     	;# 
  2670  0FE6                     	;# 
  2671  0FE7                     	;# 
  2672  0FE8                     	;# 
  2673  0FE9                     	;# 
  2674  0FEA                     	;# 
  2675  0FEB                     	;# 
  2676  0FED                     	;# 
  2677  0FEE                     	;# 
  2678  0FEF                     	;# 
  2679  0000                     	;# 
  2680  0001                     	;# 
  2681  0002                     	;# 
  2682  0003                     	;# 
  2683  0004                     	;# 
  2684  0005                     	;# 
  2685  0006                     	;# 
  2686  0007                     	;# 
  2687  0008                     	;# 
  2688  0009                     	;# 
  2689  000A                     	;# 
  2690  000B                     	;# 
  2691  000C                     	;# 
  2692  000D                     	;# 
  2693  000E                     	;# 
  2694  0011                     	;# 
  2695  0012                     	;# 
  2696  0013                     	;# 
  2697  0015                     	;# 
  2698  0016                     	;# 
  2699  0016                     	;# 
  2700  0017                     	;# 
  2701  0018                     	;# 
  2702  0019                     	;# 
  2703  001A                     	;# 
  2704  001B                     	;# 
  2705  001C                     	;# 
  2706  008C                     	;# 
  2707  008D                     	;# 
  2708  008E                     	;# 
  2709  0091                     	;# 
  2710  0092                     	;# 
  2711  0093                     	;# 
  2712  0095                     	;# 
  2713  0096                     	;# 
  2714  0097                     	;# 
  2715  0099                     	;# 
  2716  009A                     	;# 
  2717  009B                     	;# 
  2718  009B                     	;# 
  2719  009C                     	;# 
  2720  009D                     	;# 
  2721  009E                     	;# 
  2722  009F                     	;# 
  2723  010C                     	;# 
  2724  010D                     	;# 
  2725  010E                     	;# 
  2726  0111                     	;# 
  2727  0112                     	;# 
  2728  0113                     	;# 
  2729  0114                     	;# 
  2730  0115                     	;# 
  2731  0116                     	;# 
  2732  0117                     	;# 
  2733  0118                     	;# 
  2734  0119                     	;# 
  2735  011D                     	;# 
  2736  018C                     	;# 
  2737  018D                     	;# 
  2738  018E                     	;# 
  2739  0191                     	;# 
  2740  0191                     	;# 
  2741  0192                     	;# 
  2742  0193                     	;# 
  2743  0193                     	;# 
  2744  0194                     	;# 
  2745  0195                     	;# 
  2746  0196                     	;# 
  2747  0197                     	;# 
  2748  0199                     	;# 
  2749  019A                     	;# 
  2750  019B                     	;# 
  2751  019B                     	;# 
  2752  019C                     	;# 
  2753  019D                     	;# 
  2754  019E                     	;# 
  2755  019F                     	;# 
  2756  020C                     	;# 
  2757  020D                     	;# 
  2758  0211                     	;# 
  2759  0211                     	;# 
  2760  0212                     	;# 
  2761  0212                     	;# 
  2762  0213                     	;# 
  2763  0213                     	;# 
  2764  0214                     	;# 
  2765  0214                     	;# 
  2766  0215                     	;# 
  2767  0215                     	;# 
  2768  0215                     	;# 
  2769  0216                     	;# 
  2770  0216                     	;# 
  2771  0217                     	;# 
  2772  0217                     	;# 
  2773  0391                     	;# 
  2774  0392                     	;# 
  2775  0393                     	;# 
  2776  0394                     	;# 
  2777  0395                     	;# 
  2778  0396                     	;# 
  2779  0498                     	;# 
  2780  0498                     	;# 
  2781  0499                     	;# 
  2782  049A                     	;# 
  2783  049B                     	;# 
  2784  049B                     	;# 
  2785  049C                     	;# 
  2786  049D                     	;# 
  2787  049E                     	;# 
  2788  049F                     	;# 
  2789  0611                     	;# 
  2790  0612                     	;# 
  2791  0613                     	;# 
  2792  0613                     	;# 
  2793  0614                     	;# 
  2794  0615                     	;# 
  2795  0616                     	;# 
  2796  0616                     	;# 
  2797  0617                     	;# 
  2798  0618                     	;# 
  2799  0619                     	;# 
  2800  0619                     	;# 
  2801  061A                     	;# 
  2802  061B                     	;# 
  2803  061C                     	;# 
  2804  061C                     	;# 
  2805  0691                     	;# 
  2806  0692                     	;# 
  2807  0693                     	;# 
  2808  0694                     	;# 
  2809  0695                     	;# 
  2810  0F0F                     	;# 
  2811  0F10                     	;# 
  2812  0F11                     	;# 
  2813  0F12                     	;# 
  2814  0F13                     	;# 
  2815  0F14                     	;# 
  2816  0F15                     	;# 
  2817  0F16                     	;# 
  2818  0F17                     	;# 
  2819  0F18                     	;# 
  2820  0F19                     	;# 
  2821  0F1A                     	;# 
  2822  0F1B                     	;# 
  2823  0F1C                     	;# 
  2824  0F1D                     	;# 
  2825  0F1E                     	;# 
  2826  0F1F                     	;# 
  2827  0F20                     	;# 
  2828  0F21                     	;# 
  2829  0F22                     	;# 
  2830  0F23                     	;# 
  2831  0F24                     	;# 
  2832  0F25                     	;# 
  2833  0F26                     	;# 
  2834  0F27                     	;# 
  2835  0F28                     	;# 
  2836  0F29                     	;# 
  2837  0F2A                     	;# 
  2838  0F2B                     	;# 
  2839  0F2C                     	;# 
  2840  0F2D                     	;# 
  2841  0F2E                     	;# 
  2842  0F2F                     	;# 
  2843  0F8C                     	;# 
  2844  0F8D                     	;# 
  2845  0F91                     	;# 
  2846  0F95                     	;# 
  2847  0F96                     	;# 
  2848  0F97                     	;# 
  2849  0F9C                     	;# 
  2850  0F9D                     	;# 
  2851  0F9E                     	;# 
  2852  0FE3                     	;# 
  2853  0FE4                     	;# 
  2854  0FE5                     	;# 
  2855  0FE6                     	;# 
  2856  0FE7                     	;# 
  2857  0FE8                     	;# 
  2858  0FE9                     	;# 
  2859  0FEA                     	;# 
  2860  0FEB                     	;# 
  2861  0FED                     	;# 
  2862  0FEE                     	;# 
  2863  0FEF                     	;# 
  2864  0000                     	;# 
  2865  0001                     	;# 
  2866  0002                     	;# 
  2867  0003                     	;# 
  2868  0004                     	;# 
  2869  0005                     	;# 
  2870  0006                     	;# 
  2871  0007                     	;# 
  2872  0008                     	;# 
  2873  0009                     	;# 
  2874  000A                     	;# 
  2875  000B                     	;# 
  2876  000C                     	;# 
  2877  000D                     	;# 
  2878  000E                     	;# 
  2879  0011                     	;# 
  2880  0012                     	;# 
  2881  0013                     	;# 
  2882  0015                     	;# 
  2883  0016                     	;# 
  2884  0016                     	;# 
  2885  0017                     	;# 
  2886  0018                     	;# 
  2887  0019                     	;# 
  2888  001A                     	;# 
  2889  001B                     	;# 
  2890  001C                     	;# 
  2891  008C                     	;# 
  2892  008D                     	;# 
  2893  008E                     	;# 
  2894  0091                     	;# 
  2895  0092                     	;# 
  2896  0093                     	;# 
  2897  0095                     	;# 
  2898  0096                     	;# 
  2899  0097                     	;# 
  2900  0099                     	;# 
  2901  009A                     	;# 
  2902  009B                     	;# 
  2903  009B                     	;# 
  2904  009C                     	;# 
  2905  009D                     	;# 
  2906  009E                     	;# 
  2907  009F                     	;# 
  2908  010C                     	;# 
  2909  010D                     	;# 
  2910  010E                     	;# 
  2911  0111                     	;# 
  2912  0112                     	;# 
  2913  0113                     	;# 
  2914  0114                     	;# 
  2915  0115                     	;# 
  2916  0116                     	;# 
  2917  0117                     	;# 
  2918  0118                     	;# 
  2919  0119                     	;# 
  2920  011D                     	;# 
  2921  018C                     	;# 
  2922  018D                     	;# 
  2923  018E                     	;# 
  2924  0191                     	;# 
  2925  0191                     	;# 
  2926  0192                     	;# 
  2927  0193                     	;# 
  2928  0193                     	;# 
  2929  0194                     	;# 
  2930  0195                     	;# 
  2931  0196                     	;# 
  2932  0197                     	;# 
  2933  0199                     	;# 
  2934  019A                     	;# 
  2935  019B                     	;# 
  2936  019B                     	;# 
  2937  019C                     	;# 
  2938  019D                     	;# 
  2939  019E                     	;# 
  2940  019F                     	;# 
  2941  020C                     	;# 
  2942  020D                     	;# 
  2943  0211                     	;# 
  2944  0211                     	;# 
  2945  0212                     	;# 
  2946  0212                     	;# 
  2947  0213                     	;# 
  2948  0213                     	;# 
  2949  0214                     	;# 
  2950  0214                     	;# 
  2951  0215                     	;# 
  2952  0215                     	;# 
  2953  0215                     	;# 
  2954  0216                     	;# 
  2955  0216                     	;# 
  2956  0217                     	;# 
  2957  0217                     	;# 
  2958  0391                     	;# 
  2959  0392                     	;# 
  2960  0393                     	;# 
  2961  0394                     	;# 
  2962  0395                     	;# 
  2963  0396                     	;# 
  2964  0498                     	;# 
  2965  0498                     	;# 
  2966  0499                     	;# 
  2967  049A                     	;# 
  2968  049B                     	;# 
  2969  049B                     	;# 
  2970  049C                     	;# 
  2971  049D                     	;# 
  2972  049E                     	;# 
  2973  049F                     	;# 
  2974  0611                     	;# 
  2975  0612                     	;# 
  2976  0613                     	;# 
  2977  0613                     	;# 
  2978  0614                     	;# 
  2979  0615                     	;# 
  2980  0616                     	;# 
  2981  0616                     	;# 
  2982  0617                     	;# 
  2983  0618                     	;# 
  2984  0619                     	;# 
  2985  0619                     	;# 
  2986  061A                     	;# 
  2987  061B                     	;# 
  2988  061C                     	;# 
  2989  061C                     	;# 
  2990  0691                     	;# 
  2991  0692                     	;# 
  2992  0693                     	;# 
  2993  0694                     	;# 
  2994  0695                     	;# 
  2995  0F0F                     	;# 
  2996  0F10                     	;# 
  2997  0F11                     	;# 
  2998  0F12                     	;# 
  2999  0F13                     	;# 
  3000  0F14                     	;# 
  3001  0F15                     	;# 
  3002  0F16                     	;# 
  3003  0F17                     	;# 
  3004  0F18                     	;# 
  3005  0F19                     	;# 
  3006  0F1A                     	;# 
  3007  0F1B                     	;# 
  3008  0F1C                     	;# 
  3009  0F1D                     	;# 
  3010  0F1E                     	;# 
  3011  0F1F                     	;# 
  3012  0F20                     	;# 
  3013  0F21                     	;# 
  3014  0F22                     	;# 
  3015  0F23                     	;# 
  3016  0F24                     	;# 
  3017  0F25                     	;# 
  3018  0F26                     	;# 
  3019  0F27                     	;# 
  3020  0F28                     	;# 
  3021  0F29                     	;# 
  3022  0F2A                     	;# 
  3023  0F2B                     	;# 
  3024  0F2C                     	;# 
  3025  0F2D                     	;# 
  3026  0F2E                     	;# 
  3027  0F2F                     	;# 
  3028  0F8C                     	;# 
  3029  0F8D                     	;# 
  3030  0F91                     	;# 
  3031  0F95                     	;# 
  3032  0F96                     	;# 
  3033  0F97                     	;# 
  3034  0F9C                     	;# 
  3035  0F9D                     	;# 
  3036  0F9E                     	;# 
  3037  0FE3                     	;# 
  3038  0FE4                     	;# 
  3039  0FE5                     	;# 
  3040  0FE6                     	;# 
  3041  0FE7                     	;# 
  3042  0FE8                     	;# 
  3043  0FE9                     	;# 
  3044  0FEA                     	;# 
  3045  0FEB                     	;# 
  3046  0FED                     	;# 
  3047  0FEE                     	;# 
  3048  0FEF                     	;# 
  3049                           
  3050 ;; Function _EUSART_DefaultFramingErrorHandler is unused but had its address taken
  3051  0000                     
  3052 ;; Function _EUSART_DefaultOverrunErrorHandler is unused but had its address taken
  3053  0000                     
  3054 ;; Function _EUSART_DefaultErrorHandler is unused but had its address taken
  3055  0000                     
  3056 ;; Function _I2C_MasterIsr is unused but had its address taken
  3057  0000                     
  3058 ;; Function _I2C_DO_IDLE is unused but had its address taken
  3059  0000                     
  3060 ;; Function _I2C_DO_SEND_ADR_READ is unused but had its address taken
  3061  0000                     
  3062 ;; Function _I2C_DO_SEND_ADR_WRITE is unused but had its address taken
  3063  0000                     
  3064 ;; Function _I2C_DO_TX is unused but had its address taken
  3065  0000                     
  3066 ;; Function _I2C_DO_RX is unused but had its address taken
  3067  0000                     
  3068 ;; Function _I2C_DO_RCEN is unused but had its address taken
  3069  0000                     
  3070 ;; Function _I2C_DO_TX_EMPTY is unused but had its address taken
  3071  0000                     
  3072 ;; Function _I2C_DO_SEND_RESTART_READ is unused but had its address taken
  3073  0000                     
  3074 ;; Function _I2C_DO_SEND_RESTART_WRITE is unused but had its address taken
  3075  0000                     
  3076 ;; Function _I2C_DO_SEND_RESTART is unused but had its address taken
  3077  0000                     
  3078 ;; Function _I2C_DO_SEND_STOP is unused but had its address taken
  3079  0000                     
  3080 ;; Function _I2C_DO_RX_ACK is unused but had its address taken
  3081  0000                     
  3082 ;; Function _I2C_DO_RX_NACK_STOP is unused but had its address taken
  3083  0000                     
  3084 ;; Function _I2C_DO_RX_NACK_RESTART is unused but had its address taken
  3085  0000                     
  3086 ;; Function _I2C_DO_RESET is unused but had its address taken
  3087  0000                     
  3088 ;; Function _I2C_DO_ADDRESS_NACK is unused but had its address taken
  3089  0000                     
  3090 ;; Function _I2C_CallbackReturnStop is unused but had its address taken
  3091  0000                     
  3092 ;; Function _I2C_CallbackReturnReset is unused but had its address taken
  3093  0000                     
  3094 ;; Function _rd1RegCompleteHandler is unused but had its address taken
  3095  0000                     
  3096 ;; Function _rd2RegCompleteHandler is unused but had its address taken
  3097  0000                     
  3098 ;; Function _wr1RegCompleteHandler is unused but had its address taken
  3099  0000                     
  3100 ;; Function _wr2RegCompleteHandler is unused but had its address taken
  3101  0000                     
  3102 ;; Function _rdBlkRegCompleteHandler is unused but had its address taken
  3103  0000                     
  3104                           	psect	idataCOMMON
  3105  0512                     __pidataCOMMON:
  3106                           
  3107                           ;initializer for _U8Message
  3108  0512  3455               	retlw	85
  3109                           
  3110                           ;initializer for _BreathState
  3111  0513  3401               	retlw	1
  3112                           
  3113                           	psect	idataBANK0
  3114  0514                     __pidataBANK0:
  3115                           
  3116                           ;initializer for _Command
  3117  0514  34F3               	retlw	243
  3118                           
  3119                           	psect	stringtext1
  3120  039E                     __pstringtext1:
  3121  039E                     _fsmStateTable:
  3122  039E  3400               	retlw	0
  3123  039F  3400               	retlw	0
  3124  03A0  3400               	retlw	0
  3125  03A1  3400               	retlw	0
  3126  03A2  3400               	retlw	0
  3127  03A3  3400               	retlw	0
  3128  03A4  3400               	retlw	0
  3129  03A5  3400               	retlw	0
  3130  03A6  3400               	retlw	0
  3131  03A7  3400               	retlw	0
  3132  03A8  3400               	retlw	0
  3133  03A9  3400               	retlw	0
  3134  03AA  3400               	retlw	0
  3135  03AB  3400               	retlw	0
  3136  03AC  3400               	retlw	0
  3137  03AD  3400               	retlw	0
  3138  03AE  3400               	retlw	0
  3139  03AF  3400               	retlw	0
  3140  03B0  3400               	retlw	0
  3141  03B1  3400               	retlw	0
  3142  03B2  3400               	retlw	0
  3143  03B3  3400               	retlw	0
  3144  03B4  3400               	retlw	0
  3145  03B5  3400               	retlw	0
  3146  03B6  3400               	retlw	0
  3147  03B7  3400               	retlw	0
  3148  03B8  3400               	retlw	0
  3149  03B9  3400               	retlw	0
  3150  03BA  3400               	retlw	0
  3151  03BB  3400               	retlw	0
  3152  03BC  3400               	retlw	0
  3153  03BD  3400               	retlw	0
  3154  03BE                     __end_of_fsmStateTable:
  3155                           
  3156                           	psect	stringtext2
  3157  049B                     __pstringtext2:
  3158  049B                     _COS_tsk:
  3159  049B  34D8               	retlw	low _UartDisplay
  3160  049C  3404               	retlw	high _UartDisplay
  3161  049D  3480               	retlw	128
  3162  049E  3437               	retlw	low _SHT25_StateMachine
  3163  049F  3400               	retlw	high _SHT25_StateMachine
  3164  04A0  3440               	retlw	64
  3165  04A1  3400               	retlw	0
  3166  04A2  3400               	retlw	0
  3167  04A3  3400               	retlw	0
  3168  04A4  3400               	retlw	0
  3169  04A5  3400               	retlw	0
  3170  04A6  3400               	retlw	0
  3171  04A7                     __end_of_COS_tsk:
  3172                           
  3173                           	psect	nvBANK0
  3174  0061                     __pnvBANK0:
  3175  0061                     _EUSART_ErrorHandler:
  3176  0061                     	ds	2
  3177  0063                     _EUSART_OverrunErrorHandler:
  3178  0063                     	ds	2
  3179  0065                     _EUSART_FramingErrorHandler:
  3180  0065                     	ds	2
  3181  0067                     _TMR2_InterruptHandler:
  3182  0067                     	ds	2
  3183  0069                     _COS_tsk_ena:
  3184  0069                     	ds	1
  3185  006A                     _COS_tsk_msk:
  3186  006A                     	ds	1
  3187  0012                     _PIR2bits	set	18
  3188  000B                     _INTCONbits	set	11
  3189  001C                     _T2CONbits	set	28
  3190  001C                     _T2CON	set	28
  3191  0011                     _PIR1bits	set	17
  3192  001A                     _TMR2	set	26
  3193  001B                     _PR2	set	27
  3194  0018                     _T1CON	set	24
  3195  0016                     _TMR1L	set	22
  3196  0017                     _TMR1H	set	23
  3197  008B                     _SSP1IF	set	139
  3198  009D                     _ADCON0bits	set	157
  3199  009C                     _ADRESH	set	156
  3200  009B                     _ADRESL	set	155
  3201  009F                     _ADCON2	set	159
  3202  009E                     _ADCON1	set	158
  3203  009D                     _ADCON0	set	157
  3204  0095                     _OPTION_REGbits	set	149
  3205  008E                     _TRISC	set	142
  3206  008D                     _TRISB	set	141
  3207  008C                     _TRISA	set	140
  3208  0097                     _WDTCON	set	151
  3209  0099                     _OSCCON	set	153
  3210  0091                     _PIE1bits	set	145
  3211  010E                     _LATCbits	set	270
  3212  011D                     _APFCON	set	285
  3213  010E                     _LATC	set	270
  3214  010D                     _LATB	set	269
  3215  010C                     _LATA	set	268
  3216  0116                     _BORCON	set	278
  3217  0196                     _PMCON2	set	406
  3218  0193                     _PMDATL	set	403
  3219  0194                     _PMDATH	set	404
  3220  0195                     _PMCON1bits	set	405
  3221  0192                     _PMADRH	set	402
  3222  0191                     _PMADRL	set	401
  3223  019A                     _TXREG	set	410
  3224  0199                     _RCREG	set	409
  3225  019D                     _RCSTAbits	set	413
  3226  019E                     _TXSTAbits	set	414
  3227  019C                     _SPBRGH	set	412
  3228  019B                     _SPBRGL	set	411
  3229  019E                     _TXSTA	set	414
  3230  019D                     _RCSTA	set	413
  3231  019F                     _BAUDCON	set	415
  3232  018C                     _ANSELA	set	396
  3233  018D                     _ANSELB	set	397
  3234  018E                     _ANSELC	set	398
  3235  0214                     _SSP1STATbits	set	532
  3236  0211                     _SSP1BUF	set	529
  3237  0216                     _SSP1CON2bits	set	534
  3238  0215                     _SSP1CON1bits	set	533
  3239  0212                     _SSP1ADD	set	530
  3240  0216                     _SSP1CON2	set	534
  3241  0215                     _SSP1CON1	set	533
  3242  0214                     _SSP1STAT	set	532
  3243  020C                     _WPUA	set	524
  3244  020D                     _WPUB	set	525
  3245  0611                     _PWM1DCL	set	1553
  3246  0612                     _PWM1DCH	set	1554
  3247  0613                     _PWM1CON	set	1555
  3248                           
  3249                           	psect	cinit
  3250  0014                     start_initialization:	
  3251                           ; #config settings
  3252                           
  3253  0014                     __initialization:
  3254                           
  3255                           ; Initialize objects allocated to COMMON
  3256  0014  3185  2512  3180   	fcall	__pidataCOMMON	;fetch initializer
  3257  0017  00FA               	movwf	__pdataCOMMON& (0+127)
  3258  0018  3185  2513  3180   	fcall	__pidataCOMMON+1	;fetch initializer
  3259  001B  00FB               	movwf	(__pdataCOMMON+1)& (0+127)
  3260                           
  3261                           ; Initialize objects allocated to BANK0
  3262  001C  3185  2514  3180   	fcall	__pidataBANK0	;fetch initializer
  3263  001F  00EB               	movwf	__pdataBANK0& (0+127)
  3264                           
  3265                           ; Clear objects allocated to COMMON
  3266  0020  01F6               	clrf	__pbssCOMMON& (0+127)
  3267  0021  01F7               	clrf	(__pbssCOMMON+1)& (0+127)
  3268  0022  01F8               	clrf	(__pbssCOMMON+2)& (0+127)
  3269  0023  01F9               	clrf	(__pbssCOMMON+3)& (0+127)
  3270                           
  3271                           ; Clear objects allocated to BANK0
  3272  0024  3020               	movlw	low __pbssBANK0
  3273  0025  0084               	movwf	4
  3274  0026  3000               	movlw	high __pbssBANK0
  3275  0027  0085               	movwf	5
  3276  0028  3028               	movlw	40
  3277  0029  3184  24E8  3180   	fcall	clear_ram0
  3278                           
  3279                           ; Clear objects allocated to BANK1
  3280  002C  30A0               	movlw	low __pbssBANK1
  3281  002D  0084               	movwf	4
  3282  002E  3000               	movlw	high __pbssBANK1
  3283  002F  0085               	movwf	5
  3284  0030  301D               	movlw	29
  3285  0031  3184  24E8         	fcall	clear_ram0
  3286  0033                     end_of_initialization:	
  3287                           ;End of C runtime variable initialization code
  3288                           
  3289  0033                     __end_of__initialization:
  3290  0033  107E               	bcf	int$flags,0	;clear compiler interrupt flag (level 1)
  3291  0034  0020               	movlb	0
  3292  0035  3183  2BFA         	ljmp	_main	;jump to C main() function
  3293                           
  3294                           	psect	bssCOMMON
  3295  0076                     __pbssCOMMON:
  3296  0076                     _COS_tcnt_val:
  3297  0076                     	ds	2
  3298  0078                     _ErrorStat:
  3299  0078                     	ds	1
  3300  0079                     _NewMessageFlag:
  3301  0079                     	ds	1
  3302                           
  3303                           	psect	dataCOMMON
  3304  007A                     __pdataCOMMON:
  3305  007A                     _U8Message:
  3306  007A                     	ds	1
  3307  007B                     _BreathState:
  3308  007B                     	ds	1
  3309                           
  3310                           	psect	bssBANK0
  3311  0020                     __pbssBANK0:
  3312  0020                     _ADC_InterruptHandler:
  3313  0020                     	ds	2
  3314  0022                     _RelativeHumidityRaw:
  3315  0022                     	ds	2
  3316  0024                     _TemperatureRaw:
  3317  0024                     	ds	2
  3318  0026                     _I2C_Timer:
  3319  0026                     	ds	2
  3320  0028                     _SensirionRH_UBP8:
  3321  0028                     	ds	2
  3322  002A                     _SensirionTemperature_UBP8:
  3323  002A                     	ds	2
  3324  002C                     _dutyValue:
  3325  002C                     	ds	2
  3326  002E                     _counter:
  3327  002E                     	ds	2
  3328  0030                     TMR2_ISR@CountCallBack:
  3329  0030                     	ds	2
  3330  0032                     _MSSP_InterruptHandler:
  3331  0032                     	ds	2
  3332  0034                     _COS_tcnt_lst:
  3333  0034                     	ds	2
  3334  0036                     _COS_tsk_tmr:
  3335  0036                     	ds	2
  3336  0038                     _COS_sec_tmr:
  3337  0038                     	ds	2
  3338  003A                     _COS_ms_tmr:
  3339  003A                     	ds	2
  3340  003C                     _SHT25_State:
  3341  003C                     	ds	1
  3342  003D                     _RelativeHumidityRaw_L:
  3343  003D                     	ds	1
  3344  003E                     _RelativeHumidityRaw_H:
  3345  003E                     	ds	1
  3346  003F                     _TemperatureRaw_L:
  3347  003F                     	ds	1
  3348  0040                     _TemperatureRaw_H:
  3349  0040                     	ds	1
  3350  0041                     _checksum:
  3351  0041                     	ds	1
  3352  0042                     _SHT25_Fault:
  3353  0042                     	ds	1
  3354  0043                     _counter@UART_Display$F553:
  3355  0043                     	ds	1
  3356  0044                     _Timer2Flag:
  3357  0044                     	ds	1
  3358  0045                     _TimeSlotCounter:
  3359  0045                     	ds	1
  3360  0046                     _eusartRxLastError:
  3361  0046                     	ds	1
  3362  0047                     _COS_tsk_ind:
  3363  0047                     	ds	1
  3364                           
  3365                           	psect	dataBANK0
  3366  006B                     __pdataBANK0:
  3367  006B                     _Command:
  3368  006B                     	ds	1
  3369                           
  3370                           	psect	bssBANK1
  3371  00A0                     __pbssBANK1:
  3372  00A0                     _I2C_Status:
  3373  00A0                     	ds	29
  3374                           
  3375                           	psect	clrtext
  3376  04E8                     clear_ram0:	
  3377                           ;	Called with FSR0 containing the base address, and
  3378                           ;	WREG with the size to clear
  3379                           
  3380  04E8  0064               	clrwdt	;clear the watchdog before getting into this loop
  3381  04E9                     clrloop0:
  3382  04E9  0180               	clrf	0	;clear RAM location pointed to by FSR
  3383  04EA  3101               	addfsr 0,1
  3384  04EB  0B89               	decfsz	9,f	;Have we reached the end of clearing yet?
  3385  04EC  2CE9               	goto	clrloop0	;have we reached the end yet?
  3386  04ED  3400               	retlw	0	;all done for this memory range, return
  3387                           
  3388                           	psect	cstackCOMMON
  3389  0070                     __pcstackCOMMON:
  3390  0070                     ?_COS_TimerSetup:
  3391  0070                     ?_UartDisplay:	
  3392                           ; 1 bytes @ 0x0
  3393                           
  3394  0070                     ?_SHT25_StateMachine:	
  3395                           ; 1 bytes @ 0x0
  3396                           
  3397  0070                     ?_TMR2_DefaultInterruptHandler:	
  3398                           ; 1 bytes @ 0x0
  3399                           
  3400  0070                     ??_TMR2_DefaultInterruptHandler:	
  3401                           ; 1 bytes @ 0x0
  3402                           
  3403  0070                     ?_TMR2_CallBack:	
  3404                           ; 1 bytes @ 0x0
  3405                           
  3406  0070                     ?_PIN_MANAGER_Initialize:	
  3407                           ; 1 bytes @ 0x0
  3408                           
  3409  0070                     ?_OSCILLATOR_Initialize:	
  3410                           ; 1 bytes @ 0x0
  3411                           
  3412  0070                     ?_PWM1_Initialize:	
  3413                           ; 1 bytes @ 0x0
  3414                           
  3415  0070                     ?_EUSART_Initialize:	
  3416                           ; 1 bytes @ 0x0
  3417                           
  3418  0070                     ?_I2C_Init:	
  3419                           ; 1 bytes @ 0x0
  3420                           
  3421  0070                     ?_I2C_StartCondition:	
  3422                           ; 1 bytes @ 0x0
  3423                           
  3424  0070                     ?_I2C_WriteByte:	
  3425                           ; 1 bytes @ 0x0
  3426                           
  3427  0070                     ?_SHT25_FaultHand:	
  3428                           ; 1 bytes @ 0x0
  3429                           
  3430  0070                     ?_I2C_ReadByte:	
  3431                           ; 1 bytes @ 0x0
  3432                           
  3433  0070                     ?_I2C_StopCondition:	
  3434                           ; 1 bytes @ 0x0
  3435                           
  3436  0070                     ?_COS_Init:	
  3437                           ; 1 bytes @ 0x0
  3438                           
  3439  0070                     ?_COS_TmrHandler:	
  3440                           ; 1 bytes @ 0x0
  3441                           
  3442  0070                     ?_COS_TskMan:	
  3443                           ; 1 bytes @ 0x0
  3444                           
  3445  0070                     ?_TMR2_Initialize:	
  3446                           ; 1 bytes @ 0x0
  3447                           
  3448  0070                     ?_TMR2_ISR:	
  3449                           ; 1 bytes @ 0x0
  3450                           
  3451  0070                     ?_INTERRUPT_InterruptManager:	
  3452                           ; 1 bytes @ 0x0
  3453                           
  3454  0070                     ?_SYSTEM_Initialize:	
  3455                           ; 1 bytes @ 0x0
  3456                           
  3457  0070                     ?_PWM1_LoadDutyValue:	
  3458                           ; 1 bytes @ 0x0
  3459                           
  3460  0070                     ?_EUSART_Write:	
  3461                           ; 1 bytes @ 0x0
  3462                           
  3463  0070                     ?_Led2_PWM:	
  3464                           ; 1 bytes @ 0x0
  3465                           
  3466  0070                     ?_main:	
  3467                           ; 1 bytes @ 0x0
  3468                           
  3469  0070                     PWM1_LoadDutyValue@dutyValue:	
  3470                           ; 1 bytes @ 0x0
  3471                           
  3472                           
  3473                           ; 2 bytes @ 0x0
  3474  0070                     	ds	2
  3475  0072                     ??_PWM1_LoadDutyValue:
  3476                           
  3477                           ; 1 bytes @ 0x2
  3478  0072                     	ds	2
  3479  0074                     ??_Led2_PWM:
  3480                           
  3481                           ; 1 bytes @ 0x4
  3482  0074                     	ds	2
  3483  0076                     ??_TMR2_CallBack:
  3484  0076                     ??_TMR2_ISR:	
  3485                           ; 1 bytes @ 0x6
  3486                           
  3487  0076                     ??_INTERRUPT_InterruptManager:	
  3488                           ; 1 bytes @ 0x6
  3489                           
  3490                           
  3491                           	psect	cstackBANK0
  3492  0048                     __pcstackBANK0:	
  3493                           ; 1 bytes @ 0x6
  3494                           
  3495  0048                     ??_COS_TimerSetup:
  3496  0048                     ?_TMR2_SetInterruptHandler:	
  3497                           ; 1 bytes @ 0x0
  3498                           
  3499  0048                     ??_PIN_MANAGER_Initialize:	
  3500                           ; 1 bytes @ 0x0
  3501                           
  3502  0048                     ??_OSCILLATOR_Initialize:	
  3503                           ; 1 bytes @ 0x0
  3504                           
  3505  0048                     ??_PWM1_Initialize:	
  3506                           ; 1 bytes @ 0x0
  3507                           
  3508  0048                     ?_EUSART_SetFramingErrorHandler:	
  3509                           ; 1 bytes @ 0x0
  3510                           
  3511  0048                     ?_EUSART_SetOverrunErrorHandler:	
  3512                           ; 1 bytes @ 0x0
  3513                           
  3514  0048                     ?_EUSART_SetErrorHandler:	
  3515                           ; 1 bytes @ 0x0
  3516                           
  3517  0048                     ??_I2C_Init:	
  3518                           ; 1 bytes @ 0x0
  3519                           
  3520  0048                     ??_I2C_StartCondition:	
  3521                           ; 1 bytes @ 0x0
  3522                           
  3523  0048                     ??_I2C_WriteByte:	
  3524                           ; 1 bytes @ 0x0
  3525                           
  3526  0048                     ??_SHT25_FaultHand:	
  3527                           ; 1 bytes @ 0x0
  3528                           
  3529  0048                     ??_I2C_ReadByte:	
  3530                           ; 1 bytes @ 0x0
  3531                           
  3532  0048                     ??_I2C_StopCondition:	
  3533                           ; 1 bytes @ 0x0
  3534                           
  3535  0048                     ??_COS_Init:	
  3536                           ; 1 bytes @ 0x0
  3537                           
  3538  0048                     ??_COS_TmrHandler:	
  3539                           ; 1 bytes @ 0x0
  3540                           
  3541  0048                     ??_EUSART_Write:	
  3542                           ; 1 bytes @ 0x0
  3543                           
  3544  0048                     ?___wmul:	
  3545                           ; 1 bytes @ 0x0
  3546                           
  3547  0048                     ?___lmul:	
  3548                           ; 2 bytes @ 0x0
  3549                           
  3550  0048                     EUSART_Write@txData:	
  3551                           ; 4 bytes @ 0x0
  3552                           
  3553  0048                     TMR2_SetInterruptHandler@InterruptHandler:	
  3554                           ; 1 bytes @ 0x0
  3555                           
  3556  0048                     EUSART_SetFramingErrorHandler@interruptHandler:	
  3557                           ; 2 bytes @ 0x0
  3558                           
  3559  0048                     EUSART_SetOverrunErrorHandler@interruptHandler:	
  3560                           ; 2 bytes @ 0x0
  3561                           
  3562  0048                     EUSART_SetErrorHandler@interruptHandler:	
  3563                           ; 2 bytes @ 0x0
  3564                           
  3565  0048                     ___wmul@multiplier:	
  3566                           ; 2 bytes @ 0x0
  3567                           
  3568  0048                     ___lmul@multiplier:	
  3569                           ; 2 bytes @ 0x0
  3570                           
  3571                           
  3572                           ; 4 bytes @ 0x0
  3573  0048                     	ds	1
  3574  0049                     ??_UartDisplay:
  3575  0049                     I2C_WriteByte@txByte:	
  3576                           ; 1 bytes @ 0x1
  3577                           
  3578  0049                     I2C_ReadByte@ack:	
  3579                           ; 1 bytes @ 0x1
  3580                           
  3581                           
  3582                           ; 1 bytes @ 0x1
  3583  0049                     	ds	1
  3584  004A                     ??_TMR2_SetInterruptHandler:
  3585  004A                     ??_EUSART_Initialize:	
  3586                           ; 1 bytes @ 0x2
  3587                           
  3588  004A                     ??_EUSART_SetFramingErrorHandler:	
  3589                           ; 1 bytes @ 0x2
  3590                           
  3591  004A                     ??_EUSART_SetOverrunErrorHandler:	
  3592                           ; 1 bytes @ 0x2
  3593                           
  3594  004A                     ??_EUSART_SetErrorHandler:	
  3595                           ; 1 bytes @ 0x2
  3596                           
  3597  004A                     ??_TMR2_Initialize:	
  3598                           ; 1 bytes @ 0x2
  3599                           
  3600  004A                     ??_SYSTEM_Initialize:	
  3601                           ; 1 bytes @ 0x2
  3602                           
  3603  004A                     I2C_WriteByte@ack:	
  3604                           ; 1 bytes @ 0x2
  3605                           
  3606  004A                     I2C_ReadByte@rxByte:	
  3607                           ; 1 bytes @ 0x2
  3608                           
  3609  004A                     ___wmul@multiplicand:	
  3610                           ; 1 bytes @ 0x2
  3611                           
  3612                           
  3613                           ; 2 bytes @ 0x2
  3614  004A                     	ds	1
  3615  004B                     COS_Init@tempbyte1:
  3616  004B                     COS_TmrHandler@tempbyte1:	
  3617                           ; 1 bytes @ 0x3
  3618                           
  3619                           
  3620                           ; 1 bytes @ 0x3
  3621  004B                     	ds	1
  3622  004C                     ??___wmul:
  3623  004C                     COS_Init@tempbyte2:	
  3624                           ; 1 bytes @ 0x4
  3625                           
  3626  004C                     COS_TmrHandler@tempbyte2:	
  3627                           ; 1 bytes @ 0x4
  3628                           
  3629  004C                     ___wmul@product:	
  3630                           ; 1 bytes @ 0x4
  3631                           
  3632  004C                     ___lmul@multiplicand:	
  3633                           ; 2 bytes @ 0x4
  3634                           
  3635                           
  3636                           ; 4 bytes @ 0x4
  3637  004C                     	ds	4
  3638  0050                     ??___lmul:
  3639  0050                     ___lmul@product:	
  3640                           ; 1 bytes @ 0x8
  3641                           
  3642                           
  3643                           ; 4 bytes @ 0x8
  3644  0050                     	ds	4
  3645  0054                     ?_SHT2x_CalcTemperatureC:
  3646  0054                     ?_SHT2x_CalcRelativeHumidity:	
  3647                           ; 2 bytes @ 0xC
  3648                           
  3649                           
  3650                           ; 2 bytes @ 0xC
  3651  0054                     	ds	2
  3652  0056                     ??_SHT2x_CalcTemperatureC:
  3653  0056                     ??_SHT2x_CalcRelativeHumidity:	
  3654                           ; 1 bytes @ 0xE
  3655                           
  3656                           
  3657                           ; 1 bytes @ 0xE
  3658  0056                     	ds	1
  3659  0057                     SHT2x_CalcTemperatureC@Temperature_UBP8:
  3660  0057                     SHT2x_CalcRelativeHumidity@RelativeHumidity_UBP8:	
  3661                           ; 2 bytes @ 0xF
  3662                           
  3663                           
  3664                           ; 2 bytes @ 0xF
  3665  0057                     	ds	2
  3666  0059                     SHT2x_CalcTemperatureC@TemperatureTemp:
  3667  0059                     SHT2x_CalcRelativeHumidity@RelativeHumidityTemp:	
  3668                           ; 4 bytes @ 0x11
  3669                           
  3670                           
  3671                           ; 4 bytes @ 0x11
  3672  0059                     	ds	4
  3673  005D                     ??_SHT25_StateMachine:
  3674                           
  3675                           ; 1 bytes @ 0x15
  3676  005D                     	ds	2
  3677  005F                     ??_COS_TskMan:
  3678                           
  3679                           ; 1 bytes @ 0x17
  3680  005F                     	ds	2
  3681  0061                     ??_main:
  3682                           
  3683                           	psect	maintext
  3684  03FA                     __pmaintext:	
  3685                           ; 1 bytes @ 0x19
  3686 ;;
  3687 ;;Main: autosize = 0, tempsize = 0, incstack = 0, save=0
  3688 ;;
  3689 ;; *************** function _main *****************
  3690 ;; Defined at:
  3691 ;;		line 52 in file "main.c"
  3692 ;; Parameters:    Size  Location     Type
  3693 ;;		None
  3694 ;; Auto vars:     Size  Location     Type
  3695 ;;		None
  3696 ;; Return value:  Size  Location     Type
  3697 ;;                  1    wreg      void 
  3698 ;; Registers used:
  3699 ;;		wreg, fsr0l, fsr0h, status,2, status,0, pclath, cstack
  3700 ;; Tracked objects:
  3701 ;;		On entry : B1F/0
  3702 ;;		On exit  : 0/0
  3703 ;;		Unchanged: 0/0
  3704 ;; Data sizes:     COMMON   BANK0   BANK1   BANK2   BANK3   BANK4   BANK5   BANK6
  3705 ;;      Params:         0       0       0       0       0       0       0       0
  3706 ;;      Locals:         0       0       0       0       0       0       0       0
  3707 ;;      Temps:          0       0       0       0       0       0       0       0
  3708 ;;      Totals:         0       0       0       0       0       0       0       0
  3709 ;;Total ram usage:        0 bytes
  3710 ;; Hardware stack levels required when called:    9
  3711 ;; This function calls:
  3712 ;;		_COS_Init
  3713 ;;		_COS_TmrHandler
  3714 ;;		_COS_TskMan
  3715 ;;		_SYSTEM_Initialize
  3716 ;;		_TMR2_SetInterruptHandler
  3717 ;; This function is called by:
  3718 ;;		Startup code after reset
  3719 ;; This function uses a non-reentrant model
  3720 ;;
  3721                           
  3722                           
  3723                           ;psect for function _main
  3724  03FA                     _main:
  3725                           
  3726                           ;main.c: 55:     SYSTEM_Initialize();
  3727                           
  3728                           ;incstack = 0
  3729                           ; Regs used in _main: [wreg-fsr0h+status,2+status,0+pclath+cstack]
  3730  03FA  3184  247F  3183   	fcall	_SYSTEM_Initialize
  3731                           
  3732                           ;main.c: 56:     COS_Init();
  3733  03FD  3183  230E  3183   	fcall	_COS_Init
  3734                           
  3735                           ;main.c: 57:     TMR2_SetInterruptHandler(Led2_PWM);
  3736  0400  30B4               	movlw	low _Led2_PWM
  3737  0401  0020               	movlb	0	; select bank0
  3738  0402  00C8               	movwf	TMR2_SetInterruptHandler@InterruptHandler
  3739  0403  3001               	movlw	high _Led2_PWM
  3740  0404  00C9               	movwf	TMR2_SetInterruptHandler@InterruptHandler+1
  3741  0405  3184  24EE  3183   	fcall	_TMR2_SetInterruptHandler
  3742                           
  3743                           ;main.c: 63:     (INTCONbits.GIE = 1);
  3744  0408  178B               	bsf	11,7	;volatile
  3745                           
  3746                           ;main.c: 66:     (INTCONbits.PEIE = 1);
  3747  0409  170B               	bsf	11,6	;volatile
  3748  040A                     l451:	
  3749                           ;main.c: 74:     while (1)
  3750                           
  3751                           
  3752                           ;main.c: 75:     {;main.c: 76:         COS_TmrHandler();
  3753  040A  3182  221A  3183   	fcall	_COS_TmrHandler
  3754                           
  3755                           ;main.c: 78:         if (COS_tsk_ena)
  3756  040D  0020               	movlb	0	; select bank0
  3757  040E  0869               	movf	_COS_tsk_ena,w
  3758  040F  1903               	btfsc	3,2
  3759  0410  2C0A               	goto	l451
  3760                           
  3761                           ;main.c: 79:         {;main.c: 80:             COS_TskMan();
  3762  0411  3181  2145  3183   	fcall	_COS_TskMan
  3763  0414  2C0A               	goto	l451
  3764  0415                     __end_of_main:
  3765                           
  3766                           	psect	text1
  3767  047F                     __ptext1:	
  3768 ;; *************** function _SYSTEM_Initialize *****************
  3769 ;; Defined at:
  3770 ;;		line 50 in file "mcc_generated_files/mcc.c"
  3771 ;; Parameters:    Size  Location     Type
  3772 ;;		None
  3773 ;; Auto vars:     Size  Location     Type
  3774 ;;		None
  3775 ;; Return value:  Size  Location     Type
  3776 ;;                  1    wreg      void 
  3777 ;; Registers used:
  3778 ;;		wreg, status,2, status,0, pclath, cstack
  3779 ;; Tracked objects:
  3780 ;;		On entry : 0/0
  3781 ;;		On exit  : 0/0
  3782 ;;		Unchanged: 0/0
  3783 ;; Data sizes:     COMMON   BANK0   BANK1   BANK2   BANK3   BANK4   BANK5   BANK6
  3784 ;;      Params:         0       0       0       0       0       0       0       0
  3785 ;;      Locals:         0       0       0       0       0       0       0       0
  3786 ;;      Temps:          0       0       0       0       0       0       0       0
  3787 ;;      Totals:         0       0       0       0       0       0       0       0
  3788 ;;Total ram usage:        0 bytes
  3789 ;; Hardware stack levels used:    1
  3790 ;; Hardware stack levels required when called:    7
  3791 ;; This function calls:
  3792 ;;		_EUSART_Initialize
  3793 ;;		_OSCILLATOR_Initialize
  3794 ;;		_PIN_MANAGER_Initialize
  3795 ;;		_PWM1_Initialize
  3796 ;;		_TMR2_Initialize
  3797 ;; This function is called by:
  3798 ;;		_main
  3799 ;; This function uses a non-reentrant model
  3800 ;;
  3801                           
  3802                           
  3803                           ;psect for function _SYSTEM_Initialize
  3804  047F                     _SYSTEM_Initialize:
  3805                           
  3806                           ;mcc_generated_files/mcc.c: 54:     PIN_MANAGER_Initialize();
  3807                           
  3808                           ;incstack = 0
  3809                           ; Regs used in _SYSTEM_Initialize: [wreg+status,2+status,0+pclath+cstack]
  3810  047F  3184  2415  3184   	fcall	_PIN_MANAGER_Initialize
  3811                           
  3812                           ;mcc_generated_files/mcc.c: 55:     OSCILLATOR_Initialize();
  3813  0482  3184  24F4  3184   	fcall	_OSCILLATOR_Initialize
  3814                           
  3815                           ;mcc_generated_files/mcc.c: 57:     PWM1_Initialize();
  3816  0485  3184  24D0  3184   	fcall	_PWM1_Initialize
  3817                           
  3818                           ;mcc_generated_files/mcc.c: 59:     TMR2_Initialize();
  3819  0488  3184  246D  3184   	fcall	_TMR2_Initialize
  3820                           
  3821                           ;mcc_generated_files/mcc.c: 60:     EUSART_Initialize();
  3822  048B  3183  2379         	fcall	_EUSART_Initialize
  3823  048D  0008               	return
  3824  048E                     __end_of_SYSTEM_Initialize:
  3825                           
  3826                           	psect	text2
  3827  046D                     __ptext2:	
  3828 ;; *************** function _TMR2_Initialize *****************
  3829 ;; Defined at:
  3830 ;;		line 64 in file "mcc_generated_files/tmr2.c"
  3831 ;; Parameters:    Size  Location     Type
  3832 ;;		None
  3833 ;; Auto vars:     Size  Location     Type
  3834 ;;		None
  3835 ;; Return value:  Size  Location     Type
  3836 ;;                  1    wreg      void 
  3837 ;; Registers used:
  3838 ;;		wreg, status,2, status,0, pclath, cstack
  3839 ;; Tracked objects:
  3840 ;;		On entry : 0/0
  3841 ;;		On exit  : 0/0
  3842 ;;		Unchanged: 0/0
  3843 ;; Data sizes:     COMMON   BANK0   BANK1   BANK2   BANK3   BANK4   BANK5   BANK6
  3844 ;;      Params:         0       0       0       0       0       0       0       0
  3845 ;;      Locals:         0       0       0       0       0       0       0       0
  3846 ;;      Temps:          0       0       0       0       0       0       0       0
  3847 ;;      Totals:         0       0       0       0       0       0       0       0
  3848 ;;Total ram usage:        0 bytes
  3849 ;; Hardware stack levels used:    1
  3850 ;; Hardware stack levels required when called:    6
  3851 ;; This function calls:
  3852 ;;		_TMR2_SetInterruptHandler
  3853 ;; This function is called by:
  3854 ;;		_SYSTEM_Initialize
  3855 ;; This function uses a non-reentrant model
  3856 ;;
  3857                           
  3858                           
  3859                           ;psect for function _TMR2_Initialize
  3860  046D                     _TMR2_Initialize:
  3861                           
  3862                           ;mcc_generated_files/tmr2.c: 69:     PR2 = 0xF9;
  3863                           
  3864                           ;incstack = 0
  3865                           ; Regs used in _TMR2_Initialize: [wreg+status,2+status,0+pclath+cstack]
  3866  046D  30F9               	movlw	249
  3867  046E  0020               	movlb	0	; select bank0
  3868  046F  009B               	movwf	27	;volatile
  3869                           
  3870                           ;mcc_generated_files/tmr2.c: 72:     TMR2 = 0x00;
  3871  0470  019A               	clrf	26	;volatile
  3872                           
  3873                           ;mcc_generated_files/tmr2.c: 75:     PIR1bits.TMR2IF = 0;
  3874  0471  1091               	bcf	17,1	;volatile
  3875                           
  3876                           ;mcc_generated_files/tmr2.c: 78:     PIE1bits.TMR2IE = 1;
  3877  0472  0021               	movlb	1	; select bank1
  3878  0473  1491               	bsf	17,1	;volatile
  3879                           
  3880                           ;mcc_generated_files/tmr2.c: 81:     TMR2_SetInterruptHandler(TMR2_DefaultInterruptHandl
      +                          er);
  3881  0474  3015               	movlw	low _TMR2_DefaultInterruptHandler
  3882  0475  0020               	movlb	0	; select bank0
  3883  0476  00C8               	movwf	TMR2_SetInterruptHandler@InterruptHandler
  3884  0477  3005               	movlw	high _TMR2_DefaultInterruptHandler
  3885  0478  00C9               	movwf	TMR2_SetInterruptHandler@InterruptHandler+1
  3886  0479  3184  24EE         	fcall	_TMR2_SetInterruptHandler
  3887                           
  3888                           ;mcc_generated_files/tmr2.c: 84:     T2CON = 0x06;
  3889  047B  3006               	movlw	6
  3890  047C  0020               	movlb	0	; select bank0
  3891  047D  009C               	movwf	28	;volatile
  3892  047E  0008               	return
  3893  047F                     __end_of_TMR2_Initialize:
  3894                           
  3895                           	psect	text3
  3896  04EE                     __ptext3:	
  3897 ;; *************** function _TMR2_SetInterruptHandler *****************
  3898 ;; Defined at:
  3899 ;;		line 147 in file "mcc_generated_files/tmr2.c"
  3900 ;; Parameters:    Size  Location     Type
  3901 ;;  InterruptHan    2    0[BANK0 ] PTR FTN()void 
  3902 ;;		 -> Led2_PWM(1), TMR2_DefaultInterruptHandler(1), 
  3903 ;; Auto vars:     Size  Location     Type
  3904 ;;		None
  3905 ;; Return value:  Size  Location     Type
  3906 ;;                  1    wreg      void 
  3907 ;; Registers used:
  3908 ;;		wreg
  3909 ;; Tracked objects:
  3910 ;;		On entry : 0/0
  3911 ;;		On exit  : 0/0
  3912 ;;		Unchanged: 0/0
  3913 ;; Data sizes:     COMMON   BANK0   BANK1   BANK2   BANK3   BANK4   BANK5   BANK6
  3914 ;;      Params:         0       2       0       0       0       0       0       0
  3915 ;;      Locals:         0       0       0       0       0       0       0       0
  3916 ;;      Temps:          0       0       0       0       0       0       0       0
  3917 ;;      Totals:         0       2       0       0       0       0       0       0
  3918 ;;Total ram usage:        2 bytes
  3919 ;; Hardware stack levels used:    1
  3920 ;; Hardware stack levels required when called:    5
  3921 ;; This function calls:
  3922 ;;		Nothing
  3923 ;; This function is called by:
  3924 ;;		_TMR2_Initialize
  3925 ;;		_main
  3926 ;; This function uses a non-reentrant model
  3927 ;;
  3928                           
  3929                           
  3930                           ;psect for function _TMR2_SetInterruptHandler
  3931  04EE                     _TMR2_SetInterruptHandler:
  3932                           
  3933                           ;mcc_generated_files/tmr2.c: 148:     TMR2_InterruptHandler = InterruptHandler;
  3934                           
  3935                           ;incstack = 0
  3936                           ; Regs used in _TMR2_SetInterruptHandler: [wreg]
  3937  04EE  0020               	movlb	0	; select bank0
  3938  04EF  0849               	movf	TMR2_SetInterruptHandler@InterruptHandler+1,w
  3939  04F0  00E8               	movwf	_TMR2_InterruptHandler+1
  3940  04F1  0848               	movf	TMR2_SetInterruptHandler@InterruptHandler,w
  3941  04F2  00E7               	movwf	_TMR2_InterruptHandler
  3942  04F3  0008               	return
  3943  04F4                     __end_of_TMR2_SetInterruptHandler:
  3944                           
  3945                           	psect	text4
  3946  04D0                     __ptext4:	
  3947 ;; *************** function _PWM1_Initialize *****************
  3948 ;; Defined at:
  3949 ;;		line 58 in file "mcc_generated_files/pwm1.c"
  3950 ;; Parameters:    Size  Location     Type
  3951 ;;		None
  3952 ;; Auto vars:     Size  Location     Type
  3953 ;;		None
  3954 ;; Return value:  Size  Location     Type
  3955 ;;                  1    wreg      void 
  3956 ;; Registers used:
  3957 ;;		wreg
  3958 ;; Tracked objects:
  3959 ;;		On entry : 0/0
  3960 ;;		On exit  : 0/0
  3961 ;;		Unchanged: 0/0
  3962 ;; Data sizes:     COMMON   BANK0   BANK1   BANK2   BANK3   BANK4   BANK5   BANK6
  3963 ;;      Params:         0       0       0       0       0       0       0       0
  3964 ;;      Locals:         0       0       0       0       0       0       0       0
  3965 ;;      Temps:          0       0       0       0       0       0       0       0
  3966 ;;      Totals:         0       0       0       0       0       0       0       0
  3967 ;;Total ram usage:        0 bytes
  3968 ;; Hardware stack levels used:    1
  3969 ;; Hardware stack levels required when called:    5
  3970 ;; This function calls:
  3971 ;;		Nothing
  3972 ;; This function is called by:
  3973 ;;		_SYSTEM_Initialize
  3974 ;; This function uses a non-reentrant model
  3975 ;;
  3976                           
  3977                           
  3978                           ;psect for function _PWM1_Initialize
  3979  04D0                     _PWM1_Initialize:
  3980                           
  3981                           ;mcc_generated_files/pwm1.c: 62:     PWM1CON = 0xC0;
  3982                           
  3983                           ;incstack = 0
  3984                           ; Regs used in _PWM1_Initialize: [wreg]
  3985  04D0  30C0               	movlw	192
  3986  04D1  002C               	movlb	12	; select bank12
  3987  04D2  0093               	movwf	19	;volatile
  3988                           
  3989                           ;mcc_generated_files/pwm1.c: 65:     PWM1DCH = 0x7C;
  3990  04D3  307C               	movlw	124
  3991  04D4  0092               	movwf	18	;volatile
  3992                           
  3993                           ;mcc_generated_files/pwm1.c: 68:     PWM1DCL = 0xC0;
  3994  04D5  30C0               	movlw	192
  3995  04D6  0091               	movwf	17	;volatile
  3996  04D7  0008               	return
  3997  04D8                     __end_of_PWM1_Initialize:
  3998                           
  3999                           	psect	text5
  4000  0415                     __ptext5:	
  4001 ;; *************** function _PIN_MANAGER_Initialize *****************
  4002 ;; Defined at:
  4003 ;;		line 55 in file "mcc_generated_files/pin_manager.c"
  4004 ;; Parameters:    Size  Location     Type
  4005 ;;		None
  4006 ;; Auto vars:     Size  Location     Type
  4007 ;;		None
  4008 ;; Return value:  Size  Location     Type
  4009 ;;                  1    wreg      void 
  4010 ;; Registers used:
  4011 ;;		wreg, status,2
  4012 ;; Tracked objects:
  4013 ;;		On entry : 0/0
  4014 ;;		On exit  : 0/0
  4015 ;;		Unchanged: 0/0
  4016 ;; Data sizes:     COMMON   BANK0   BANK1   BANK2   BANK3   BANK4   BANK5   BANK6
  4017 ;;      Params:         0       0       0       0       0       0       0       0
  4018 ;;      Locals:         0       0       0       0       0       0       0       0
  4019 ;;      Temps:          0       0       0       0       0       0       0       0
  4020 ;;      Totals:         0       0       0       0       0       0       0       0
  4021 ;;Total ram usage:        0 bytes
  4022 ;; Hardware stack levels used:    1
  4023 ;; Hardware stack levels required when called:    5
  4024 ;; This function calls:
  4025 ;;		Nothing
  4026 ;; This function is called by:
  4027 ;;		_SYSTEM_Initialize
  4028 ;; This function uses a non-reentrant model
  4029 ;;
  4030                           
  4031                           
  4032                           ;psect for function _PIN_MANAGER_Initialize
  4033  0415                     _PIN_MANAGER_Initialize:
  4034                           
  4035                           ;mcc_generated_files/pin_manager.c: 60:     LATA = 0x00;
  4036                           
  4037                           ;incstack = 0
  4038                           ; Regs used in _PIN_MANAGER_Initialize: [wreg+status,2]
  4039  0415  0022               	movlb	2	; select bank2
  4040  0416  018C               	clrf	12	;volatile
  4041                           
  4042                           ;mcc_generated_files/pin_manager.c: 61:     LATB = 0x50;
  4043  0417  3050               	movlw	80
  4044  0418  008D               	movwf	13	;volatile
  4045                           
  4046                           ;mcc_generated_files/pin_manager.c: 62:     LATC = 0x00;
  4047  0419  018E               	clrf	14	;volatile
  4048                           
  4049                           ;mcc_generated_files/pin_manager.c: 67:     TRISA = 0x3F;
  4050  041A  303F               	movlw	63
  4051  041B  0021               	movlb	1	; select bank1
  4052  041C  008C               	movwf	12	;volatile
  4053                           
  4054                           ;mcc_generated_files/pin_manager.c: 68:     TRISB = 0x70;
  4055  041D  3070               	movlw	112
  4056  041E  008D               	movwf	13	;volatile
  4057                           
  4058                           ;mcc_generated_files/pin_manager.c: 69:     TRISC = 0x9B;
  4059  041F  309B               	movlw	155
  4060  0420  008E               	movwf	14	;volatile
  4061                           
  4062                           ;mcc_generated_files/pin_manager.c: 74:     ANSELC = 0x8B;
  4063  0421  308B               	movlw	139
  4064  0422  0023               	movlb	3	; select bank3
  4065  0423  008E               	movwf	14	;volatile
  4066                           
  4067                           ;mcc_generated_files/pin_manager.c: 75:     ANSELB = 0x00;
  4068  0424  018D               	clrf	13	;volatile
  4069                           
  4070                           ;mcc_generated_files/pin_manager.c: 76:     ANSELA = 0x17;
  4071  0425  3017               	movlw	23
  4072  0426  008C               	movwf	12	;volatile
  4073                           
  4074                           ;mcc_generated_files/pin_manager.c: 81:     WPUB = 0x00;
  4075  0427  0024               	movlb	4	; select bank4
  4076  0428  018D               	clrf	13	;volatile
  4077                           
  4078                           ;mcc_generated_files/pin_manager.c: 82:     WPUA = 0x00;
  4079  0429  018C               	clrf	12	;volatile
  4080                           
  4081                           ;mcc_generated_files/pin_manager.c: 83:     OPTION_REGbits.nWPUEN = 1;
  4082  042A  0021               	movlb	1	; select bank1
  4083  042B  1795               	bsf	21,7	;volatile
  4084                           
  4085                           ;mcc_generated_files/pin_manager.c: 89:     APFCON = 0x00;
  4086  042C  0022               	movlb	2	; select bank2
  4087  042D  019D               	clrf	29	;volatile
  4088  042E  0008               	return
  4089  042F                     __end_of_PIN_MANAGER_Initialize:
  4090                           
  4091                           	psect	text6
  4092  04F4                     __ptext6:	
  4093 ;; *************** function _OSCILLATOR_Initialize *****************
  4094 ;; Defined at:
  4095 ;;		line 63 in file "mcc_generated_files/mcc.c"
  4096 ;; Parameters:    Size  Location     Type
  4097 ;;		None
  4098 ;; Auto vars:     Size  Location     Type
  4099 ;;		None
  4100 ;; Return value:  Size  Location     Type
  4101 ;;                  1    wreg      void 
  4102 ;; Registers used:
  4103 ;;		wreg, status,2
  4104 ;; Tracked objects:
  4105 ;;		On entry : 0/0
  4106 ;;		On exit  : 0/0
  4107 ;;		Unchanged: 0/0
  4108 ;; Data sizes:     COMMON   BANK0   BANK1   BANK2   BANK3   BANK4   BANK5   BANK6
  4109 ;;      Params:         0       0       0       0       0       0       0       0
  4110 ;;      Locals:         0       0       0       0       0       0       0       0
  4111 ;;      Temps:          0       0       0       0       0       0       0       0
  4112 ;;      Totals:         0       0       0       0       0       0       0       0
  4113 ;;Total ram usage:        0 bytes
  4114 ;; Hardware stack levels used:    1
  4115 ;; Hardware stack levels required when called:    5
  4116 ;; This function calls:
  4117 ;;		Nothing
  4118 ;; This function is called by:
  4119 ;;		_SYSTEM_Initialize
  4120 ;; This function uses a non-reentrant model
  4121 ;;
  4122                           
  4123                           
  4124                           ;psect for function _OSCILLATOR_Initialize
  4125  04F4                     _OSCILLATOR_Initialize:
  4126                           
  4127                           ;mcc_generated_files/mcc.c: 66:     OSCCON = 0x78;
  4128                           
  4129                           ;incstack = 0
  4130                           ; Regs used in _OSCILLATOR_Initialize: [wreg+status,2]
  4131  04F4  3078               	movlw	120
  4132  04F5  0021               	movlb	1	; select bank1
  4133  04F6  0099               	movwf	25	;volatile
  4134                           
  4135                           ;mcc_generated_files/mcc.c: 68:     BORCON = 0x00;
  4136  04F7  0022               	movlb	2	; select bank2
  4137  04F8  0196               	clrf	22	;volatile
  4138  04F9  0008               	return
  4139  04FA                     __end_of_OSCILLATOR_Initialize:
  4140                           
  4141                           	psect	text7
  4142  0379                     __ptext7:	
  4143 ;; *************** function _EUSART_Initialize *****************
  4144 ;; Defined at:
  4145 ;;		line 66 in file "mcc_generated_files/eusart.c"
  4146 ;; Parameters:    Size  Location     Type
  4147 ;;		None
  4148 ;; Auto vars:     Size  Location     Type
  4149 ;;		None
  4150 ;; Return value:  Size  Location     Type
  4151 ;;                  1    wreg      void 
  4152 ;; Registers used:
  4153 ;;		wreg, status,2, status,0, pclath, cstack
  4154 ;; Tracked objects:
  4155 ;;		On entry : 0/0
  4156 ;;		On exit  : 0/0
  4157 ;;		Unchanged: 0/0
  4158 ;; Data sizes:     COMMON   BANK0   BANK1   BANK2   BANK3   BANK4   BANK5   BANK6
  4159 ;;      Params:         0       0       0       0       0       0       0       0
  4160 ;;      Locals:         0       0       0       0       0       0       0       0
  4161 ;;      Temps:          0       0       0       0       0       0       0       0
  4162 ;;      Totals:         0       0       0       0       0       0       0       0
  4163 ;;Total ram usage:        0 bytes
  4164 ;; Hardware stack levels used:    1
  4165 ;; Hardware stack levels required when called:    6
  4166 ;; This function calls:
  4167 ;;		_EUSART_SetErrorHandler
  4168 ;;		_EUSART_SetFramingErrorHandler
  4169 ;;		_EUSART_SetOverrunErrorHandler
  4170 ;; This function is called by:
  4171 ;;		_SYSTEM_Initialize
  4172 ;; This function uses a non-reentrant model
  4173 ;;
  4174                           
  4175                           
  4176                           ;psect for function _EUSART_Initialize
  4177  0379                     _EUSART_Initialize:
  4178                           
  4179                           ;mcc_generated_files/eusart.c: 71:     BAUDCON = 0x08;
  4180                           
  4181                           ;incstack = 0
  4182                           ; Regs used in _EUSART_Initialize: [wreg+status,2+status,0+pclath+cstack]
  4183  0379  3008               	movlw	8
  4184  037A  0023               	movlb	3	; select bank3
  4185  037B  009F               	movwf	31	;volatile
  4186                           
  4187                           ;mcc_generated_files/eusart.c: 74:     RCSTA = 0x90;
  4188  037C  3090               	movlw	144
  4189  037D  009D               	movwf	29	;volatile
  4190                           
  4191                           ;mcc_generated_files/eusart.c: 77:     TXSTA = 0x24;
  4192  037E  3024               	movlw	36
  4193  037F  009E               	movwf	30	;volatile
  4194                           
  4195                           ;mcc_generated_files/eusart.c: 80:     SPBRGL = 0xA0;
  4196  0380  30A0               	movlw	160
  4197  0381  009B               	movwf	27	;volatile
  4198                           
  4199                           ;mcc_generated_files/eusart.c: 83:     SPBRGH = 0x01;
  4200  0382  3001               	movlw	1
  4201  0383  009C               	movwf	28	;volatile
  4202                           
  4203                           ;mcc_generated_files/eusart.c: 86:     EUSART_SetFramingErrorHandler(EUSART_DefaultFrami
      +                          ngErrorHandler);
  4204  0384  3000               	movlw	0
  4205  0385  0020               	movlb	0	; select bank0
  4206  0386  00C8               	movwf	EUSART_SetFramingErrorHandler@interruptHandler
  4207  0387  3000               	movlw	0
  4208  0388  00C9               	movwf	EUSART_SetFramingErrorHandler@interruptHandler+1
  4209  0389  3185  2500  3183   	fcall	_EUSART_SetFramingErrorHandler
  4210                           
  4211                           ;mcc_generated_files/eusart.c: 87:     EUSART_SetOverrunErrorHandler(EUSART_DefaultOverr
      +                          unErrorHandler);
  4212  038C  3000               	movlw	0
  4213  038D  0020               	movlb	0	; select bank0
  4214  038E  00C8               	movwf	EUSART_SetOverrunErrorHandler@interruptHandler
  4215  038F  3000               	movlw	0
  4216  0390  00C9               	movwf	EUSART_SetOverrunErrorHandler@interruptHandler+1
  4217  0391  3184  24FA  3183   	fcall	_EUSART_SetOverrunErrorHandler
  4218                           
  4219                           ;mcc_generated_files/eusart.c: 88:     EUSART_SetErrorHandler(EUSART_DefaultErrorHandler
      +                          );
  4220  0394  3000               	movlw	0
  4221  0395  0020               	movlb	0	; select bank0
  4222  0396  00C8               	movwf	EUSART_SetErrorHandler@interruptHandler
  4223  0397  3000               	movlw	0
  4224  0398  00C9               	movwf	EUSART_SetErrorHandler@interruptHandler+1
  4225  0399  3185  2506         	fcall	_EUSART_SetErrorHandler
  4226                           
  4227                           ;mcc_generated_files/eusart.c: 90:     eusartRxLastError.status = 0;
  4228  039B  0020               	movlb	0	; select bank0
  4229  039C  01C6               	clrf	_eusartRxLastError	;volatile
  4230  039D  0008               	return
  4231  039E                     __end_of_EUSART_Initialize:
  4232                           
  4233                           	psect	text8
  4234  04FA                     __ptext8:	
  4235 ;; *************** function _EUSART_SetOverrunErrorHandler *****************
  4236 ;; Defined at:
  4237 ;;		line 161 in file "mcc_generated_files/eusart.c"
  4238 ;; Parameters:    Size  Location     Type
  4239 ;;  interruptHan    2    0[BANK0 ] PTR FTN()void 
  4240 ;;		 -> EUSART_DefaultOverrunErrorHandler(1), 
  4241 ;; Auto vars:     Size  Location     Type
  4242 ;;		None
  4243 ;; Return value:  Size  Location     Type
  4244 ;;                  1    wreg      void 
  4245 ;; Registers used:
  4246 ;;		wreg
  4247 ;; Tracked objects:
  4248 ;;		On entry : 0/0
  4249 ;;		On exit  : 0/0
  4250 ;;		Unchanged: 0/0
  4251 ;; Data sizes:     COMMON   BANK0   BANK1   BANK2   BANK3   BANK4   BANK5   BANK6
  4252 ;;      Params:         0       2       0       0       0       0       0       0
  4253 ;;      Locals:         0       0       0       0       0       0       0       0
  4254 ;;      Temps:          0       0       0       0       0       0       0       0
  4255 ;;      Totals:         0       2       0       0       0       0       0       0
  4256 ;;Total ram usage:        2 bytes
  4257 ;; Hardware stack levels used:    1
  4258 ;; Hardware stack levels required when called:    5
  4259 ;; This function calls:
  4260 ;;		Nothing
  4261 ;; This function is called by:
  4262 ;;		_EUSART_Initialize
  4263 ;; This function uses a non-reentrant model
  4264 ;;
  4265                           
  4266                           
  4267                           ;psect for function _EUSART_SetOverrunErrorHandler
  4268  04FA                     _EUSART_SetOverrunErrorHandler:
  4269                           
  4270                           ;mcc_generated_files/eusart.c: 162:     EUSART_OverrunErrorHandler = interruptHandler;
  4271                           
  4272                           ;incstack = 0
  4273                           ; Regs used in _EUSART_SetOverrunErrorHandler: [wreg]
  4274  04FA  0020               	movlb	0	; select bank0
  4275  04FB  0849               	movf	EUSART_SetOverrunErrorHandler@interruptHandler+1,w
  4276  04FC  00E4               	movwf	_EUSART_OverrunErrorHandler+1
  4277  04FD  0848               	movf	EUSART_SetOverrunErrorHandler@interruptHandler,w
  4278  04FE  00E3               	movwf	_EUSART_OverrunErrorHandler
  4279  04FF  0008               	return
  4280  0500                     __end_of_EUSART_SetOverrunErrorHandler:
  4281                           
  4282                           	psect	text9
  4283  0500                     __ptext9:	
  4284 ;; *************** function _EUSART_SetFramingErrorHandler *****************
  4285 ;; Defined at:
  4286 ;;		line 157 in file "mcc_generated_files/eusart.c"
  4287 ;; Parameters:    Size  Location     Type
  4288 ;;  interruptHan    2    0[BANK0 ] PTR FTN()void 
  4289 ;;		 -> EUSART_DefaultFramingErrorHandler(1), 
  4290 ;; Auto vars:     Size  Location     Type
  4291 ;;		None
  4292 ;; Return value:  Size  Location     Type
  4293 ;;                  1    wreg      void 
  4294 ;; Registers used:
  4295 ;;		wreg
  4296 ;; Tracked objects:
  4297 ;;		On entry : 0/0
  4298 ;;		On exit  : 0/0
  4299 ;;		Unchanged: 0/0
  4300 ;; Data sizes:     COMMON   BANK0   BANK1   BANK2   BANK3   BANK4   BANK5   BANK6
  4301 ;;      Params:         0       2       0       0       0       0       0       0
  4302 ;;      Locals:         0       0       0       0       0       0       0       0
  4303 ;;      Temps:          0       0       0       0       0       0       0       0
  4304 ;;      Totals:         0       2       0       0       0       0       0       0
  4305 ;;Total ram usage:        2 bytes
  4306 ;; Hardware stack levels used:    1
  4307 ;; Hardware stack levels required when called:    5
  4308 ;; This function calls:
  4309 ;;		Nothing
  4310 ;; This function is called by:
  4311 ;;		_EUSART_Initialize
  4312 ;; This function uses a non-reentrant model
  4313 ;;
  4314                           
  4315                           
  4316                           ;psect for function _EUSART_SetFramingErrorHandler
  4317  0500                     _EUSART_SetFramingErrorHandler:
  4318                           
  4319                           ;mcc_generated_files/eusart.c: 158:     EUSART_FramingErrorHandler = interruptHandler;
  4320                           
  4321                           ;incstack = 0
  4322                           ; Regs used in _EUSART_SetFramingErrorHandler: [wreg]
  4323  0500  0020               	movlb	0	; select bank0
  4324  0501  0849               	movf	EUSART_SetFramingErrorHandler@interruptHandler+1,w
  4325  0502  00E6               	movwf	_EUSART_FramingErrorHandler+1
  4326  0503  0848               	movf	EUSART_SetFramingErrorHandler@interruptHandler,w
  4327  0504  00E5               	movwf	_EUSART_FramingErrorHandler
  4328  0505  0008               	return
  4329  0506                     __end_of_EUSART_SetFramingErrorHandler:
  4330                           
  4331                           	psect	text10
  4332  0506                     __ptext10:	
  4333 ;; *************** function _EUSART_SetErrorHandler *****************
  4334 ;; Defined at:
  4335 ;;		line 165 in file "mcc_generated_files/eusart.c"
  4336 ;; Parameters:    Size  Location     Type
  4337 ;;  interruptHan    2    0[BANK0 ] PTR FTN()void 
  4338 ;;		 -> EUSART_DefaultErrorHandler(1), 
  4339 ;; Auto vars:     Size  Location     Type
  4340 ;;		None
  4341 ;; Return value:  Size  Location     Type
  4342 ;;                  1    wreg      void 
  4343 ;; Registers used:
  4344 ;;		wreg
  4345 ;; Tracked objects:
  4346 ;;		On entry : 0/0
  4347 ;;		On exit  : 0/0
  4348 ;;		Unchanged: 0/0
  4349 ;; Data sizes:     COMMON   BANK0   BANK1   BANK2   BANK3   BANK4   BANK5   BANK6
  4350 ;;      Params:         0       2       0       0       0       0       0       0
  4351 ;;      Locals:         0       0       0       0       0       0       0       0
  4352 ;;      Temps:          0       0       0       0       0       0       0       0
  4353 ;;      Totals:         0       2       0       0       0       0       0       0
  4354 ;;Total ram usage:        2 bytes
  4355 ;; Hardware stack levels used:    1
  4356 ;; Hardware stack levels required when called:    5
  4357 ;; This function calls:
  4358 ;;		Nothing
  4359 ;; This function is called by:
  4360 ;;		_EUSART_Initialize
  4361 ;; This function uses a non-reentrant model
  4362 ;;
  4363                           
  4364                           
  4365                           ;psect for function _EUSART_SetErrorHandler
  4366  0506                     _EUSART_SetErrorHandler:
  4367                           
  4368                           ;mcc_generated_files/eusart.c: 166:     EUSART_ErrorHandler = interruptHandler;
  4369                           
  4370                           ;incstack = 0
  4371                           ; Regs used in _EUSART_SetErrorHandler: [wreg]
  4372  0506  0020               	movlb	0	; select bank0
  4373  0507  0849               	movf	EUSART_SetErrorHandler@interruptHandler+1,w
  4374  0508  00E2               	movwf	_EUSART_ErrorHandler+1
  4375  0509  0848               	movf	EUSART_SetErrorHandler@interruptHandler,w
  4376  050A  00E1               	movwf	_EUSART_ErrorHandler
  4377  050B  0008               	return
  4378  050C                     __end_of_EUSART_SetErrorHandler:
  4379                           
  4380                           	psect	text11
  4381  0145                     __ptext11:	
  4382 ;; *************** function _COS_TskMan *****************
  4383 ;; Defined at:
  4384 ;;		line 133 in file "SourceFiles/COS/COS_Main.c"
  4385 ;; Parameters:    Size  Location     Type
  4386 ;;		None
  4387 ;; Auto vars:     Size  Location     Type
  4388 ;;		None
  4389 ;; Return value:  Size  Location     Type
  4390 ;;                  1    wreg      void 
  4391 ;; Registers used:
  4392 ;;		wreg, fsr0l, fsr0h, status,2, status,0, pclath, cstack
  4393 ;; Tracked objects:
  4394 ;;		On entry : 0/0
  4395 ;;		On exit  : 0/0
  4396 ;;		Unchanged: 0/0
  4397 ;; Data sizes:     COMMON   BANK0   BANK1   BANK2   BANK3   BANK4   BANK5   BANK6
  4398 ;;      Params:         0       0       0       0       0       0       0       0
  4399 ;;      Locals:         0       0       0       0       0       0       0       0
  4400 ;;      Temps:          0       2       0       0       0       0       0       0
  4401 ;;      Totals:         0       2       0       0       0       0       0       0
  4402 ;;Total ram usage:        2 bytes
  4403 ;; Hardware stack levels used:    1
  4404 ;; Hardware stack levels required when called:    8
  4405 ;; This function calls:
  4406 ;;		_SHT25_StateMachine
  4407 ;;		_UartDisplay
  4408 ;;		___wmul
  4409 ;; This function is called by:
  4410 ;;		_main
  4411 ;; This function uses a non-reentrant model
  4412 ;;
  4413                           
  4414                           
  4415                           ;psect for function _COS_TskMan
  4416  0145                     _COS_TskMan:
  4417                           
  4418                           ;SourceFiles/COS/COS_Main.c: 135:  if ((COS_tsk[COS_tsk_ind].sched & COS_tsk_msk) != 0)
  4419                           
  4420                           ;incstack = 0
  4421                           ; Regs used in _COS_TskMan: [wreg-fsr0h+status,2+status,0+pclath+cstack]
  4422  0145  0020               	movlb	0	; select bank0
  4423  0146  0847               	movf	_COS_tsk_ind,w
  4424  0147  00DF               	movwf	??_COS_TskMan
  4425  0148  01E0               	clrf	??_COS_TskMan+1
  4426  0149  085F               	movf	??_COS_TskMan,w
  4427  014A  00C8               	movwf	___wmul@multiplier
  4428  014B  0860               	movf	??_COS_TskMan+1,w
  4429  014C  00C9               	movwf	___wmul@multiplier+1
  4430  014D  3003               	movlw	3
  4431  014E  00CA               	movwf	___wmul@multiplicand
  4432  014F  3000               	movlw	0
  4433  0150  00CB               	movwf	___wmul@multiplicand+1
  4434  0151  3183  23DE  3181   	fcall	___wmul
  4435  0154  0020               	movlb	0	; select bank0
  4436  0155  0849               	movf	?___wmul+1,w
  4437  0156  0085               	movwf	5
  4438  0157  0848               	movf	?___wmul,w
  4439  0158  0084               	movwf	4
  4440  0159  309D               	movlw	low ((_COS_tsk+2)| (0+32768))
  4441  015A  0784               	addwf	4,f
  4442  015B  3084               	movlw	high ((_COS_tsk+2)| (0+32768))
  4443  015C  3D85               	addwfc	5,f
  4444  015D  0800               	movf	0,w	;code access
  4445  015E  056A               	andwf	_COS_tsk_msk,w
  4446  015F  1903               	btfsc	3,2
  4447  0160  297D               	goto	l4056
  4448                           
  4449                           ;SourceFiles/COS/COS_Main.c: 136:  {;SourceFiles/COS/COS_Main.c: 143:   (*COS_tsk[COS_ts
      +                          k_ind].tptr)();
  4450  0161  0847               	movf	_COS_tsk_ind,w
  4451  0162  00DF               	movwf	??_COS_TskMan
  4452  0163  01E0               	clrf	??_COS_TskMan+1
  4453  0164  085F               	movf	??_COS_TskMan,w
  4454  0165  00C8               	movwf	___wmul@multiplier
  4455  0166  0860               	movf	??_COS_TskMan+1,w
  4456  0167  00C9               	movwf	___wmul@multiplier+1
  4457  0168  3003               	movlw	3
  4458  0169  00CA               	movwf	___wmul@multiplicand
  4459  016A  3000               	movlw	0
  4460  016B  00CB               	movwf	___wmul@multiplicand+1
  4461  016C  3183  23DE  3181   	fcall	___wmul
  4462  016F  0020               	movlb	0	; select bank0
  4463  0170  0849               	movf	?___wmul+1,w
  4464  0171  0085               	movwf	5
  4465  0172  0848               	movf	?___wmul,w
  4466  0173  0084               	movwf	4
  4467  0174  309B               	movlw	low (_COS_tsk| (0+32768))
  4468  0175  0784               	addwf	4,f
  4469  0176  3084               	movlw	high (_COS_tsk| (0+32768))
  4470  0177  3D85               	addwfc	5,f
  4471  0178  3F01               	moviw [1]fsr0
  4472  0179  008A               	movwf	10
  4473  017A  3F00               	moviw [0]fsr0
  4474  017B  000A               	callw
  4475  017C  3181               	pagesel	$
  4476  017D                     l4056:
  4477                           
  4478                           ;SourceFiles/COS/COS_Main.c: 150:  COS_tsk_ind++;
  4479  017D  3001               	movlw	1
  4480  017E  0020               	movlb	0	; select bank0
  4481  017F  00DF               	movwf	??_COS_TskMan
  4482  0180  085F               	movf	??_COS_TskMan,w
  4483  0181  07C7               	addwf	_COS_tsk_ind,f
  4484                           
  4485                           ;SourceFiles/COS/COS_Main.c: 151:  if (COS_tsk_ind >= (2 +2))
  4486  0182  3004               	movlw	4
  4487  0183  0247               	subwf	_COS_tsk_ind,w
  4488  0184  1C03               	skipc
  4489  0185  0008               	return
  4490                           
  4491                           ;SourceFiles/COS/COS_Main.c: 152:  {;SourceFiles/COS/COS_Main.c: 153:   COS_tsk_ena = 0;
  4492  0186  01E9               	clrf	_COS_tsk_ena
  4493                           
  4494                           ;SourceFiles/COS/COS_Main.c: 154:   COS_tsk_ind = 0;
  4495  0187  01C7               	clrf	_COS_tsk_ind
  4496                           
  4497                           ;SourceFiles/COS/COS_Main.c: 157:   if (!((COS_tsk_msk == 0x80) ||
  4498  0188  3080               	movlw	128
  4499  0189  066A               	xorwf	_COS_tsk_msk,w
  4500  018A  1903               	btfsc	3,2
  4501  018B  29A8               	goto	l4078
  4502  018C  3040               	movlw	64
  4503  018D  066A               	xorwf	_COS_tsk_msk,w
  4504  018E  1903               	btfsc	3,2
  4505  018F  29A8               	goto	l4078
  4506  0190  3020               	movlw	32
  4507  0191  066A               	xorwf	_COS_tsk_msk,w
  4508  0192  1903               	btfsc	3,2
  4509  0193  29A8               	goto	l4078
  4510  0194  3010               	movlw	16
  4511  0195  066A               	xorwf	_COS_tsk_msk,w
  4512  0196  1903               	btfsc	3,2
  4513  0197  29A8               	goto	l4078
  4514  0198  3008               	movlw	8
  4515  0199  066A               	xorwf	_COS_tsk_msk,w
  4516  019A  1903               	btfsc	3,2
  4517  019B  29A8               	goto	l4078
  4518  019C  3004               	movlw	4
  4519  019D  066A               	xorwf	_COS_tsk_msk,w
  4520  019E  1903               	btfsc	3,2
  4521  019F  29A8               	goto	l4078
  4522  01A0  3002               	movlw	2
  4523  01A1  066A               	xorwf	_COS_tsk_msk,w
  4524  01A2  1903               	btfsc	3,2
  4525  01A3  29A8               	goto	l4078
  4526  01A4  036A               	decf	_COS_tsk_msk,w
  4527  01A5  1903               	btfsc	3,2
  4528  01A6  29A8               	goto	l4078
  4529  01A7                     l47:	
  4530                           ;SourceFiles/COS/COS_Main.c: 165:   {;SourceFiles/COS/COS_Main.c: 169:     while(1);
  4531                           
  4532  01A7  29A7               	goto	l47
  4533  01A8                     l4078:
  4534                           
  4535                           ;SourceFiles/COS/COS_Main.c: 174:   COS_tsk_msk = COS_tsk_msk >> 1;
  4536  01A8  366A               	lsrf	_COS_tsk_msk,w
  4537  01A9  00DF               	movwf	??_COS_TskMan
  4538  01AA  085F               	movf	??_COS_TskMan,w
  4539  01AB  00EA               	movwf	_COS_tsk_msk
  4540                           
  4541                           ;SourceFiles/COS/COS_Main.c: 175:   if (COS_tsk_msk == 0x00)
  4542  01AC  086A               	movf	_COS_tsk_msk,w
  4543  01AD  1D03               	btfss	3,2
  4544  01AE  0008               	return
  4545                           
  4546                           ;SourceFiles/COS/COS_Main.c: 176:   {;SourceFiles/COS/COS_Main.c: 177:    COS_tsk_msk = 
      +                          0x80;
  4547  01AF  3080               	movlw	128
  4548  01B0  00DF               	movwf	??_COS_TskMan
  4549  01B1  085F               	movf	??_COS_TskMan,w
  4550  01B2  00EA               	movwf	_COS_tsk_msk
  4551  01B3  0008               	return
  4552  01B4                     __end_of_COS_TskMan:
  4553                           
  4554                           	psect	text12
  4555  03DE                     __ptext12:	
  4556 ;; *************** function ___wmul *****************
  4557 ;; Defined at:
  4558 ;;		line 15 in file "C:\Program Files\Microchip\xc8\v2.20\pic\sources\c99\common\Umul16.c"
  4559 ;; Parameters:    Size  Location     Type
  4560 ;;  multiplier      2    0[BANK0 ] unsigned int 
  4561 ;;  multiplicand    2    2[BANK0 ] unsigned int 
  4562 ;; Auto vars:     Size  Location     Type
  4563 ;;  product         2    4[BANK0 ] unsigned int 
  4564 ;; Return value:  Size  Location     Type
  4565 ;;                  2    0[BANK0 ] unsigned int 
  4566 ;; Registers used:
  4567 ;;		wreg, status,2, status,0
  4568 ;; Tracked objects:
  4569 ;;		On entry : 0/0
  4570 ;;		On exit  : 0/0
  4571 ;;		Unchanged: 0/0
  4572 ;; Data sizes:     COMMON   BANK0   BANK1   BANK2   BANK3   BANK4   BANK5   BANK6
  4573 ;;      Params:         0       4       0       0       0       0       0       0
  4574 ;;      Locals:         0       2       0       0       0       0       0       0
  4575 ;;      Temps:          0       0       0       0       0       0       0       0
  4576 ;;      Totals:         0       6       0       0       0       0       0       0
  4577 ;;Total ram usage:        6 bytes
  4578 ;; Hardware stack levels used:    1
  4579 ;; Hardware stack levels required when called:    5
  4580 ;; This function calls:
  4581 ;;		Nothing
  4582 ;; This function is called by:
  4583 ;;		_COS_TskMan
  4584 ;; This function uses a non-reentrant model
  4585 ;;
  4586                           
  4587                           
  4588                           ;psect for function ___wmul
  4589  03DE                     ___wmul:
  4590                           
  4591                           ;incstack = 0
  4592                           ; Regs used in ___wmul: [wreg+status,2+status,0]
  4593  03DE  0020               	movlb	0	; select bank0
  4594  03DF  01CC               	clrf	___wmul@product
  4595  03E0  01CD               	clrf	___wmul@product+1
  4596  03E1                     l3992:
  4597  03E1  1C48               	btfss	___wmul@multiplier,0
  4598  03E2  2BE7               	goto	l1100
  4599  03E3  084A               	movf	___wmul@multiplicand,w
  4600  03E4  07CC               	addwf	___wmul@product,f
  4601  03E5  084B               	movf	___wmul@multiplicand+1,w
  4602  03E6  3DCD               	addwfc	___wmul@product+1,f
  4603  03E7                     l1100:
  4604  03E7  3001               	movlw	1
  4605  03E8                     u2175:
  4606  03E8  35CA               	lslf	___wmul@multiplicand,f
  4607  03E9  0DCB               	rlf	___wmul@multiplicand+1,f
  4608  03EA  0B89               	decfsz	9,f
  4609  03EB  2BE8               	goto	u2175
  4610  03EC  3001               	movlw	1
  4611  03ED                     u2185:
  4612  03ED  36C9               	lsrf	___wmul@multiplier+1,f
  4613  03EE  0CC8               	rrf	___wmul@multiplier,f
  4614  03EF  0B89               	decfsz	9,f
  4615  03F0  2BED               	goto	u2185
  4616  03F1  0848               	movf	___wmul@multiplier,w
  4617  03F2  0449               	iorwf	___wmul@multiplier+1,w
  4618  03F3  1D03               	btfss	3,2
  4619  03F4  2BE1               	goto	l3992
  4620  03F5  084D               	movf	___wmul@product+1,w
  4621  03F6  00C9               	movwf	?___wmul+1
  4622  03F7  084C               	movf	___wmul@product,w
  4623  03F8  00C8               	movwf	?___wmul
  4624  03F9  0008               	return
  4625  03FA                     __end_of___wmul:
  4626                           
  4627                           	psect	text13
  4628  0037                     __ptext13:	
  4629 ;; *************** function _SHT25_StateMachine *****************
  4630 ;; Defined at:
  4631 ;;		line 34 in file "SourceFiles/SunSensor/SHT25.c"
  4632 ;; Parameters:    Size  Location     Type
  4633 ;;		None
  4634 ;; Auto vars:     Size  Location     Type
  4635 ;;		None
  4636 ;; Return value:  Size  Location     Type
  4637 ;;                  1    wreg      void 
  4638 ;; Registers used:
  4639 ;;		wreg, fsr0l, fsr0h, status,2, status,0, pclath, cstack
  4640 ;; Tracked objects:
  4641 ;;		On entry : 0/0
  4642 ;;		On exit  : 0/0
  4643 ;;		Unchanged: 0/0
  4644 ;; Data sizes:     COMMON   BANK0   BANK1   BANK2   BANK3   BANK4   BANK5   BANK6
  4645 ;;      Params:         0       0       0       0       0       0       0       0
  4646 ;;      Locals:         0       0       0       0       0       0       0       0
  4647 ;;      Temps:          0       2       0       0       0       0       0       0
  4648 ;;      Totals:         0       2       0       0       0       0       0       0
  4649 ;;Total ram usage:        2 bytes
  4650 ;; Hardware stack levels used:    1
  4651 ;; Hardware stack levels required when called:    7
  4652 ;; This function calls:
  4653 ;;		_I2C_Init
  4654 ;;		_I2C_ReadByte
  4655 ;;		_I2C_StartCondition
  4656 ;;		_I2C_StopCondition
  4657 ;;		_I2C_WriteByte
  4658 ;;		_SHT25_FaultHand
  4659 ;;		_SHT2x_CalcRelativeHumidity
  4660 ;;		_SHT2x_CalcTemperatureC
  4661 ;; This function is called by:
  4662 ;;		_COS_TskMan
  4663 ;; This function uses a non-reentrant model
  4664 ;;
  4665                           
  4666                           
  4667                           ;psect for function _SHT25_StateMachine
  4668  0037                     _SHT25_StateMachine:
  4669                           
  4670                           ;SourceFiles/SunSensor/SHT25.c: 36:     switch(SHT25_State)
  4671                           
  4672                           ;incstack = 0
  4673                           ; Regs used in _SHT25_StateMachine: [wreg-fsr0h+status,2+status,0+pclath+cstack]
  4674  0037  2924               	goto	l3984
  4675  0038                     l3890:
  4676                           
  4677                           ;SourceFiles/SunSensor/SHT25.c: 39:             I2C_Init();
  4678  0038  3184  248E         	fcall	_I2C_Init
  4679                           
  4680                           ;SourceFiles/SunSensor/SHT25.c: 40:             SHT25_Fault = 0;
  4681  003A  0020               	movlb	0	; select bank0
  4682  003B  01C2               	clrf	_SHT25_Fault
  4683                           
  4684                           ;SourceFiles/SunSensor/SHT25.c: 41:             SHT25_State = SHT25_MEASURE_TEMP_0;
  4685  003C  01BC               	clrf	_SHT25_State
  4686  003D  0ABC               	incf	_SHT25_State,f
  4687                           
  4688                           ;SourceFiles/SunSensor/SHT25.c: 42:             break;
  4689  003E  0008               	return
  4690  003F                     l3896:
  4691                           
  4692                           ;SourceFiles/SunSensor/SHT25.c: 44:             I2C_StartCondition();
  4693  003F  3184  24C7  3180   	fcall	_I2C_StartCondition
  4694                           
  4695                           ;SourceFiles/SunSensor/SHT25.c: 45:             ErrorStat |= I2C_WriteByte(128);
  4696  0042  3080               	movlw	128
  4697  0043  3184  2445  3180   	fcall	_I2C_WriteByte
  4698  0046  0020               	movlb	0	; select bank0
  4699  0047  00DD               	movwf	??_SHT25_StateMachine
  4700  0048  085D               	movf	??_SHT25_StateMachine,w
  4701  0049  04F8               	iorwf	_ErrorStat,f
  4702                           
  4703                           ;SourceFiles/SunSensor/SHT25.c: 46:             ErrorStat |= I2C_WriteByte(0xF3);
  4704  004A  30F3               	movlw	243
  4705  004B  3184  2445  3180   	fcall	_I2C_WriteByte
  4706  004E  0020               	movlb	0	; select bank0
  4707  004F  00DD               	movwf	??_SHT25_StateMachine
  4708  0050  085D               	movf	??_SHT25_StateMachine,w
  4709  0051  04F8               	iorwf	_ErrorStat,f
  4710                           
  4711                           ;SourceFiles/SunSensor/SHT25.c: 47:             if (ErrorStat == 0)
  4712  0052  0878               	movf	_ErrorStat,w
  4713  0053  1D03               	btfss	3,2
  4714  0054  285C               	goto	l3908
  4715                           
  4716                           ;SourceFiles/SunSensor/SHT25.c: 48:             {;SourceFiles/SunSensor/SHT25.c: 49:    
      +                                       SHT25_State = SHT25_MEASURE_TEMP_1;
  4717  0055  3002               	movlw	2
  4718  0056  00DD               	movwf	??_SHT25_StateMachine
  4719  0057  085D               	movf	??_SHT25_StateMachine,w
  4720  0058  00BC               	movwf	_SHT25_State
  4721                           
  4722                           ;SourceFiles/SunSensor/SHT25.c: 50:                 I2C_Timer = 0;
  4723  0059  01A6               	clrf	_I2C_Timer
  4724  005A  01A7               	clrf	_I2C_Timer+1
  4725                           
  4726                           ;SourceFiles/SunSensor/SHT25.c: 51:             }
  4727  005B  0008               	return
  4728  005C                     l3908:
  4729                           
  4730                           ;SourceFiles/SunSensor/SHT25.c: 53:             {;SourceFiles/SunSensor/SHT25.c: 54:    
      +                                       SHT25_FaultHand();
  4731  005C  3184  24A7         	fcall	_SHT25_FaultHand
  4732  005E  0008               	return
  4733  005F                     l3910:
  4734                           
  4735                           ;SourceFiles/SunSensor/SHT25.c: 58:             I2C_StartCondition();
  4736  005F  3184  24C7  3180   	fcall	_I2C_StartCondition
  4737                           
  4738                           ;SourceFiles/SunSensor/SHT25.c: 59:             I2C_Timer += 10;
  4739  0062  300A               	movlw	10
  4740  0063  0020               	movlb	0	; select bank0
  4741  0064  07A6               	addwf	_I2C_Timer,f
  4742  0065  3000               	movlw	0
  4743  0066  3DA7               	addwfc	_I2C_Timer+1,f
  4744                           
  4745                           ;SourceFiles/SunSensor/SHT25.c: 60:             if (I2C_Timer > 200)
  4746  0067  3000               	movlw	0
  4747  0068  0227               	subwf	_I2C_Timer+1,w
  4748  0069  30C9               	movlw	201
  4749  006A  1903               	skipnz
  4750  006B  0226               	subwf	_I2C_Timer,w
  4751  006C  1803               	btfsc	3,0
  4752  006D  285C               	goto	l3908
  4753  006E  3081               	movlw	129
  4754  006F  3184  2445  3180   	fcall	_I2C_WriteByte
  4755  0072  3A00               	xorlw	0
  4756  0073  1D03               	btfss	3,2
  4757  0074  0008               	return
  4758                           
  4759                           ;SourceFiles/SunSensor/SHT25.c: 69:             {;SourceFiles/SunSensor/SHT25.c: 71:    
      +                                       TemperatureRaw_H = I2C_ReadByte(0);
  4760  0075  3000               	movlw	0
  4761  0076  3183  23BE  3180   	fcall	_I2C_ReadByte
  4762  0079  0020               	movlb	0	; select bank0
  4763  007A  00DD               	movwf	??_SHT25_StateMachine
  4764  007B  085D               	movf	??_SHT25_StateMachine,w
  4765  007C  00C0               	movwf	_TemperatureRaw_H
  4766                           
  4767                           ;SourceFiles/SunSensor/SHT25.c: 72:                 TemperatureRaw_L = I2C_ReadByte(0);
  4768  007D  3000               	movlw	0
  4769  007E  3183  23BE  3180   	fcall	_I2C_ReadByte
  4770  0081  0020               	movlb	0	; select bank0
  4771  0082  00DD               	movwf	??_SHT25_StateMachine
  4772  0083  085D               	movf	??_SHT25_StateMachine,w
  4773  0084  00BF               	movwf	_TemperatureRaw_L
  4774                           
  4775                           ;SourceFiles/SunSensor/SHT25.c: 73:                 TemperatureRaw = (UINT_16) Temperatu
      +                          reRaw_H;
  4776  0085  0840               	movf	_TemperatureRaw_H,w
  4777  0086  00DD               	movwf	??_SHT25_StateMachine
  4778  0087  01DE               	clrf	??_SHT25_StateMachine+1
  4779  0088  085D               	movf	??_SHT25_StateMachine,w
  4780  0089  00A4               	movwf	_TemperatureRaw
  4781  008A  085E               	movf	??_SHT25_StateMachine+1,w
  4782  008B  00A5               	movwf	_TemperatureRaw+1
  4783                           
  4784                           ;SourceFiles/SunSensor/SHT25.c: 74:                 TemperatureRaw <<= 8;
  4785  008C  3008               	movlw	8
  4786  008D                     u2115:
  4787  008D  35A4               	lslf	_TemperatureRaw,f
  4788  008E  0DA5               	rlf	_TemperatureRaw+1,f
  4789  008F  0B89               	decfsz	9,f
  4790  0090  288D               	goto	u2115
  4791                           
  4792                           ;SourceFiles/SunSensor/SHT25.c: 75:                 TemperatureRaw |= (UINT_16) Temperat
      +                          ureRaw_L;
  4793  0091  083F               	movf	_TemperatureRaw_L,w
  4794  0092  00DD               	movwf	??_SHT25_StateMachine
  4795  0093  01DE               	clrf	??_SHT25_StateMachine+1
  4796  0094  085D               	movf	??_SHT25_StateMachine,w
  4797  0095  04A4               	iorwf	_TemperatureRaw,f
  4798  0096  085E               	movf	??_SHT25_StateMachine+1,w
  4799  0097  04A5               	iorwf	_TemperatureRaw+1,f
  4800                           
  4801                           ;SourceFiles/SunSensor/SHT25.c: 76:                 checksum = I2C_ReadByte(1);
  4802  0098  3001               	movlw	1
  4803  0099  3183  23BE  3180   	fcall	_I2C_ReadByte
  4804  009C  0020               	movlb	0	; select bank0
  4805  009D  00DD               	movwf	??_SHT25_StateMachine
  4806  009E  085D               	movf	??_SHT25_StateMachine,w
  4807  009F  00C1               	movwf	_checksum
  4808                           
  4809                           ;SourceFiles/SunSensor/SHT25.c: 77:                 I2C_StopCondition();
  4810  00A0  3184  24BE         	fcall	_I2C_StopCondition
  4811                           
  4812                           ;SourceFiles/SunSensor/SHT25.c: 78:                 SHT25_State = SHT25_MEASURE_RH_0;
  4813  00A2  3003               	movlw	3
  4814  00A3  0020               	movlb	0	; select bank0
  4815  00A4  00DD               	movwf	??_SHT25_StateMachine
  4816  00A5  085D               	movf	??_SHT25_StateMachine,w
  4817  00A6  00BC               	movwf	_SHT25_State
  4818  00A7  0008               	return
  4819  00A8                     l3936:
  4820                           
  4821                           ;SourceFiles/SunSensor/SHT25.c: 83:             I2C_StartCondition();
  4822  00A8  3184  24C7  3180   	fcall	_I2C_StartCondition
  4823                           
  4824                           ;SourceFiles/SunSensor/SHT25.c: 84:             ErrorStat |= I2C_WriteByte(128);
  4825  00AB  3080               	movlw	128
  4826  00AC  3184  2445  3180   	fcall	_I2C_WriteByte
  4827  00AF  0020               	movlb	0	; select bank0
  4828  00B0  00DD               	movwf	??_SHT25_StateMachine
  4829  00B1  085D               	movf	??_SHT25_StateMachine,w
  4830  00B2  04F8               	iorwf	_ErrorStat,f
  4831                           
  4832                           ;SourceFiles/SunSensor/SHT25.c: 85:             ErrorStat |= I2C_WriteByte(0xF5);
  4833  00B3  30F5               	movlw	245
  4834  00B4  3184  2445  3180   	fcall	_I2C_WriteByte
  4835  00B7  0020               	movlb	0	; select bank0
  4836  00B8  00DD               	movwf	??_SHT25_StateMachine
  4837  00B9  085D               	movf	??_SHT25_StateMachine,w
  4838  00BA  04F8               	iorwf	_ErrorStat,f
  4839                           
  4840                           ;SourceFiles/SunSensor/SHT25.c: 86:             if (ErrorStat == 0)
  4841  00BB  0878               	movf	_ErrorStat,w
  4842  00BC  1D03               	btfss	3,2
  4843  00BD  285C               	goto	l3908
  4844                           
  4845                           ;SourceFiles/SunSensor/SHT25.c: 87:             {;SourceFiles/SunSensor/SHT25.c: 88:    
      +                                       I2C_Timer = 0;
  4846  00BE  01A6               	clrf	_I2C_Timer
  4847  00BF  01A7               	clrf	_I2C_Timer+1
  4848                           
  4849                           ;SourceFiles/SunSensor/SHT25.c: 89:                 SHT25_State = SHT25_MEASURE_RH_1;
  4850  00C0  3004               	movlw	4
  4851  00C1  00DD               	movwf	??_SHT25_StateMachine
  4852  00C2  085D               	movf	??_SHT25_StateMachine,w
  4853  00C3  00BC               	movwf	_SHT25_State
  4854                           
  4855                           ;SourceFiles/SunSensor/SHT25.c: 90:             }
  4856  00C4  0008               	return
  4857  00C5                     l3950:
  4858                           
  4859                           ;SourceFiles/SunSensor/SHT25.c: 97:             I2C_StartCondition();
  4860  00C5  3184  24C7  3180   	fcall	_I2C_StartCondition
  4861                           
  4862                           ;SourceFiles/SunSensor/SHT25.c: 98:             I2C_Timer += 10;
  4863  00C8  300A               	movlw	10
  4864  00C9  0020               	movlb	0	; select bank0
  4865  00CA  07A6               	addwf	_I2C_Timer,f
  4866  00CB  3000               	movlw	0
  4867  00CC  3DA7               	addwfc	_I2C_Timer+1,f
  4868                           
  4869                           ;SourceFiles/SunSensor/SHT25.c: 99:             if (I2C_Timer > 200)
  4870  00CD  3000               	movlw	0
  4871  00CE  0227               	subwf	_I2C_Timer+1,w
  4872  00CF  30C9               	movlw	201
  4873  00D0  1903               	skipnz
  4874  00D1  0226               	subwf	_I2C_Timer,w
  4875  00D2  1803               	btfsc	3,0
  4876  00D3  285C               	goto	l3908
  4877  00D4  3081               	movlw	129
  4878  00D5  3184  2445  3180   	fcall	_I2C_WriteByte
  4879  00D8  3A00               	xorlw	0
  4880  00D9  1D03               	btfss	3,2
  4881  00DA  0008               	return
  4882                           
  4883                           ;SourceFiles/SunSensor/SHT25.c: 108:             {;SourceFiles/SunSensor/SHT25.c: 110:  
      +                                         RelativeHumidityRaw_H = I2C_ReadByte(0);
  4884  00DB  3000               	movlw	0
  4885  00DC  3183  23BE  3180   	fcall	_I2C_ReadByte
  4886  00DF  0020               	movlb	0	; select bank0
  4887  00E0  00DD               	movwf	??_SHT25_StateMachine
  4888  00E1  085D               	movf	??_SHT25_StateMachine,w
  4889  00E2  00BE               	movwf	_RelativeHumidityRaw_H
  4890                           
  4891                           ;SourceFiles/SunSensor/SHT25.c: 111:                 RelativeHumidityRaw_L = I2C_ReadByt
      +                          e(0);
  4892  00E3  3000               	movlw	0
  4893  00E4  3183  23BE  3180   	fcall	_I2C_ReadByte
  4894  00E7  0020               	movlb	0	; select bank0
  4895  00E8  00DD               	movwf	??_SHT25_StateMachine
  4896  00E9  085D               	movf	??_SHT25_StateMachine,w
  4897  00EA  00BD               	movwf	_RelativeHumidityRaw_L
  4898                           
  4899                           ;SourceFiles/SunSensor/SHT25.c: 112:                 RelativeHumidityRaw = (UINT_16) Rel
      +                          ativeHumidityRaw_H;
  4900  00EB  083E               	movf	_RelativeHumidityRaw_H,w
  4901  00EC  00DD               	movwf	??_SHT25_StateMachine
  4902  00ED  01DE               	clrf	??_SHT25_StateMachine+1
  4903  00EE  085D               	movf	??_SHT25_StateMachine,w
  4904  00EF  00A2               	movwf	_RelativeHumidityRaw
  4905  00F0  085E               	movf	??_SHT25_StateMachine+1,w
  4906  00F1  00A3               	movwf	_RelativeHumidityRaw+1
  4907                           
  4908                           ;SourceFiles/SunSensor/SHT25.c: 113:                 RelativeHumidityRaw <<= 8;
  4909  00F2  3008               	movlw	8
  4910  00F3                     u2155:
  4911  00F3  35A2               	lslf	_RelativeHumidityRaw,f
  4912  00F4  0DA3               	rlf	_RelativeHumidityRaw+1,f
  4913  00F5  0B89               	decfsz	9,f
  4914  00F6  28F3               	goto	u2155
  4915                           
  4916                           ;SourceFiles/SunSensor/SHT25.c: 114:                 RelativeHumidityRaw |= (UINT_16) Re
      +                          lativeHumidityRaw_L;
  4917  00F7  083D               	movf	_RelativeHumidityRaw_L,w
  4918  00F8  00DD               	movwf	??_SHT25_StateMachine
  4919  00F9  01DE               	clrf	??_SHT25_StateMachine+1
  4920  00FA  085D               	movf	??_SHT25_StateMachine,w
  4921  00FB  04A2               	iorwf	_RelativeHumidityRaw,f
  4922  00FC  085E               	movf	??_SHT25_StateMachine+1,w
  4923  00FD  04A3               	iorwf	_RelativeHumidityRaw+1,f
  4924                           
  4925                           ;SourceFiles/SunSensor/SHT25.c: 115:                 checksum = I2C_ReadByte(1);
  4926  00FE  3001               	movlw	1
  4927  00FF  3183  23BE  3180   	fcall	_I2C_ReadByte
  4928  0102  0020               	movlb	0	; select bank0
  4929  0103  00DD               	movwf	??_SHT25_StateMachine
  4930  0104  085D               	movf	??_SHT25_StateMachine,w
  4931  0105  00C1               	movwf	_checksum
  4932                           
  4933                           ;SourceFiles/SunSensor/SHT25.c: 116:                 I2C_StopCondition();
  4934  0106  3184  24BE         	fcall	_I2C_StopCondition
  4935                           
  4936                           ;SourceFiles/SunSensor/SHT25.c: 117:                 SHT25_State = SHT25_CALC_TEMP_0;
  4937  0108  3005               	movlw	5
  4938  0109  0020               	movlb	0	; select bank0
  4939  010A  00DD               	movwf	??_SHT25_StateMachine
  4940  010B  085D               	movf	??_SHT25_StateMachine,w
  4941  010C  00BC               	movwf	_SHT25_State
  4942  010D  0008               	return
  4943  010E                     l3976:
  4944                           
  4945                           ;SourceFiles/SunSensor/SHT25.c: 121:             SensirionTemperature_UBP8 = SHT2x_CalcT
      +                          emperatureC();
  4946  010E  3182  22C8         	fcall	_SHT2x_CalcTemperatureC
  4947  0110  0020               	movlb	0	; select bank0
  4948  0111  0855               	movf	?_SHT2x_CalcTemperatureC+1,w
  4949  0112  00AB               	movwf	_SensirionTemperature_UBP8+1
  4950  0113  0854               	movf	?_SHT2x_CalcTemperatureC,w
  4951  0114  00AA               	movwf	_SensirionTemperature_UBP8
  4952                           
  4953                           ;SourceFiles/SunSensor/SHT25.c: 122:             SHT25_State = SHT25_CALC_RH_0;
  4954  0115  3006               	movlw	6
  4955  0116  00DD               	movwf	??_SHT25_StateMachine
  4956  0117  085D               	movf	??_SHT25_StateMachine,w
  4957  0118  00BC               	movwf	_SHT25_State
  4958                           
  4959                           ;SourceFiles/SunSensor/SHT25.c: 123:             break;
  4960  0119  0008               	return
  4961  011A                     l414:	
  4962                           ;SourceFiles/SunSensor/SHT25.c: 124:         case SHT25_CALC_RH_0:
  4963                           
  4964                           
  4965                           ;SourceFiles/SunSensor/SHT25.c: 125:             SHT25_State = SHT25_MEASURE_TEMP_0;
  4966  011A  01BC               	clrf	_SHT25_State
  4967  011B  0ABC               	incf	_SHT25_State,f
  4968                           
  4969                           ;SourceFiles/SunSensor/SHT25.c: 126:             SensirionRH_UBP8 = SHT2x_CalcRelativeHu
      +                          midity();
  4970  011C  3182  2277         	fcall	_SHT2x_CalcRelativeHumidity
  4971  011E  0020               	movlb	0	; select bank0
  4972  011F  0855               	movf	?_SHT2x_CalcRelativeHumidity+1,w
  4973  0120  00A9               	movwf	_SensirionRH_UBP8+1
  4974  0121  0854               	movf	?_SHT2x_CalcRelativeHumidity,w
  4975  0122  00A8               	movwf	_SensirionRH_UBP8
  4976                           
  4977                           ;SourceFiles/SunSensor/SHT25.c: 127:             break;
  4978  0123  0008               	return
  4979  0124                     l3984:
  4980  0124  0020               	movlb	0	; select bank0
  4981  0125  083C               	movf	_SHT25_State,w
  4982  0126  00DD               	movwf	??_SHT25_StateMachine
  4983  0127  01DE               	clrf	??_SHT25_StateMachine+1
  4984                           
  4985                           ; Switch on 2 bytes has been partitioned into a top level switch of size 1, and 1 sub-sw
      +                          itches
  4986                           ; Switch size 1, requested type "simple"
  4987                           ; Number of cases is 1, Range of values is 0 to 0
  4988                           ; switch strategies available:
  4989                           ; Name         Instructions Cycles
  4990                           ; simple_byte            4     3 (average)
  4991                           ; direct_byte            8     6 (fixed)
  4992                           ; jumptable            260     6 (fixed)
  4993                           ;	Chosen strategy is simple_byte
  4994  0128  085E               	movf	??_SHT25_StateMachine+1,w
  4995  0129  3A00               	xorlw	0	; case 0
  4996  012A  1903               	skipnz
  4997  012B  292D               	goto	l4134
  4998  012C  2944               	goto	l416
  4999  012D                     l4134:
  5000                           
  5001                           ; Switch size 1, requested type "simple"
  5002                           ; Number of cases is 7, Range of values is 0 to 6
  5003                           ; switch strategies available:
  5004                           ; Name         Instructions Cycles
  5005                           ; direct_byte           20     6 (fixed)
  5006                           ; simple_byte           22    12 (average)
  5007                           ; jumptable            260     6 (fixed)
  5008                           ;	Chosen strategy is simple_byte
  5009  012D  085D               	movf	??_SHT25_StateMachine,w
  5010  012E  3A00               	xorlw	0	; case 0
  5011  012F  1903               	skipnz
  5012  0130  2838               	goto	l3890
  5013  0131  3A01               	xorlw	1	; case 1
  5014  0132  1903               	skipnz
  5015  0133  283F               	goto	l3896
  5016  0134  3A03               	xorlw	3	; case 2
  5017  0135  1903               	skipnz
  5018  0136  285F               	goto	l3910
  5019  0137  3A01               	xorlw	1	; case 3
  5020  0138  1903               	skipnz
  5021  0139  28A8               	goto	l3936
  5022  013A  3A07               	xorlw	7	; case 4
  5023  013B  1903               	skipnz
  5024  013C  28C5               	goto	l3950
  5025  013D  3A01               	xorlw	1	; case 5
  5026  013E  1903               	skipnz
  5027  013F  290E               	goto	l3976
  5028  0140  3A03               	xorlw	3	; case 6
  5029  0141  1903               	skipnz
  5030  0142  291A               	goto	l414
  5031  0143  2944               	goto	l416
  5032  0144                     l416:
  5033  0144  0008               	return
  5034  0145                     __end_of_SHT25_StateMachine:
  5035                           
  5036                           	psect	text14
  5037  04D8                     __ptext14:	
  5038 ;; *************** function _UartDisplay *****************
  5039 ;; Defined at:
  5040 ;;		line 23 in file "SourceFiles/SunSensor/UART_Display.c"
  5041 ;; Parameters:    Size  Location     Type
  5042 ;;		None
  5043 ;; Auto vars:     Size  Location     Type
  5044 ;;		None
  5045 ;; Return value:  Size  Location     Type
  5046 ;;                  1    wreg      void 
  5047 ;; Registers used:
  5048 ;;		wreg, status,2, status,0, pclath, cstack
  5049 ;; Tracked objects:
  5050 ;;		On entry : 0/0
  5051 ;;		On exit  : 0/0
  5052 ;;		Unchanged: 0/0
  5053 ;; Data sizes:     COMMON   BANK0   BANK1   BANK2   BANK3   BANK4   BANK5   BANK6
  5054 ;;      Params:         0       0       0       0       0       0       0       0
  5055 ;;      Locals:         0       0       0       0       0       0       0       0
  5056 ;;      Temps:          0       0       0       0       0       0       0       0
  5057 ;;      Totals:         0       0       0       0       0       0       0       0
  5058 ;;Total ram usage:        0 bytes
  5059 ;; Hardware stack levels used:    1
  5060 ;; Hardware stack levels required when called:    6
  5061 ;; This function calls:
  5062 ;;		_EUSART_Write
  5063 ;; This function is called by:
  5064 ;;		_COS_TskMan
  5065 ;; This function uses a non-reentrant model
  5066 ;;
  5067                           
  5068                           
  5069                           ;psect for function _UartDisplay
  5070  04D8                     _UartDisplay:
  5071                           
  5072                           ;SourceFiles/SunSensor/UART_Display.c: 25:     if (NewMessageFlag == 1)
  5073                           
  5074                           ;incstack = 0
  5075                           ; Regs used in _UartDisplay: [wreg+status,2+status,0+pclath+cstack]
  5076  04D8  0379               	decf	_NewMessageFlag,w
  5077  04D9  1D03               	btfss	3,2
  5078  04DA  0008               	return
  5079                           
  5080                           ;SourceFiles/SunSensor/UART_Display.c: 26:     {;SourceFiles/SunSensor/UART_Display.c: 2
      +                          7:         EUSART_Write(U8Message);
  5081  04DB  087A               	movf	_U8Message,w
  5082  04DC  3184  24E0         	fcall	_EUSART_Write
  5083                           
  5084                           ;SourceFiles/SunSensor/UART_Display.c: 28:         NewMessageFlag = 0;
  5085  04DE  01F9               	clrf	_NewMessageFlag
  5086  04DF  0008               	return
  5087  04E0                     __end_of_UartDisplay:
  5088                           
  5089                           	psect	text15
  5090  04E0                     __ptext15:	
  5091 ;; *************** function _EUSART_Write *****************
  5092 ;; Defined at:
  5093 ;;		line 132 in file "mcc_generated_files/eusart.c"
  5094 ;; Parameters:    Size  Location     Type
  5095 ;;  txData          1    wreg     unsigned char 
  5096 ;; Auto vars:     Size  Location     Type
  5097 ;;  txData          1    0[BANK0 ] unsigned char 
  5098 ;; Return value:  Size  Location     Type
  5099 ;;                  1    wreg      void 
  5100 ;; Registers used:
  5101 ;;		wreg
  5102 ;; Tracked objects:
  5103 ;;		On entry : 0/0
  5104 ;;		On exit  : 0/0
  5105 ;;		Unchanged: 0/0
  5106 ;; Data sizes:     COMMON   BANK0   BANK1   BANK2   BANK3   BANK4   BANK5   BANK6
  5107 ;;      Params:         0       0       0       0       0       0       0       0
  5108 ;;      Locals:         0       1       0       0       0       0       0       0
  5109 ;;      Temps:          0       0       0       0       0       0       0       0
  5110 ;;      Totals:         0       1       0       0       0       0       0       0
  5111 ;;Total ram usage:        1 bytes
  5112 ;; Hardware stack levels used:    1
  5113 ;; Hardware stack levels required when called:    5
  5114 ;; This function calls:
  5115 ;;		Nothing
  5116 ;; This function is called by:
  5117 ;;		_UartDisplay
  5118 ;; This function uses a non-reentrant model
  5119 ;;
  5120                           
  5121                           
  5122                           ;psect for function _EUSART_Write
  5123  04E0                     _EUSART_Write:
  5124                           
  5125                           ;incstack = 0
  5126                           ; Regs used in _EUSART_Write: [wreg]
  5127                           ;EUSART_Write@txData stored from wreg
  5128  04E0  0020               	movlb	0	; select bank0
  5129  04E1  00C8               	movwf	EUSART_Write@txData
  5130  04E2                     l269:	
  5131                           ;mcc_generated_files/eusart.c: 135:     {;mcc_generated_files/eusart.c: 136:     }
  5132                           
  5133                           
  5134                           ;mcc_generated_files/eusart.c: 134:     while(0 == PIR1bits.TXIF)
  5135  04E2  1E11               	btfss	17,4	;volatile
  5136  04E3  2CE2               	goto	l269
  5137                           
  5138                           ;mcc_generated_files/eusart.c: 138:     TXREG = txData;
  5139  04E4  0848               	movf	EUSART_Write@txData,w
  5140  04E5  0023               	movlb	3	; select bank3
  5141  04E6  009A               	movwf	26	;volatile
  5142  04E7  0008               	return
  5143  04E8                     __end_of_EUSART_Write:
  5144                           
  5145                           	psect	text16
  5146  02C8                     __ptext16:	
  5147 ;; *************** function _SHT2x_CalcTemperatureC *****************
  5148 ;; Defined at:
  5149 ;;		line 142 in file "SourceFiles/SunSensor/SHT25.c"
  5150 ;; Parameters:    Size  Location     Type
  5151 ;;		None
  5152 ;; Auto vars:     Size  Location     Type
  5153 ;;  TemperatureT    4   17[BANK0 ] long 
  5154 ;;  Temperature_    2   15[BANK0 ] unsigned short 
  5155 ;; Return value:  Size  Location     Type
  5156 ;;                  2   12[BANK0 ] unsigned short 
  5157 ;; Registers used:
  5158 ;;		wreg, status,2, status,0, pclath, cstack
  5159 ;; Tracked objects:
  5160 ;;		On entry : 0/0
  5161 ;;		On exit  : 0/0
  5162 ;;		Unchanged: 0/0
  5163 ;; Data sizes:     COMMON   BANK0   BANK1   BANK2   BANK3   BANK4   BANK5   BANK6
  5164 ;;      Params:         0       2       0       0       0       0       0       0
  5165 ;;      Locals:         0       6       0       0       0       0       0       0
  5166 ;;      Temps:          0       1       0       0       0       0       0       0
  5167 ;;      Totals:         0       9       0       0       0       0       0       0
  5168 ;;Total ram usage:        9 bytes
  5169 ;; Hardware stack levels used:    1
  5170 ;; Hardware stack levels required when called:    6
  5171 ;; This function calls:
  5172 ;;		___lmul
  5173 ;; This function is called by:
  5174 ;;		_SHT25_StateMachine
  5175 ;; This function uses a non-reentrant model
  5176 ;;
  5177                           
  5178                           
  5179                           ;psect for function _SHT2x_CalcTemperatureC
  5180  02C8                     _SHT2x_CalcTemperatureC:
  5181                           
  5182                           ;SourceFiles/SunSensor/SHT25.c: 144:     SINT_32 TemperatureTemp;;SourceFiles/SunSensor/
      +                          SHT25.c: 145:     UINT_16 Temperature_UBP8;;SourceFiles/SunSensor/SHT25.c: 149:     Temp
      +                          eratureTemp = (SINT_32)TemperatureRaw * (SINT_32)(175.72 * 256);
  5183                           
  5184                           ;incstack = 0
  5185                           ; Regs used in _SHT2x_CalcTemperatureC: [wreg+status,2+status,0+pclath+cstack]
  5186  02C8  0020               	movlb	0	; select bank0
  5187  02C9  0824               	movf	_TemperatureRaw,w
  5188  02CA  00C8               	movwf	___lmul@multiplier
  5189  02CB  0825               	movf	_TemperatureRaw+1,w
  5190  02CC  00C9               	movwf	___lmul@multiplier+1
  5191  02CD  01CA               	clrf	___lmul@multiplier+2
  5192  02CE  01CB               	clrf	___lmul@multiplier+3
  5193  02CF  3000               	movlw	0
  5194  02D0  00CF               	movwf	___lmul@multiplicand+3
  5195  02D1  3000               	movlw	0
  5196  02D2  00CE               	movwf	___lmul@multiplicand+2
  5197  02D3  30AF               	movlw	175
  5198  02D4  00CD               	movwf	___lmul@multiplicand+1
  5199  02D5  30B8               	movlw	184
  5200  02D6  00CC               	movwf	___lmul@multiplicand
  5201  02D7  3183  2349  3182   	fcall	___lmul
  5202  02DA  0020               	movlb	0	; select bank0
  5203  02DB  084B               	movf	?___lmul+3,w
  5204  02DC  00DC               	movwf	SHT2x_CalcTemperatureC@TemperatureTemp+3
  5205  02DD  084A               	movf	?___lmul+2,w
  5206  02DE  00DB               	movwf	SHT2x_CalcTemperatureC@TemperatureTemp+2
  5207  02DF  0849               	movf	?___lmul+1,w
  5208  02E0  00DA               	movwf	SHT2x_CalcTemperatureC@TemperatureTemp+1
  5209  02E1  0848               	movf	?___lmul,w
  5210  02E2  00D9               	movwf	SHT2x_CalcTemperatureC@TemperatureTemp
  5211                           
  5212                           ;SourceFiles/SunSensor/SHT25.c: 150:     TemperatureTemp -= (SINT_32)(6.85 * 65536 * 256
      +                          );
  5213  02E3  3067               	movlw	103
  5214  02E4  07D9               	addwf	SHT2x_CalcTemperatureC@TemperatureTemp,f
  5215  02E5  3066               	movlw	102
  5216  02E6  3DDA               	addwfc	SHT2x_CalcTemperatureC@TemperatureTemp+1,f
  5217  02E7  3026               	movlw	38
  5218  02E8  3DDB               	addwfc	SHT2x_CalcTemperatureC@TemperatureTemp+2,f
  5219  02E9  30F9               	movlw	249
  5220  02EA  3DDC               	addwfc	SHT2x_CalcTemperatureC@TemperatureTemp+3,f
  5221                           
  5222                           ;SourceFiles/SunSensor/SHT25.c: 151:     if(TemperatureTemp < 0)TemperatureTemp = 0;
  5223  02EB  1FDC               	btfss	SHT2x_CalcTemperatureC@TemperatureTemp+3,7
  5224  02EC  2AF5               	goto	l422
  5225  02ED  3000               	movlw	0
  5226  02EE  00DC               	movwf	SHT2x_CalcTemperatureC@TemperatureTemp+3
  5227  02EF  3000               	movlw	0
  5228  02F0  00DB               	movwf	SHT2x_CalcTemperatureC@TemperatureTemp+2
  5229  02F1  3000               	movlw	0
  5230  02F2  00DA               	movwf	SHT2x_CalcTemperatureC@TemperatureTemp+1
  5231  02F3  3000               	movlw	0
  5232  02F4  00D9               	movwf	SHT2x_CalcTemperatureC@TemperatureTemp
  5233  02F5                     l422:
  5234                           
  5235                           ;SourceFiles/SunSensor/SHT25.c: 152:     TemperatureTemp >>= 8;
  5236  02F5  3008               	movlw	8
  5237  02F6  00D6               	movwf	??_SHT2x_CalcTemperatureC
  5238  02F7                     u2015:
  5239  02F7  37DC               	asrf	SHT2x_CalcTemperatureC@TemperatureTemp+3,f
  5240  02F8  0CDB               	rrf	SHT2x_CalcTemperatureC@TemperatureTemp+2,f
  5241  02F9  0CDA               	rrf	SHT2x_CalcTemperatureC@TemperatureTemp+1,f
  5242  02FA  0CD9               	rrf	SHT2x_CalcTemperatureC@TemperatureTemp,f
  5243  02FB  0BD6               	decfsz	??_SHT2x_CalcTemperatureC& (0+127),f
  5244  02FC  2AF7               	goto	u2015
  5245                           
  5246                           ;SourceFiles/SunSensor/SHT25.c: 153:     TemperatureTemp >>= 8;
  5247  02FD  3008               	movlw	8
  5248  02FE  00D6               	movwf	??_SHT2x_CalcTemperatureC
  5249  02FF                     u2025:
  5250  02FF  37DC               	asrf	SHT2x_CalcTemperatureC@TemperatureTemp+3,f
  5251  0300  0CDB               	rrf	SHT2x_CalcTemperatureC@TemperatureTemp+2,f
  5252  0301  0CDA               	rrf	SHT2x_CalcTemperatureC@TemperatureTemp+1,f
  5253  0302  0CD9               	rrf	SHT2x_CalcTemperatureC@TemperatureTemp,f
  5254  0303  0BD6               	decfsz	??_SHT2x_CalcTemperatureC& (0+127),f
  5255  0304  2AFF               	goto	u2025
  5256                           
  5257                           ;SourceFiles/SunSensor/SHT25.c: 154:     Temperature_UBP8 = (UINT_16)TemperatureTemp;
  5258  0305  085A               	movf	SHT2x_CalcTemperatureC@TemperatureTemp+1,w
  5259  0306  00D8               	movwf	SHT2x_CalcTemperatureC@Temperature_UBP8+1
  5260  0307  0859               	movf	SHT2x_CalcTemperatureC@TemperatureTemp,w
  5261  0308  00D7               	movwf	SHT2x_CalcTemperatureC@Temperature_UBP8
  5262                           
  5263                           ;SourceFiles/SunSensor/SHT25.c: 155:     return(Temperature_UBP8);
  5264  0309  0858               	movf	SHT2x_CalcTemperatureC@Temperature_UBP8+1,w
  5265  030A  00D5               	movwf	?_SHT2x_CalcTemperatureC+1
  5266  030B  0857               	movf	SHT2x_CalcTemperatureC@Temperature_UBP8,w
  5267  030C  00D4               	movwf	?_SHT2x_CalcTemperatureC
  5268  030D  0008               	return
  5269  030E                     __end_of_SHT2x_CalcTemperatureC:
  5270                           
  5271                           	psect	text17
  5272  0277                     __ptext17:	
  5273 ;; *************** function _SHT2x_CalcRelativeHumidity *****************
  5274 ;; Defined at:
  5275 ;;		line 158 in file "SourceFiles/SunSensor/SHT25.c"
  5276 ;; Parameters:    Size  Location     Type
  5277 ;;		None
  5278 ;; Auto vars:     Size  Location     Type
  5279 ;;  RelativeHumi    4   17[BANK0 ] long 
  5280 ;;  RelativeHumi    2   15[BANK0 ] unsigned short 
  5281 ;; Return value:  Size  Location     Type
  5282 ;;                  2   12[BANK0 ] unsigned short 
  5283 ;; Registers used:
  5284 ;;		wreg, status,2, status,0, pclath, cstack
  5285 ;; Tracked objects:
  5286 ;;		On entry : 0/0
  5287 ;;		On exit  : 0/0
  5288 ;;		Unchanged: 0/0
  5289 ;; Data sizes:     COMMON   BANK0   BANK1   BANK2   BANK3   BANK4   BANK5   BANK6
  5290 ;;      Params:         0       2       0       0       0       0       0       0
  5291 ;;      Locals:         0       6       0       0       0       0       0       0
  5292 ;;      Temps:          0       1       0       0       0       0       0       0
  5293 ;;      Totals:         0       9       0       0       0       0       0       0
  5294 ;;Total ram usage:        9 bytes
  5295 ;; Hardware stack levels used:    1
  5296 ;; Hardware stack levels required when called:    6
  5297 ;; This function calls:
  5298 ;;		___lmul
  5299 ;; This function is called by:
  5300 ;;		_SHT25_StateMachine
  5301 ;; This function uses a non-reentrant model
  5302 ;;
  5303                           
  5304                           
  5305                           ;psect for function _SHT2x_CalcRelativeHumidity
  5306  0277                     _SHT2x_CalcRelativeHumidity:
  5307                           
  5308                           ;SourceFiles/SunSensor/SHT25.c: 160:     SINT_32 RelativeHumidityTemp;;SourceFiles/SunSe
      +                          nsor/SHT25.c: 161:     UINT_16 RelativeHumidity_UBP8;;SourceFiles/SunSensor/SHT25.c: 165
      +                          :     RelativeHumidityTemp = (SINT_32)RelativeHumidityRaw * (SINT_32)(125 * 256);
  5309                           
  5310                           ;incstack = 0
  5311                           ; Regs used in _SHT2x_CalcRelativeHumidity: [wreg+status,2+status,0+pclath+cstack]
  5312  0277  0020               	movlb	0	; select bank0
  5313  0278  0822               	movf	_RelativeHumidityRaw,w
  5314  0279  00C8               	movwf	___lmul@multiplier
  5315  027A  0823               	movf	_RelativeHumidityRaw+1,w
  5316  027B  00C9               	movwf	___lmul@multiplier+1
  5317  027C  01CA               	clrf	___lmul@multiplier+2
  5318  027D  01CB               	clrf	___lmul@multiplier+3
  5319  027E  3000               	movlw	0
  5320  027F  00CF               	movwf	___lmul@multiplicand+3
  5321  0280  3000               	movlw	0
  5322  0281  00CE               	movwf	___lmul@multiplicand+2
  5323  0282  307D               	movlw	125
  5324  0283  00CD               	movwf	___lmul@multiplicand+1
  5325  0284  3000               	movlw	0
  5326  0285  00CC               	movwf	___lmul@multiplicand
  5327  0286  3183  2349  3182   	fcall	___lmul
  5328  0289  0020               	movlb	0	; select bank0
  5329  028A  084B               	movf	?___lmul+3,w
  5330  028B  00DC               	movwf	SHT2x_CalcRelativeHumidity@RelativeHumidityTemp+3
  5331  028C  084A               	movf	?___lmul+2,w
  5332  028D  00DB               	movwf	SHT2x_CalcRelativeHumidity@RelativeHumidityTemp+2
  5333  028E  0849               	movf	?___lmul+1,w
  5334  028F  00DA               	movwf	SHT2x_CalcRelativeHumidity@RelativeHumidityTemp+1
  5335  0290  0848               	movf	?___lmul,w
  5336  0291  00D9               	movwf	SHT2x_CalcRelativeHumidity@RelativeHumidityTemp
  5337                           
  5338                           ;SourceFiles/SunSensor/SHT25.c: 166:     RelativeHumidityTemp -= (SINT_32)(6 * 65536 * 2
      +                          56);
  5339  0292  3000               	movlw	0
  5340  0293  07D9               	addwf	SHT2x_CalcRelativeHumidity@RelativeHumidityTemp,f
  5341  0294  3000               	movlw	0
  5342  0295  3DDA               	addwfc	SHT2x_CalcRelativeHumidity@RelativeHumidityTemp+1,f
  5343  0296  3000               	movlw	0
  5344  0297  3DDB               	addwfc	SHT2x_CalcRelativeHumidity@RelativeHumidityTemp+2,f
  5345  0298  30FA               	movlw	250
  5346  0299  3DDC               	addwfc	SHT2x_CalcRelativeHumidity@RelativeHumidityTemp+3,f
  5347                           
  5348                           ;SourceFiles/SunSensor/SHT25.c: 167:     if(RelativeHumidityTemp < 0)RelativeHumidityTem
      +                          p = 0;
  5349  029A  1FDC               	btfss	SHT2x_CalcRelativeHumidity@RelativeHumidityTemp+3,7
  5350  029B  2AA4               	goto	l426
  5351  029C  3000               	movlw	0
  5352  029D  00DC               	movwf	SHT2x_CalcRelativeHumidity@RelativeHumidityTemp+3
  5353  029E  3000               	movlw	0
  5354  029F  00DB               	movwf	SHT2x_CalcRelativeHumidity@RelativeHumidityTemp+2
  5355  02A0  3000               	movlw	0
  5356  02A1  00DA               	movwf	SHT2x_CalcRelativeHumidity@RelativeHumidityTemp+1
  5357  02A2  3000               	movlw	0
  5358  02A3  00D9               	movwf	SHT2x_CalcRelativeHumidity@RelativeHumidityTemp
  5359  02A4                     l426:
  5360                           
  5361                           ;SourceFiles/SunSensor/SHT25.c: 168:     RelativeHumidityTemp >>= 8;
  5362  02A4  3008               	movlw	8
  5363  02A5  00D6               	movwf	??_SHT2x_CalcRelativeHumidity
  5364  02A6                     u2045:
  5365  02A6  37DC               	asrf	SHT2x_CalcRelativeHumidity@RelativeHumidityTemp+3,f
  5366  02A7  0CDB               	rrf	SHT2x_CalcRelativeHumidity@RelativeHumidityTemp+2,f
  5367  02A8  0CDA               	rrf	SHT2x_CalcRelativeHumidity@RelativeHumidityTemp+1,f
  5368  02A9  0CD9               	rrf	SHT2x_CalcRelativeHumidity@RelativeHumidityTemp,f
  5369  02AA  0BD6               	decfsz	??_SHT2x_CalcRelativeHumidity& (0+127),f
  5370  02AB  2AA6               	goto	u2045
  5371                           
  5372                           ;SourceFiles/SunSensor/SHT25.c: 169:     RelativeHumidityTemp >>= 8;
  5373  02AC  3008               	movlw	8
  5374  02AD  00D6               	movwf	??_SHT2x_CalcRelativeHumidity
  5375  02AE                     u2055:
  5376  02AE  37DC               	asrf	SHT2x_CalcRelativeHumidity@RelativeHumidityTemp+3,f
  5377  02AF  0CDB               	rrf	SHT2x_CalcRelativeHumidity@RelativeHumidityTemp+2,f
  5378  02B0  0CDA               	rrf	SHT2x_CalcRelativeHumidity@RelativeHumidityTemp+1,f
  5379  02B1  0CD9               	rrf	SHT2x_CalcRelativeHumidity@RelativeHumidityTemp,f
  5380  02B2  0BD6               	decfsz	??_SHT2x_CalcRelativeHumidity& (0+127),f
  5381  02B3  2AAE               	goto	u2055
  5382                           
  5383                           ;SourceFiles/SunSensor/SHT25.c: 170:     RelativeHumidity_UBP8 = (UINT_16)RelativeHumidi
      +                          tyTemp;
  5384  02B4  085A               	movf	SHT2x_CalcRelativeHumidity@RelativeHumidityTemp+1,w
  5385  02B5  00D8               	movwf	SHT2x_CalcRelativeHumidity@RelativeHumidity_UBP8+1
  5386  02B6  0859               	movf	SHT2x_CalcRelativeHumidity@RelativeHumidityTemp,w
  5387  02B7  00D7               	movwf	SHT2x_CalcRelativeHumidity@RelativeHumidity_UBP8
  5388                           
  5389                           ;SourceFiles/SunSensor/SHT25.c: 171:     if(RelativeHumidity_UBP8 >(UINT_16)(100.0 * 256
      +                          ))
  5390  02B8  3064               	movlw	100
  5391  02B9  0258               	subwf	SHT2x_CalcRelativeHumidity@RelativeHumidity_UBP8+1,w
  5392  02BA  3001               	movlw	1
  5393  02BB  1903               	skipnz
  5394  02BC  0257               	subwf	SHT2x_CalcRelativeHumidity@RelativeHumidity_UBP8,w
  5395  02BD  1C03               	skipc
  5396  02BE  2AC3               	goto	l427
  5397                           
  5398                           ;SourceFiles/SunSensor/SHT25.c: 172:     {;SourceFiles/SunSensor/SHT25.c: 173:         R
      +                          elativeHumidity_UBP8 = (UINT_16)(100.0 * 256);
  5399  02BF  3000               	movlw	0
  5400  02C0  00D7               	movwf	SHT2x_CalcRelativeHumidity@RelativeHumidity_UBP8
  5401  02C1  3064               	movlw	100
  5402  02C2  00D8               	movwf	SHT2x_CalcRelativeHumidity@RelativeHumidity_UBP8+1
  5403  02C3                     l427:	
  5404                           ;SourceFiles/SunSensor/SHT25.c: 174:     }
  5405                           
  5406                           
  5407                           ;SourceFiles/SunSensor/SHT25.c: 175:     return(RelativeHumidity_UBP8);
  5408  02C3  0858               	movf	SHT2x_CalcRelativeHumidity@RelativeHumidity_UBP8+1,w
  5409  02C4  00D5               	movwf	?_SHT2x_CalcRelativeHumidity+1
  5410  02C5  0857               	movf	SHT2x_CalcRelativeHumidity@RelativeHumidity_UBP8,w
  5411  02C6  00D4               	movwf	?_SHT2x_CalcRelativeHumidity
  5412  02C7  0008               	return
  5413  02C8                     __end_of_SHT2x_CalcRelativeHumidity:
  5414                           
  5415                           	psect	text18
  5416  0349                     __ptext18:	
  5417 ;; *************** function ___lmul *****************
  5418 ;; Defined at:
  5419 ;;		line 15 in file "C:\Program Files\Microchip\xc8\v2.20\pic\sources\c99\common\Umul32.c"
  5420 ;; Parameters:    Size  Location     Type
  5421 ;;  multiplier      4    0[BANK0 ] unsigned long 
  5422 ;;  multiplicand    4    4[BANK0 ] unsigned long 
  5423 ;; Auto vars:     Size  Location     Type
  5424 ;;  product         4    8[BANK0 ] unsigned long 
  5425 ;; Return value:  Size  Location     Type
  5426 ;;                  4    0[BANK0 ] unsigned long 
  5427 ;; Registers used:
  5428 ;;		wreg, status,2, status,0
  5429 ;; Tracked objects:
  5430 ;;		On entry : 0/0
  5431 ;;		On exit  : 0/0
  5432 ;;		Unchanged: 0/0
  5433 ;; Data sizes:     COMMON   BANK0   BANK1   BANK2   BANK3   BANK4   BANK5   BANK6
  5434 ;;      Params:         0       8       0       0       0       0       0       0
  5435 ;;      Locals:         0       4       0       0       0       0       0       0
  5436 ;;      Temps:          0       0       0       0       0       0       0       0
  5437 ;;      Totals:         0      12       0       0       0       0       0       0
  5438 ;;Total ram usage:       12 bytes
  5439 ;; Hardware stack levels used:    1
  5440 ;; Hardware stack levels required when called:    5
  5441 ;; This function calls:
  5442 ;;		Nothing
  5443 ;; This function is called by:
  5444 ;;		_SHT2x_CalcTemperatureC
  5445 ;;		_SHT2x_CalcRelativeHumidity
  5446 ;; This function uses a non-reentrant model
  5447 ;;
  5448                           
  5449                           
  5450                           ;psect for function ___lmul
  5451  0349                     ___lmul:
  5452                           
  5453                           ;incstack = 0
  5454                           ; Regs used in ___lmul: [wreg+status,2+status,0]
  5455  0349  3000               	movlw	0
  5456  034A  0020               	movlb	0	; select bank0
  5457  034B  00D3               	movwf	___lmul@product+3
  5458  034C  3000               	movlw	0
  5459  034D  00D2               	movwf	___lmul@product+2
  5460  034E  3000               	movlw	0
  5461  034F  00D1               	movwf	___lmul@product+1
  5462  0350  3000               	movlw	0
  5463  0351  00D0               	movwf	___lmul@product
  5464  0352                     l3742:
  5465  0352  1C48               	btfss	___lmul@multiplier,0
  5466  0353  2B5C               	goto	l3746
  5467  0354  084C               	movf	___lmul@multiplicand,w
  5468  0355  07D0               	addwf	___lmul@product,f
  5469  0356  084D               	movf	___lmul@multiplicand+1,w
  5470  0357  3DD1               	addwfc	___lmul@product+1,f
  5471  0358  084E               	movf	___lmul@multiplicand+2,w
  5472  0359  3DD2               	addwfc	___lmul@product+2,f
  5473  035A  084F               	movf	___lmul@multiplicand+3,w
  5474  035B  3DD3               	addwfc	___lmul@product+3,f
  5475  035C                     l3746:
  5476  035C  3001               	movlw	1
  5477  035D                     u1905:
  5478  035D  35CC               	lslf	___lmul@multiplicand,f
  5479  035E  0DCD               	rlf	___lmul@multiplicand+1,f
  5480  035F  0DCE               	rlf	___lmul@multiplicand+2,f
  5481  0360  0DCF               	rlf	___lmul@multiplicand+3,f
  5482  0361  0B89               	decfsz	9,f
  5483  0362  2B5D               	goto	u1905
  5484  0363  3001               	movlw	1
  5485  0364                     u1915:
  5486  0364  36CB               	lsrf	___lmul@multiplier+3,f
  5487  0365  0CCA               	rrf	___lmul@multiplier+2,f
  5488  0366  0CC9               	rrf	___lmul@multiplier+1,f
  5489  0367  0CC8               	rrf	___lmul@multiplier,f
  5490  0368  0B89               	decfsz	9,f
  5491  0369  2B64               	goto	u1915
  5492  036A  084B               	movf	___lmul@multiplier+3,w
  5493  036B  044A               	iorwf	___lmul@multiplier+2,w
  5494  036C  0449               	iorwf	___lmul@multiplier+1,w
  5495  036D  0448               	iorwf	___lmul@multiplier,w
  5496  036E  1D03               	skipz
  5497  036F  2B52               	goto	l3742
  5498  0370  0853               	movf	___lmul@product+3,w
  5499  0371  00CB               	movwf	?___lmul+3
  5500  0372  0852               	movf	___lmul@product+2,w
  5501  0373  00CA               	movwf	?___lmul+2
  5502  0374  0851               	movf	___lmul@product+1,w
  5503  0375  00C9               	movwf	?___lmul+1
  5504  0376  0850               	movf	___lmul@product,w
  5505  0377  00C8               	movwf	?___lmul
  5506  0378  0008               	return
  5507  0379                     __end_of___lmul:
  5508                           
  5509                           	psect	text19
  5510  04A7                     __ptext19:	
  5511 ;; *************** function _SHT25_FaultHand *****************
  5512 ;; Defined at:
  5513 ;;		line 133 in file "SourceFiles/SunSensor/SHT25.c"
  5514 ;; Parameters:    Size  Location     Type
  5515 ;;		None
  5516 ;; Auto vars:     Size  Location     Type
  5517 ;;		None
  5518 ;; Return value:  Size  Location     Type
  5519 ;;                  1    wreg      void 
  5520 ;; Registers used:
  5521 ;;		wreg, status,2
  5522 ;; Tracked objects:
  5523 ;;		On entry : 0/0
  5524 ;;		On exit  : 0/0
  5525 ;;		Unchanged: 0/0
  5526 ;; Data sizes:     COMMON   BANK0   BANK1   BANK2   BANK3   BANK4   BANK5   BANK6
  5527 ;;      Params:         0       0       0       0       0       0       0       0
  5528 ;;      Locals:         0       0       0       0       0       0       0       0
  5529 ;;      Temps:          0       1       0       0       0       0       0       0
  5530 ;;      Totals:         0       1       0       0       0       0       0       0
  5531 ;;Total ram usage:        1 bytes
  5532 ;; Hardware stack levels used:    1
  5533 ;; Hardware stack levels required when called:    5
  5534 ;; This function calls:
  5535 ;;		Nothing
  5536 ;; This function is called by:
  5537 ;;		_SHT25_StateMachine
  5538 ;; This function uses a non-reentrant model
  5539 ;;
  5540                           
  5541                           
  5542                           ;psect for function _SHT25_FaultHand
  5543  04A7                     _SHT25_FaultHand:
  5544                           
  5545                           ;SourceFiles/SunSensor/SHT25.c: 135:     TemperatureRaw = 0;
  5546                           
  5547                           ;incstack = 0
  5548                           ; Regs used in _SHT25_FaultHand: [wreg+status,2]
  5549  04A7  0020               	movlb	0	; select bank0
  5550  04A8  01A4               	clrf	_TemperatureRaw
  5551  04A9  01A5               	clrf	_TemperatureRaw+1
  5552                           
  5553                           ;SourceFiles/SunSensor/SHT25.c: 136:     RelativeHumidityRaw = 0;
  5554  04AA  01A2               	clrf	_RelativeHumidityRaw
  5555  04AB  01A3               	clrf	_RelativeHumidityRaw+1
  5556                           
  5557                           ;SourceFiles/SunSensor/SHT25.c: 137:     SHT25_Fault = 1;
  5558  04AC  01C2               	clrf	_SHT25_Fault
  5559  04AD  0AC2               	incf	_SHT25_Fault,f
  5560                           
  5561                           ;SourceFiles/SunSensor/SHT25.c: 138:     SHT25_State = SHT25_CALC_TEMP_0;
  5562  04AE  3005               	movlw	5
  5563  04AF  00C8               	movwf	??_SHT25_FaultHand
  5564  04B0  0848               	movf	??_SHT25_FaultHand,w
  5565  04B1  00BC               	movwf	_SHT25_State
  5566  04B2  0008               	return
  5567  04B3                     __end_of_SHT25_FaultHand:
  5568                           
  5569                           	psect	text20
  5570  0445                     __ptext20:	
  5571 ;; *************** function _I2C_WriteByte *****************
  5572 ;; Defined at:
  5573 ;;		line 43 in file "SourceFiles/SunSensor/I2C_Driver.c"
  5574 ;; Parameters:    Size  Location     Type
  5575 ;;  txByte          1    wreg     unsigned char 
  5576 ;; Auto vars:     Size  Location     Type
  5577 ;;  txByte          1    1[BANK0 ] unsigned char 
  5578 ;;  ack             1    2[BANK0 ] unsigned char 
  5579 ;; Return value:  Size  Location     Type
  5580 ;;                  1    wreg      unsigned char 
  5581 ;; Registers used:
  5582 ;;		wreg, status,2, status,0
  5583 ;; Tracked objects:
  5584 ;;		On entry : 0/0
  5585 ;;		On exit  : 0/0
  5586 ;;		Unchanged: 0/0
  5587 ;; Data sizes:     COMMON   BANK0   BANK1   BANK2   BANK3   BANK4   BANK5   BANK6
  5588 ;;      Params:         0       0       0       0       0       0       0       0
  5589 ;;      Locals:         0       2       0       0       0       0       0       0
  5590 ;;      Temps:          0       1       0       0       0       0       0       0
  5591 ;;      Totals:         0       3       0       0       0       0       0       0
  5592 ;;Total ram usage:        3 bytes
  5593 ;; Hardware stack levels used:    1
  5594 ;; Hardware stack levels required when called:    5
  5595 ;; This function calls:
  5596 ;;		Nothing
  5597 ;; This function is called by:
  5598 ;;		_SHT25_StateMachine
  5599 ;; This function uses a non-reentrant model
  5600 ;;
  5601                           
  5602                           
  5603                           ;psect for function _I2C_WriteByte
  5604  0445                     _I2C_WriteByte:
  5605                           
  5606                           ;incstack = 0
  5607                           ; Regs used in _I2C_WriteByte: [wreg+status,2+status,0]
  5608                           ;I2C_WriteByte@txByte stored from wreg
  5609  0445  0020               	movlb	0	; select bank0
  5610  0446  00C9               	movwf	I2C_WriteByte@txByte
  5611                           
  5612                           ;SourceFiles/SunSensor/I2C_Driver.c: 43: UINT_8 I2C_WriteByte (UINT_8 txByte);SourceFile
      +                          s/SunSensor/I2C_Driver.c: 44: {;SourceFiles/SunSensor/I2C_Driver.c: 45:     UINT_8 ack;;
      +                          SourceFiles/SunSensor/I2C_Driver.c: 46:     ack = 0;
  5613  0447  01CA               	clrf	I2C_WriteByte@ack
  5614                           
  5615                           ;SourceFiles/SunSensor/I2C_Driver.c: 47:     SSP1IF = 0;
  5616  0448  1191               	bcf	17,3	;volatile
  5617                           
  5618                           ;SourceFiles/SunSensor/I2C_Driver.c: 48:     SSP1BUF = txByte;
  5619  0449  0849               	movf	I2C_WriteByte@txByte,w
  5620  044A  0024               	movlb	4	; select bank4
  5621  044B  0091               	movwf	17	;volatile
  5622  044C                     l497:	
  5623                           ;SourceFiles/SunSensor/I2C_Driver.c: 49:     while(!SSP1IF);
  5624                           
  5625  044C  0020               	movlb	0	; select bank0
  5626  044D  1D91               	btfss	17,3	;volatile
  5627  044E  2C4C               	goto	l497
  5628                           
  5629                           ;SourceFiles/SunSensor/I2C_Driver.c: 50:     SSP1IF = 0;
  5630  044F  1191               	bcf	17,3	;volatile
  5631                           
  5632                           ;SourceFiles/SunSensor/I2C_Driver.c: 51:     SSP1STAT = 0;
  5633  0450  0024               	movlb	4	; select bank4
  5634  0451  0194               	clrf	20	;volatile
  5635                           
  5636                           ;SourceFiles/SunSensor/I2C_Driver.c: 52:     ack |= SSP1CON2&0x40;
  5637  0452  0816               	movf	22,w	;volatile
  5638  0453  3940               	andlw	64
  5639  0454  0020               	movlb	0	; select bank0
  5640  0455  00C8               	movwf	??_I2C_WriteByte
  5641  0456  0848               	movf	??_I2C_WriteByte,w
  5642  0457  04CA               	iorwf	I2C_WriteByte@ack,f
  5643                           
  5644                           ;SourceFiles/SunSensor/I2C_Driver.c: 53:     return ack;
  5645  0458  084A               	movf	I2C_WriteByte@ack,w
  5646  0459  0008               	return
  5647  045A                     __end_of_I2C_WriteByte:
  5648                           
  5649                           	psect	text21
  5650  04BE                     __ptext21:	
  5651 ;; *************** function _I2C_StopCondition *****************
  5652 ;; Defined at:
  5653 ;;		line 23 in file "SourceFiles/SunSensor/I2C_Driver.c"
  5654 ;; Parameters:    Size  Location     Type
  5655 ;;		None
  5656 ;; Auto vars:     Size  Location     Type
  5657 ;;		None
  5658 ;; Return value:  Size  Location     Type
  5659 ;;                  1    wreg      void 
  5660 ;; Registers used:
  5661 ;;		None
  5662 ;; Tracked objects:
  5663 ;;		On entry : 0/0
  5664 ;;		On exit  : 0/0
  5665 ;;		Unchanged: 0/0
  5666 ;; Data sizes:     COMMON   BANK0   BANK1   BANK2   BANK3   BANK4   BANK5   BANK6
  5667 ;;      Params:         0       0       0       0       0       0       0       0
  5668 ;;      Locals:         0       0       0       0       0       0       0       0
  5669 ;;      Temps:          0       0       0       0       0       0       0       0
  5670 ;;      Totals:         0       0       0       0       0       0       0       0
  5671 ;;Total ram usage:        0 bytes
  5672 ;; Hardware stack levels used:    1
  5673 ;; Hardware stack levels required when called:    5
  5674 ;; This function calls:
  5675 ;;		Nothing
  5676 ;; This function is called by:
  5677 ;;		_SHT25_StateMachine
  5678 ;; This function uses a non-reentrant model
  5679 ;;
  5680                           
  5681                           
  5682                           ;psect for function _I2C_StopCondition
  5683  04BE                     _I2C_StopCondition:
  5684                           
  5685                           ;SourceFiles/SunSensor/I2C_Driver.c: 25:     SSP1IF = 0;
  5686                           
  5687                           ;incstack = 0
  5688                           ; Regs used in _I2C_StopCondition: []
  5689  04BE  0020               	movlb	0	; select bank0
  5690  04BF  1191               	bcf	17,3	;volatile
  5691                           
  5692                           ;SourceFiles/SunSensor/I2C_Driver.c: 26:     SSP1CON2bits.PEN = 1;
  5693  04C0  0024               	movlb	4	; select bank4
  5694  04C1  1516               	bsf	22,2	;volatile
  5695  04C2                     l485:	
  5696                           ;SourceFiles/SunSensor/I2C_Driver.c: 27:     while(!SSP1IF);
  5697                           
  5698  04C2  0020               	movlb	0	; select bank0
  5699  04C3  1D91               	btfss	17,3	;volatile
  5700  04C4  2CC2               	goto	l485
  5701                           
  5702                           ;SourceFiles/SunSensor/I2C_Driver.c: 28:     SSP1IF = 0;
  5703  04C5  1191               	bcf	17,3	;volatile
  5704  04C6  0008               	return
  5705  04C7                     __end_of_I2C_StopCondition:
  5706                           
  5707                           	psect	text22
  5708  04C7                     __ptext22:	
  5709 ;; *************** function _I2C_StartCondition *****************
  5710 ;; Defined at:
  5711 ;;		line 15 in file "SourceFiles/SunSensor/I2C_Driver.c"
  5712 ;; Parameters:    Size  Location     Type
  5713 ;;		None
  5714 ;; Auto vars:     Size  Location     Type
  5715 ;;		None
  5716 ;; Return value:  Size  Location     Type
  5717 ;;                  1    wreg      void 
  5718 ;; Registers used:
  5719 ;;		None
  5720 ;; Tracked objects:
  5721 ;;		On entry : 0/0
  5722 ;;		On exit  : 0/0
  5723 ;;		Unchanged: 0/0
  5724 ;; Data sizes:     COMMON   BANK0   BANK1   BANK2   BANK3   BANK4   BANK5   BANK6
  5725 ;;      Params:         0       0       0       0       0       0       0       0
  5726 ;;      Locals:         0       0       0       0       0       0       0       0
  5727 ;;      Temps:          0       0       0       0       0       0       0       0
  5728 ;;      Totals:         0       0       0       0       0       0       0       0
  5729 ;;Total ram usage:        0 bytes
  5730 ;; Hardware stack levels used:    1
  5731 ;; Hardware stack levels required when called:    5
  5732 ;; This function calls:
  5733 ;;		Nothing
  5734 ;; This function is called by:
  5735 ;;		_SHT25_StateMachine
  5736 ;; This function uses a non-reentrant model
  5737 ;;
  5738                           
  5739                           
  5740                           ;psect for function _I2C_StartCondition
  5741  04C7                     _I2C_StartCondition:
  5742                           
  5743                           ;SourceFiles/SunSensor/I2C_Driver.c: 17:     SSP1IF = 0;
  5744                           
  5745                           ;incstack = 0
  5746                           ; Regs used in _I2C_StartCondition: []
  5747  04C7  0020               	movlb	0	; select bank0
  5748  04C8  1191               	bcf	17,3	;volatile
  5749                           
  5750                           ;SourceFiles/SunSensor/I2C_Driver.c: 18:     SSP1CON2bits.SEN = 1;
  5751  04C9  0024               	movlb	4	; select bank4
  5752  04CA  1416               	bsf	22,0	;volatile
  5753  04CB                     l479:	
  5754                           ;SourceFiles/SunSensor/I2C_Driver.c: 19:     while(!SSP1IF);
  5755                           
  5756  04CB  0020               	movlb	0	; select bank0
  5757  04CC  1D91               	btfss	17,3	;volatile
  5758  04CD  2CCB               	goto	l479
  5759                           
  5760                           ;SourceFiles/SunSensor/I2C_Driver.c: 20:     SSP1IF = 0;
  5761  04CE  1191               	bcf	17,3	;volatile
  5762  04CF  0008               	return
  5763  04D0                     __end_of_I2C_StartCondition:
  5764                           
  5765                           	psect	text23
  5766  03BE                     __ptext23:	
  5767 ;; *************** function _I2C_ReadByte *****************
  5768 ;; Defined at:
  5769 ;;		line 56 in file "SourceFiles/SunSensor/I2C_Driver.c"
  5770 ;; Parameters:    Size  Location     Type
  5771 ;;  ack             1    wreg     unsigned char 
  5772 ;; Auto vars:     Size  Location     Type
  5773 ;;  ack             1    1[BANK0 ] unsigned char 
  5774 ;;  rxByte          1    2[BANK0 ] unsigned char 
  5775 ;; Return value:  Size  Location     Type
  5776 ;;                  1    wreg      unsigned char 
  5777 ;; Registers used:
  5778 ;;		wreg, status,2, status,0
  5779 ;; Tracked objects:
  5780 ;;		On entry : 0/0
  5781 ;;		On exit  : 0/0
  5782 ;;		Unchanged: 0/0
  5783 ;; Data sizes:     COMMON   BANK0   BANK1   BANK2   BANK3   BANK4   BANK5   BANK6
  5784 ;;      Params:         0       0       0       0       0       0       0       0
  5785 ;;      Locals:         0       2       0       0       0       0       0       0
  5786 ;;      Temps:          0       1       0       0       0       0       0       0
  5787 ;;      Totals:         0       3       0       0       0       0       0       0
  5788 ;;Total ram usage:        3 bytes
  5789 ;; Hardware stack levels used:    1
  5790 ;; Hardware stack levels required when called:    5
  5791 ;; This function calls:
  5792 ;;		Nothing
  5793 ;; This function is called by:
  5794 ;;		_SHT25_StateMachine
  5795 ;; This function uses a non-reentrant model
  5796 ;;
  5797                           
  5798                           
  5799                           ;psect for function _I2C_ReadByte
  5800  03BE                     _I2C_ReadByte:
  5801                           
  5802                           ;incstack = 0
  5803                           ; Regs used in _I2C_ReadByte: [wreg+status,2+status,0]
  5804                           ;I2C_ReadByte@ack stored from wreg
  5805  03BE  0020               	movlb	0	; select bank0
  5806  03BF  00C9               	movwf	I2C_ReadByte@ack
  5807                           
  5808                           ;SourceFiles/SunSensor/I2C_Driver.c: 61:     SSP1CON2bits.RCEN = 1;
  5809  03C0  0024               	movlb	4	; select bank4
  5810  03C1  1596               	bsf	22,3	;volatile
  5811  03C2                     l503:	
  5812                           ;SourceFiles/SunSensor/I2C_Driver.c: 62:     while(!SSP1IF);
  5813                           
  5814  03C2  0020               	movlb	0	; select bank0
  5815  03C3  1D91               	btfss	17,3	;volatile
  5816  03C4  2BC2               	goto	l503
  5817                           
  5818                           ;SourceFiles/SunSensor/I2C_Driver.c: 63:     SSP1IF = 0;
  5819  03C5  1191               	bcf	17,3	;volatile
  5820                           
  5821                           ;SourceFiles/SunSensor/I2C_Driver.c: 64:     rxByte = SSP1BUF;
  5822  03C6  0024               	movlb	4	; select bank4
  5823  03C7  0811               	movf	17,w	;volatile
  5824  03C8  0020               	movlb	0	; select bank0
  5825  03C9  00C8               	movwf	??_I2C_ReadByte
  5826  03CA  0848               	movf	??_I2C_ReadByte,w
  5827  03CB  00CA               	movwf	I2C_ReadByte@rxByte
  5828                           
  5829                           ;SourceFiles/SunSensor/I2C_Driver.c: 65:     if(ack == 0)SSP1CON2bits.ACKDT = 0;
  5830  03CC  0849               	movf	I2C_ReadByte@ack,w
  5831  03CD  1D03               	btfss	3,2
  5832  03CE  2BD2               	goto	l506
  5833  03CF  0024               	movlb	4	; select bank4
  5834  03D0  1296               	bcf	22,5	;volatile
  5835  03D1  2BD4               	goto	l507
  5836  03D2                     l506:	
  5837                           ;SourceFiles/SunSensor/I2C_Driver.c: 66:     else SSP1CON2bits.ACKDT = 1;
  5838                           
  5839  03D2  0024               	movlb	4	; select bank4
  5840  03D3  1696               	bsf	22,5	;volatile
  5841  03D4                     l507:
  5842                           
  5843                           ;SourceFiles/SunSensor/I2C_Driver.c: 67:     SSP1IF = 0;
  5844  03D4  0020               	movlb	0	; select bank0
  5845  03D5  1191               	bcf	17,3	;volatile
  5846                           
  5847                           ;SourceFiles/SunSensor/I2C_Driver.c: 68:     SSP1CON2bits.ACKEN = 1;
  5848  03D6  0024               	movlb	4	; select bank4
  5849  03D7  1616               	bsf	22,4	;volatile
  5850  03D8                     l508:	
  5851                           ;SourceFiles/SunSensor/I2C_Driver.c: 69:     while(!SSP1IF);
  5852                           
  5853  03D8  0020               	movlb	0	; select bank0
  5854  03D9  1D91               	btfss	17,3	;volatile
  5855  03DA  2BD8               	goto	l508
  5856                           
  5857                           ;SourceFiles/SunSensor/I2C_Driver.c: 70:     SSP1IF = 0;
  5858  03DB  1191               	bcf	17,3	;volatile
  5859                           
  5860                           ;SourceFiles/SunSensor/I2C_Driver.c: 71:     return rxByte;
  5861  03DC  084A               	movf	I2C_ReadByte@rxByte,w
  5862  03DD  0008               	return
  5863  03DE                     __end_of_I2C_ReadByte:
  5864                           
  5865                           	psect	text24
  5866  048E                     __ptext24:	
  5867 ;; *************** function _I2C_Init *****************
  5868 ;; Defined at:
  5869 ;;		line 4 in file "SourceFiles/SunSensor/I2C_Driver.c"
  5870 ;; Parameters:    Size  Location     Type
  5871 ;;		None
  5872 ;; Auto vars:     Size  Location     Type
  5873 ;;		None
  5874 ;; Return value:  Size  Location     Type
  5875 ;;                  1    wreg      void 
  5876 ;; Registers used:
  5877 ;;		wreg, status,2
  5878 ;; Tracked objects:
  5879 ;;		On entry : 0/0
  5880 ;;		On exit  : 0/0
  5881 ;;		Unchanged: 0/0
  5882 ;; Data sizes:     COMMON   BANK0   BANK1   BANK2   BANK3   BANK4   BANK5   BANK6
  5883 ;;      Params:         0       0       0       0       0       0       0       0
  5884 ;;      Locals:         0       0       0       0       0       0       0       0
  5885 ;;      Temps:          0       0       0       0       0       0       0       0
  5886 ;;      Totals:         0       0       0       0       0       0       0       0
  5887 ;;Total ram usage:        0 bytes
  5888 ;; Hardware stack levels used:    1
  5889 ;; Hardware stack levels required when called:    5
  5890 ;; This function calls:
  5891 ;;		Nothing
  5892 ;; This function is called by:
  5893 ;;		_SHT25_StateMachine
  5894 ;; This function uses a non-reentrant model
  5895 ;;
  5896                           
  5897                           
  5898                           ;psect for function _I2C_Init
  5899  048E                     _I2C_Init:
  5900                           
  5901                           ;SourceFiles/SunSensor/I2C_Driver.c: 6:     SSP1STAT = 0x00;
  5902                           
  5903                           ;incstack = 0
  5904                           ; Regs used in _I2C_Init: [wreg+status,2]
  5905  048E  0024               	movlb	4	; select bank4
  5906  048F  0194               	clrf	20	;volatile
  5907                           
  5908                           ;SourceFiles/SunSensor/I2C_Driver.c: 7:     SSP1CON1 = 0x08;
  5909  0490  3008               	movlw	8
  5910  0491  0095               	movwf	21	;volatile
  5911                           
  5912                           ;SourceFiles/SunSensor/I2C_Driver.c: 8:     SSP1CON2 = 0x00;
  5913  0492  0196               	clrf	22	;volatile
  5914                           
  5915                           ;SourceFiles/SunSensor/I2C_Driver.c: 9:     SSP1ADD = 0x27;
  5916  0493  3027               	movlw	39
  5917  0494  0092               	movwf	18	;volatile
  5918                           
  5919                           ;SourceFiles/SunSensor/I2C_Driver.c: 10:     SSP1CON1bits.SSPEN = 1;
  5920  0495  1695               	bsf	21,5	;volatile
  5921                           
  5922                           ;SourceFiles/SunSensor/I2C_Driver.c: 11:     SSP1IF = 0;
  5923  0496  0020               	movlb	0	; select bank0
  5924  0497  1191               	bcf	17,3	;volatile
  5925                           
  5926                           ;SourceFiles/SunSensor/I2C_Driver.c: 12:     PIE1bits.SSP1IE = 1;
  5927  0498  0021               	movlb	1	; select bank1
  5928  0499  1591               	bsf	17,3	;volatile
  5929  049A  0008               	return
  5930  049B                     __end_of_I2C_Init:
  5931                           
  5932                           	psect	text25
  5933  021A                     __ptext25:	
  5934 ;; *************** function _COS_TmrHandler *****************
  5935 ;; Defined at:
  5936 ;;		line 92 in file "SourceFiles/COS/COS_Main.c"
  5937 ;; Parameters:    Size  Location     Type
  5938 ;;		None
  5939 ;; Auto vars:     Size  Location     Type
  5940 ;;  tempbyte2       1    4[BANK0 ] unsigned char 
  5941 ;;  tempbyte1       1    3[BANK0 ] unsigned char 
  5942 ;; Return value:  Size  Location     Type
  5943 ;;                  1    wreg      void 
  5944 ;; Registers used:
  5945 ;;		wreg, status,2, status,0
  5946 ;; Tracked objects:
  5947 ;;		On entry : 0/0
  5948 ;;		On exit  : 0/0
  5949 ;;		Unchanged: 0/0
  5950 ;; Data sizes:     COMMON   BANK0   BANK1   BANK2   BANK3   BANK4   BANK5   BANK6
  5951 ;;      Params:         0       0       0       0       0       0       0       0
  5952 ;;      Locals:         0       2       0       0       0       0       0       0
  5953 ;;      Temps:          0       3       0       0       0       0       0       0
  5954 ;;      Totals:         0       5       0       0       0       0       0       0
  5955 ;;Total ram usage:        5 bytes
  5956 ;; Hardware stack levels used:    1
  5957 ;; Hardware stack levels required when called:    5
  5958 ;; This function calls:
  5959 ;;		Nothing
  5960 ;; This function is called by:
  5961 ;;		_main
  5962 ;; This function uses a non-reentrant model
  5963 ;;
  5964                           
  5965                           
  5966                           ;psect for function _COS_TmrHandler
  5967  021A                     _COS_TmrHandler:
  5968                           
  5969                           ;SourceFiles/COS/COS_Main.c: 94:  UINT_8 tempbyte1, tempbyte2;;SourceFiles/COS/COS_Main.
      +                          c: 95:  tempbyte2 = TMR1H;
  5970                           
  5971                           ;incstack = 0
  5972                           ; Regs used in _COS_TmrHandler: [wreg+status,2+status,0]
  5973  021A  0020               	movlb	0	; select bank0
  5974  021B  0817               	movf	23,w	;volatile
  5975  021C  00C8               	movwf	??_COS_TmrHandler
  5976  021D  0848               	movf	??_COS_TmrHandler,w
  5977  021E  00CC               	movwf	COS_TmrHandler@tempbyte2
  5978                           
  5979                           ;SourceFiles/COS/COS_Main.c: 96:  tempbyte1 = TMR1L;
  5980  021F  0816               	movf	22,w	;volatile
  5981  0220  00C8               	movwf	??_COS_TmrHandler
  5982  0221  0848               	movf	??_COS_TmrHandler,w
  5983  0222  00CB               	movwf	COS_TmrHandler@tempbyte1
  5984                           
  5985                           ;SourceFiles/COS/COS_Main.c: 97:  if (tempbyte2 != TMR1H)
  5986  0223  084C               	movf	COS_TmrHandler@tempbyte2,w
  5987  0224  0617               	xorwf	23,w	;volatile
  5988  0225  1903               	skipnz
  5989  0226  2A2F               	goto	l36
  5990                           
  5991                           ;SourceFiles/COS/COS_Main.c: 98:  {;SourceFiles/COS/COS_Main.c: 99:   tempbyte2 = TMR1H;
  5992  0227  0817               	movf	23,w	;volatile
  5993  0228  00C8               	movwf	??_COS_TmrHandler
  5994  0229  0848               	movf	??_COS_TmrHandler,w
  5995  022A  00CC               	movwf	COS_TmrHandler@tempbyte2
  5996                           
  5997                           ;SourceFiles/COS/COS_Main.c: 100:   tempbyte1 = TMR1L;
  5998  022B  0816               	movf	22,w	;volatile
  5999  022C  00C8               	movwf	??_COS_TmrHandler
  6000  022D  0848               	movf	??_COS_TmrHandler,w
  6001  022E  00CB               	movwf	COS_TmrHandler@tempbyte1
  6002  022F                     l36:	
  6003                           ;SourceFiles/COS/COS_Main.c: 101:  }
  6004                           
  6005                           
  6006                           ;SourceFiles/COS/COS_Main.c: 102:  COS_tcnt_val = (UINT_16) (tempbyte2 << 8)&0xff00;
  6007  022F  084C               	movf	COS_TmrHandler@tempbyte2,w
  6008  0230  00C8               	movwf	??_COS_TmrHandler
  6009  0231  01C9               	clrf	??_COS_TmrHandler+1
  6010  0232  0848               	movf	??_COS_TmrHandler,w
  6011  0233  00C9               	movwf	??_COS_TmrHandler+1
  6012  0234  01C8               	clrf	??_COS_TmrHandler
  6013  0235  3000               	movlw	0
  6014  0236  0548               	andwf	??_COS_TmrHandler,w
  6015  0237  00F6               	movwf	_COS_tcnt_val
  6016  0238  30FF               	movlw	255
  6017  0239  0549               	andwf	??_COS_TmrHandler+1,w
  6018  023A  00F7               	movwf	_COS_tcnt_val+1
  6019                           
  6020                           ;SourceFiles/COS/COS_Main.c: 103:  COS_tcnt_val = COS_tcnt_val | (UINT_16) (tempbyte1 & 
      +                          0x00ff);
  6021  023B  0876               	movf	_COS_tcnt_val,w
  6022  023C  044B               	iorwf	COS_TmrHandler@tempbyte1,w
  6023  023D  00F6               	movwf	_COS_tcnt_val
  6024  023E  0877               	movf	_COS_tcnt_val+1,w
  6025  023F  00F7               	movwf	_COS_tcnt_val+1
  6026                           
  6027                           ;SourceFiles/COS/COS_Main.c: 105:  if (((UINT_16) ((UINT_16) COS_tcnt_val - (UINT_16) CO
      +                          S_tcnt_lst) >= (UINT_16) 1000))
  6028  0240  0834               	movf	_COS_tcnt_lst,w
  6029  0241  0276               	subwf	_COS_tcnt_val,w
  6030  0242  00C8               	movwf	??_COS_TmrHandler
  6031  0243  0835               	movf	_COS_tcnt_lst+1,w
  6032  0244  3B77               	subwfb	_COS_tcnt_val+1,w
  6033  0245  00C9               	movwf	??_COS_TmrHandler+1
  6034  0246  3003               	movlw	3
  6035  0247  0249               	subwf	??_COS_TmrHandler+1,w
  6036  0248  30E8               	movlw	232
  6037  0249  1903               	skipnz
  6038  024A  0248               	subwf	??_COS_TmrHandler,w
  6039  024B  1C03               	skipc
  6040  024C  0008               	return
  6041                           
  6042                           ;SourceFiles/COS/COS_Main.c: 106:  {;SourceFiles/COS/COS_Main.c: 107:   COS_tcnt_lst = C
      +                          OS_tcnt_lst + 1000;
  6043  024D  0834               	movf	_COS_tcnt_lst,w
  6044  024E  3EE8               	addlw	232
  6045  024F  00B4               	movwf	_COS_tcnt_lst
  6046  0250  3003               	movlw	3
  6047  0251  3D35               	addwfc	_COS_tcnt_lst+1,w
  6048  0252  00B5               	movwf	_COS_tcnt_lst+1
  6049                           
  6050                           ;SourceFiles/COS/COS_Main.c: 108:   COS_ms_tmr++;
  6051  0253  3001               	movlw	1
  6052  0254  07BA               	addwf	_COS_ms_tmr,f
  6053  0255  3000               	movlw	0
  6054  0256  3DBB               	addwfc	_COS_ms_tmr+1,f
  6055                           
  6056                           ;SourceFiles/COS/COS_Main.c: 110:   if (COS_ms_tmr >= 1000)
  6057  0257  3003               	movlw	3
  6058  0258  023B               	subwf	_COS_ms_tmr+1,w
  6059  0259  30E8               	movlw	232
  6060  025A  1903               	skipnz
  6061  025B  023A               	subwf	_COS_ms_tmr,w
  6062  025C  1C03               	skipc
  6063  025D  2A64               	goto	l4042
  6064                           
  6065                           ;SourceFiles/COS/COS_Main.c: 111:   {;SourceFiles/COS/COS_Main.c: 112:    COS_ms_tmr = 0
      +                          ;
  6066  025E  01BA               	clrf	_COS_ms_tmr
  6067  025F  01BB               	clrf	_COS_ms_tmr+1
  6068                           
  6069                           ;SourceFiles/COS/COS_Main.c: 113:    COS_sec_tmr++;
  6070  0260  3001               	movlw	1
  6071  0261  07B8               	addwf	_COS_sec_tmr,f	;volatile
  6072  0262  3000               	movlw	0
  6073  0263  3DB9               	addwfc	_COS_sec_tmr+1,f	;volatile
  6074  0264                     l4042:
  6075                           
  6076                           ;SourceFiles/COS/COS_Main.c: 115:   COS_tsk_tmr++;
  6077  0264  3001               	movlw	1
  6078  0265  07B6               	addwf	_COS_tsk_tmr,f
  6079  0266  3000               	movlw	0
  6080  0267  3DB7               	addwfc	_COS_tsk_tmr+1,f
  6081                           
  6082                           ;SourceFiles/COS/COS_Main.c: 116:   if ((COS_tsk_tmr >= 10) && (!COS_tsk_ena))
  6083  0268  3000               	movlw	0
  6084  0269  0237               	subwf	_COS_tsk_tmr+1,w
  6085  026A  300A               	movlw	10
  6086  026B  1903               	skipnz
  6087  026C  0236               	subwf	_COS_tsk_tmr,w
  6088  026D  1C03               	skipc
  6089  026E  0008               	return
  6090  026F  0869               	movf	_COS_tsk_ena,w
  6091  0270  1D03               	btfss	3,2
  6092  0271  0008               	return
  6093                           
  6094                           ;SourceFiles/COS/COS_Main.c: 117:   {;SourceFiles/COS/COS_Main.c: 118:    COS_tsk_tmr = 
      +                          0;
  6095  0272  01B6               	clrf	_COS_tsk_tmr
  6096  0273  01B7               	clrf	_COS_tsk_tmr+1
  6097                           
  6098                           ;SourceFiles/COS/COS_Main.c: 119:    COS_tsk_ena = 1;
  6099  0274  01E9               	clrf	_COS_tsk_ena
  6100  0275  0AE9               	incf	_COS_tsk_ena,f
  6101  0276  0008               	return
  6102  0277                     __end_of_COS_TmrHandler:
  6103                           
  6104                           	psect	text26
  6105  030E                     __ptext26:	
  6106 ;; *************** function _COS_Init *****************
  6107 ;; Defined at:
  6108 ;;		line 32 in file "SourceFiles/COS/COS_Main.c"
  6109 ;; Parameters:    Size  Location     Type
  6110 ;;		None
  6111 ;; Auto vars:     Size  Location     Type
  6112 ;;  tempbyte2       1    4[BANK0 ] unsigned char 
  6113 ;;  tempbyte1       1    3[BANK0 ] unsigned char 
  6114 ;; Return value:  Size  Location     Type
  6115 ;;                  1    wreg      void 
  6116 ;; Registers used:
  6117 ;;		wreg, status,2, status,0, pclath, cstack
  6118 ;; Tracked objects:
  6119 ;;		On entry : 0/0
  6120 ;;		On exit  : 0/0
  6121 ;;		Unchanged: 0/0
  6122 ;; Data sizes:     COMMON   BANK0   BANK1   BANK2   BANK3   BANK4   BANK5   BANK6
  6123 ;;      Params:         0       0       0       0       0       0       0       0
  6124 ;;      Locals:         0       2       0       0       0       0       0       0
  6125 ;;      Temps:          0       3       0       0       0       0       0       0
  6126 ;;      Totals:         0       5       0       0       0       0       0       0
  6127 ;;Total ram usage:        5 bytes
  6128 ;; Hardware stack levels used:    1
  6129 ;; Hardware stack levels required when called:    6
  6130 ;; This function calls:
  6131 ;;		_COS_TimerSetup
  6132 ;; This function is called by:
  6133 ;;		_main
  6134 ;; This function uses a non-reentrant model
  6135 ;;
  6136                           
  6137                           
  6138                           ;psect for function _COS_Init
  6139  030E                     _COS_Init:
  6140                           
  6141                           ;SourceFiles/COS/COS_Main.c: 34:  UINT_8 tempbyte1, tempbyte2;;SourceFiles/COS/COS_Main.
      +                          c: 36:  COS_TimerSetup();
  6142                           
  6143                           ;incstack = 0
  6144                           ; Regs used in _COS_Init: [wreg+status,2+status,0+pclath+cstack]
  6145  030E  3185  250C  3183   	fcall	_COS_TimerSetup
  6146                           
  6147                           ;SourceFiles/COS/COS_Main.c: 41:  COS_tsk_ind = 0;
  6148  0311  0020               	movlb	0	; select bank0
  6149  0312  01C7               	clrf	_COS_tsk_ind
  6150                           
  6151                           ;SourceFiles/COS/COS_Main.c: 42:  COS_tsk_msk = 0x80;
  6152  0313  3080               	movlw	128
  6153  0314  00C8               	movwf	??_COS_Init
  6154  0315  0848               	movf	??_COS_Init,w
  6155  0316  00EA               	movwf	_COS_tsk_msk
  6156                           
  6157                           ;SourceFiles/COS/COS_Main.c: 43:  COS_tsk_ena = 1;
  6158  0317  01E9               	clrf	_COS_tsk_ena
  6159  0318  0AE9               	incf	_COS_tsk_ena,f
  6160                           
  6161                           ;SourceFiles/COS/COS_Main.c: 44:  COS_ms_tmr = 0;
  6162  0319  01BA               	clrf	_COS_ms_tmr
  6163  031A  01BB               	clrf	_COS_ms_tmr+1
  6164                           
  6165                           ;SourceFiles/COS/COS_Main.c: 45:  COS_sec_tmr = 0;
  6166  031B  01B8               	clrf	_COS_sec_tmr	;volatile
  6167  031C  01B9               	clrf	_COS_sec_tmr+1	;volatile
  6168                           
  6169                           ;SourceFiles/COS/COS_Main.c: 46:  COS_tsk_tmr = 0;
  6170  031D  01B6               	clrf	_COS_tsk_tmr
  6171  031E  01B7               	clrf	_COS_tsk_tmr+1
  6172                           
  6173                           ;SourceFiles/COS/COS_Main.c: 48:  tempbyte2 = TMR1H;
  6174  031F  0817               	movf	23,w	;volatile
  6175  0320  00C8               	movwf	??_COS_Init
  6176  0321  0848               	movf	??_COS_Init,w
  6177  0322  00CC               	movwf	COS_Init@tempbyte2
  6178                           
  6179                           ;SourceFiles/COS/COS_Main.c: 49:  tempbyte1 = TMR1L;
  6180  0323  0816               	movf	22,w	;volatile
  6181  0324  00C8               	movwf	??_COS_Init
  6182  0325  0848               	movf	??_COS_Init,w
  6183  0326  00CB               	movwf	COS_Init@tempbyte1
  6184                           
  6185                           ;SourceFiles/COS/COS_Main.c: 50:  if (tempbyte2 != TMR1H)
  6186  0327  084C               	movf	COS_Init@tempbyte2,w
  6187  0328  0617               	xorwf	23,w	;volatile
  6188  0329  1903               	skipnz
  6189  032A  2B33               	goto	l29
  6190                           
  6191                           ;SourceFiles/COS/COS_Main.c: 51:  {;SourceFiles/COS/COS_Main.c: 52:   tempbyte2 = TMR1H;
  6192  032B  0817               	movf	23,w	;volatile
  6193  032C  00C8               	movwf	??_COS_Init
  6194  032D  0848               	movf	??_COS_Init,w
  6195  032E  00CC               	movwf	COS_Init@tempbyte2
  6196                           
  6197                           ;SourceFiles/COS/COS_Main.c: 53:   tempbyte1 = TMR1L;
  6198  032F  0816               	movf	22,w	;volatile
  6199  0330  00C8               	movwf	??_COS_Init
  6200  0331  0848               	movf	??_COS_Init,w
  6201  0332  00CB               	movwf	COS_Init@tempbyte1
  6202  0333                     l29:	
  6203                           ;SourceFiles/COS/COS_Main.c: 54:  }
  6204                           
  6205                           
  6206                           ;SourceFiles/COS/COS_Main.c: 55:  COS_tcnt_val = ((UINT_16)tempbyte2 << 8)&0xff00;
  6207  0333  084C               	movf	COS_Init@tempbyte2,w
  6208  0334  00C8               	movwf	??_COS_Init
  6209  0335  01C9               	clrf	??_COS_Init+1
  6210  0336  0848               	movf	??_COS_Init,w
  6211  0337  00C9               	movwf	??_COS_Init+1
  6212  0338  01C8               	clrf	??_COS_Init
  6213  0339  3000               	movlw	0
  6214  033A  0548               	andwf	??_COS_Init,w
  6215  033B  00F6               	movwf	_COS_tcnt_val
  6216  033C  30FF               	movlw	255
  6217  033D  0549               	andwf	??_COS_Init+1,w
  6218  033E  00F7               	movwf	_COS_tcnt_val+1
  6219                           
  6220                           ;SourceFiles/COS/COS_Main.c: 56:  COS_tcnt_val = COS_tcnt_val | ((UINT_16)tempbyte1 & 0x
      +                          00ff);
  6221  033F  0876               	movf	_COS_tcnt_val,w
  6222  0340  044B               	iorwf	COS_Init@tempbyte1,w
  6223  0341  00F6               	movwf	_COS_tcnt_val
  6224  0342  0877               	movf	_COS_tcnt_val+1,w
  6225  0343  00F7               	movwf	_COS_tcnt_val+1
  6226                           
  6227                           ;SourceFiles/COS/COS_Main.c: 57:  COS_tcnt_lst = COS_tcnt_val;
  6228  0344  0877               	movf	_COS_tcnt_val+1,w
  6229  0345  00B5               	movwf	_COS_tcnt_lst+1
  6230  0346  0876               	movf	_COS_tcnt_val,w
  6231  0347  00B4               	movwf	_COS_tcnt_lst
  6232  0348  0008               	return
  6233  0349                     __end_of_COS_Init:
  6234                           
  6235                           	psect	text27
  6236  050C                     __ptext27:	
  6237 ;; *************** function _COS_TimerSetup *****************
  6238 ;; Defined at:
  6239 ;;		line 68 in file "SourceFiles/COS/COS_Main.c"
  6240 ;; Parameters:    Size  Location     Type
  6241 ;;		None
  6242 ;; Auto vars:     Size  Location     Type
  6243 ;;		None
  6244 ;; Return value:  Size  Location     Type
  6245 ;;                  1    wreg      void 
  6246 ;; Registers used:
  6247 ;;		wreg, status,2
  6248 ;; Tracked objects:
  6249 ;;		On entry : 0/0
  6250 ;;		On exit  : 0/0
  6251 ;;		Unchanged: 0/0
  6252 ;; Data sizes:     COMMON   BANK0   BANK1   BANK2   BANK3   BANK4   BANK5   BANK6
  6253 ;;      Params:         0       0       0       0       0       0       0       0
  6254 ;;      Locals:         0       0       0       0       0       0       0       0
  6255 ;;      Temps:          0       0       0       0       0       0       0       0
  6256 ;;      Totals:         0       0       0       0       0       0       0       0
  6257 ;;Total ram usage:        0 bytes
  6258 ;; Hardware stack levels used:    1
  6259 ;; Hardware stack levels required when called:    5
  6260 ;; This function calls:
  6261 ;;		Nothing
  6262 ;; This function is called by:
  6263 ;;		_COS_Init
  6264 ;; This function uses a non-reentrant model
  6265 ;;
  6266                           
  6267                           
  6268                           ;psect for function _COS_TimerSetup
  6269  050C                     _COS_TimerSetup:
  6270                           
  6271                           ;SourceFiles/COS/COS_Main.c: 72:  TMR1H = 0;
  6272                           
  6273                           ;incstack = 0
  6274                           ; Regs used in _COS_TimerSetup: [wreg+status,2]
  6275  050C  0020               	movlb	0	; select bank0
  6276  050D  0197               	clrf	23	;volatile
  6277                           
  6278                           ;SourceFiles/COS/COS_Main.c: 73:  TMR1L = 0;
  6279  050E  0196               	clrf	22	;volatile
  6280                           
  6281                           ;SourceFiles/COS/COS_Main.c: 78:  T1CON = 0b00100001;
  6282  050F  3021               	movlw	33
  6283  0510  0098               	movwf	24	;volatile
  6284  0511  0008               	return
  6285  0512                     __end_of_COS_TimerSetup:
  6286                           
  6287                           	psect	intentry
  6288  0004                     __pintentry:	
  6289 ;; *************** function _INTERRUPT_InterruptManager *****************
  6290 ;; Defined at:
  6291 ;;		line 52 in file "mcc_generated_files/interrupt_manager.c"
  6292 ;; Parameters:    Size  Location     Type
  6293 ;;		None
  6294 ;; Auto vars:     Size  Location     Type
  6295 ;;		None
  6296 ;; Return value:  Size  Location     Type
  6297 ;;                  1    wreg      void 
  6298 ;; Registers used:
  6299 ;;		wreg, fsr0l, fsr0h, status,2, status,0, pclath, cstack
  6300 ;; Tracked objects:
  6301 ;;		On entry : 0/0
  6302 ;;		On exit  : 0/0
  6303 ;;		Unchanged: 0/0
  6304 ;; Data sizes:     COMMON   BANK0   BANK1   BANK2   BANK3   BANK4   BANK5   BANK6
  6305 ;;      Params:         0       0       0       0       0       0       0       0
  6306 ;;      Locals:         0       0       0       0       0       0       0       0
  6307 ;;      Temps:          0       0       0       0       0       0       0       0
  6308 ;;      Totals:         0       0       0       0       0       0       0       0
  6309 ;;Total ram usage:        0 bytes
  6310 ;; Hardware stack levels used:    1
  6311 ;; Hardware stack levels required when called:    4
  6312 ;; This function calls:
  6313 ;;		_TMR2_ISR
  6314 ;; This function is called by:
  6315 ;;		Interrupt level 1
  6316 ;; This function uses a non-reentrant model
  6317 ;;
  6318                           
  6319  0004                     _INTERRUPT_InterruptManager:
  6320                           
  6321                           ;incstack = 0
  6322  0004  147E               	bsf	126,0	;set compiler interrupt flag (level 1)
  6323                           
  6324                           ; Regs used in _INTERRUPT_InterruptManager: [wreg-fsr0h+status,2+status,0+pclath+cstack]
  6325  0005  3180               	pagesel	$
  6326                           
  6327                           ;mcc_generated_files/interrupt_manager.c: 55:     if(INTCONbits.PEIE == 1)
  6328  0006  1F0B               	btfss	11,6	;volatile
  6329  0007  2810               	goto	i1l131
  6330                           
  6331                           ;mcc_generated_files/interrupt_manager.c: 56:     {;mcc_generated_files/interrupt_manage
      +                          r.c: 66:         if(PIE1bits.TMR2IE == 1 && PIR1bits.TMR2IF == 1)
  6332  0008  0021               	movlb	1	; select bank1
  6333  0009  1C91               	btfss	17,1	;volatile
  6334  000A  2810               	goto	i1l131
  6335  000B  0020               	movlb	0	; select bank0
  6336  000C  1C91               	btfss	17,1	;volatile
  6337  000D  2810               	goto	i1l131
  6338                           
  6339                           ;mcc_generated_files/interrupt_manager.c: 67:         {;mcc_generated_files/interrupt_ma
      +                          nager.c: 68:             TMR2_ISR();
  6340  000E  3184  245A         	fcall	_TMR2_ISR
  6341  0010                     i1l131:	
  6342                           ;mcc_generated_files/interrupt_manager.c: 69:         }
  6343                           
  6344  0010  107E               	bcf	126,0	;clear compiler interrupt flag (level 1)
  6345  0011  0009               	retfie
  6346  0012                     __end_of_INTERRUPT_InterruptManager:
  6347                           
  6348                           	psect	text29
  6349  045A                     __ptext29:	
  6350 ;; *************** function _TMR2_ISR *****************
  6351 ;; Defined at:
  6352 ;;		line 119 in file "mcc_generated_files/tmr2.c"
  6353 ;; Parameters:    Size  Location     Type
  6354 ;;		None
  6355 ;; Auto vars:     Size  Location     Type
  6356 ;;		None
  6357 ;; Return value:  Size  Location     Type
  6358 ;;                  1    wreg      void 
  6359 ;; Registers used:
  6360 ;;		wreg, fsr0l, fsr0h, status,2, status,0, pclath, cstack
  6361 ;; Tracked objects:
  6362 ;;		On entry : 0/0
  6363 ;;		On exit  : 0/0
  6364 ;;		Unchanged: 0/0
  6365 ;; Data sizes:     COMMON   BANK0   BANK1   BANK2   BANK3   BANK4   BANK5   BANK6
  6366 ;;      Params:         0       0       0       0       0       0       0       0
  6367 ;;      Locals:         0       0       0       0       0       0       0       0
  6368 ;;      Temps:          0       0       0       0       0       0       0       0
  6369 ;;      Totals:         0       0       0       0       0       0       0       0
  6370 ;;Total ram usage:        0 bytes
  6371 ;; Hardware stack levels used:    1
  6372 ;; Hardware stack levels required when called:    3
  6373 ;; This function calls:
  6374 ;;		_TMR2_CallBack
  6375 ;; This function is called by:
  6376 ;;		_INTERRUPT_InterruptManager
  6377 ;; This function uses a non-reentrant model
  6378 ;;
  6379                           
  6380                           
  6381                           ;psect for function _TMR2_ISR
  6382  045A                     _TMR2_ISR:
  6383                           
  6384                           ;mcc_generated_files/tmr2.c: 121:     static volatile unsigned int CountCallBack = 0;;mc
      +                          c_generated_files/tmr2.c: 124:     PIR1bits.TMR2IF = 0;
  6385                           
  6386                           ;incstack = 0
  6387                           ; Regs used in _TMR2_ISR: [wreg-fsr0h+status,2+status,0+pclath+cstack]
  6388  045A  0020               	movlb	0	; select bank0
  6389  045B  1091               	bcf	17,1	;volatile
  6390                           
  6391                           ;mcc_generated_files/tmr2.c: 127:     if (++CountCallBack >= 5)
  6392  045C  3001               	movlw	1
  6393  045D  07B0               	addwf	TMR2_ISR@CountCallBack,f	;volatile
  6394  045E  3000               	movlw	0
  6395  045F  3DB1               	addwfc	TMR2_ISR@CountCallBack+1,f	;volatile
  6396  0460  3000               	movlw	0
  6397  0461  0231               	subwf	TMR2_ISR@CountCallBack+1,w	;volatile
  6398  0462  3005               	movlw	5
  6399  0463  1903               	skipnz
  6400  0464  0230               	subwf	TMR2_ISR@CountCallBack,w	;volatile
  6401  0465  1C03               	skipc
  6402  0466  0008               	return
  6403                           
  6404                           ;mcc_generated_files/tmr2.c: 128:     {;mcc_generated_files/tmr2.c: 130:         TMR2_Ca
      +                          llBack();
  6405  0467  3184  24B3         	fcall	_TMR2_CallBack
  6406                           
  6407                           ;mcc_generated_files/tmr2.c: 133:         CountCallBack = 0;
  6408  0469  0020               	movlb	0	; select bank0
  6409  046A  01B0               	clrf	TMR2_ISR@CountCallBack	;volatile
  6410  046B  01B1               	clrf	TMR2_ISR@CountCallBack+1	;volatile
  6411  046C  0008               	return
  6412  046D                     __end_of_TMR2_ISR:
  6413                           
  6414                           	psect	text30
  6415  04B3                     __ptext30:	
  6416 ;; *************** function _TMR2_CallBack *****************
  6417 ;; Defined at:
  6418 ;;		line 137 in file "mcc_generated_files/tmr2.c"
  6419 ;; Parameters:    Size  Location     Type
  6420 ;;		None
  6421 ;; Auto vars:     Size  Location     Type
  6422 ;;		None
  6423 ;; Return value:  Size  Location     Type
  6424 ;;                  1    wreg      void 
  6425 ;; Registers used:
  6426 ;;		wreg, fsr0l, fsr0h, status,2, status,0, pclath, cstack
  6427 ;; Tracked objects:
  6428 ;;		On entry : 0/0
  6429 ;;		On exit  : 0/0
  6430 ;;		Unchanged: 0/0
  6431 ;; Data sizes:     COMMON   BANK0   BANK1   BANK2   BANK3   BANK4   BANK5   BANK6
  6432 ;;      Params:         0       0       0       0       0       0       0       0
  6433 ;;      Locals:         0       0       0       0       0       0       0       0
  6434 ;;      Temps:          0       0       0       0       0       0       0       0
  6435 ;;      Totals:         0       0       0       0       0       0       0       0
  6436 ;;Total ram usage:        0 bytes
  6437 ;; Hardware stack levels used:    1
  6438 ;; Hardware stack levels required when called:    2
  6439 ;; This function calls:
  6440 ;;		Absolute function
  6441 ;;		_Led2_PWM
  6442 ;;		_TMR2_DefaultInterruptHandler
  6443 ;; This function is called by:
  6444 ;;		_TMR2_ISR
  6445 ;; This function uses a non-reentrant model
  6446 ;;
  6447                           
  6448                           
  6449                           ;psect for function _TMR2_CallBack
  6450  04B3                     _TMR2_CallBack:
  6451                           
  6452                           ;mcc_generated_files/tmr2.c: 141:     if(TMR2_InterruptHandler)
  6453                           
  6454                           ;incstack = 0
  6455                           ; Regs used in _TMR2_CallBack: [wreg-fsr0h+status,2+status,0+pclath+cstack]
  6456  04B3  0020               	movlb	0	; select bank0
  6457  04B4  0867               	movf	_TMR2_InterruptHandler,w
  6458  04B5  0468               	iorwf	_TMR2_InterruptHandler+1,w
  6459  04B6  1903               	btfsc	3,2
  6460  04B7  0008               	return
  6461                           
  6462                           ;mcc_generated_files/tmr2.c: 142:     {;mcc_generated_files/tmr2.c: 143:         TMR2_In
      +                          terruptHandler();
  6463  04B8  0868               	movf	_TMR2_InterruptHandler+1,w
  6464  04B9  008A               	movwf	10
  6465  04BA  0867               	movf	_TMR2_InterruptHandler,w
  6466  04BB  000A               	callw
  6467  04BC  3184               	pagesel	$
  6468  04BD  0008               	return
  6469  04BE                     __end_of_TMR2_CallBack:
  6470                           
  6471                           	psect	text31
  6472  01B4                     __ptext31:	
  6473 ;; *************** function _Led2_PWM *****************
  6474 ;; Defined at:
  6475 ;;		line 30 in file "SourceFiles/SunSensor/Led.c"
  6476 ;; Parameters:    Size  Location     Type
  6477 ;;		None
  6478 ;; Auto vars:     Size  Location     Type
  6479 ;;		None
  6480 ;; Return value:  Size  Location     Type
  6481 ;;                  1    wreg      void 
  6482 ;; Registers used:
  6483 ;;		wreg, fsr0l, fsr0h, status,2, status,0, pclath, cstack
  6484 ;; Tracked objects:
  6485 ;;		On entry : 0/0
  6486 ;;		On exit  : 0/0
  6487 ;;		Unchanged: 0/0
  6488 ;; Data sizes:     COMMON   BANK0   BANK1   BANK2   BANK3   BANK4   BANK5   BANK6
  6489 ;;      Params:         0       0       0       0       0       0       0       0
  6490 ;;      Locals:         0       0       0       0       0       0       0       0
  6491 ;;      Temps:          2       0       0       0       0       0       0       0
  6492 ;;      Totals:         2       0       0       0       0       0       0       0
  6493 ;;Total ram usage:        2 bytes
  6494 ;; Hardware stack levels used:    1
  6495 ;; Hardware stack levels required when called:    1
  6496 ;; This function calls:
  6497 ;;		_PWM1_LoadDutyValue
  6498 ;; This function is called by:
  6499 ;;		_main
  6500 ;;		_TMR2_CallBack
  6501 ;; This function uses a non-reentrant model
  6502 ;;
  6503                           
  6504                           
  6505                           ;psect for function _Led2_PWM
  6506  01B4                     _Led2_PWM:
  6507                           
  6508                           ;SourceFiles/SunSensor/Led.c: 32:     switch (BreathState)
  6509                           
  6510                           ;incstack = 0
  6511                           ; Regs used in _Led2_PWM: [wreg-fsr0h+status,2+status,0+pclath+cstack]
  6512  01B4  29FF               	goto	i1l2810
  6513  01B5                     i1l2782:
  6514                           
  6515                           ;SourceFiles/SunSensor/Led.c: 35:             counter++;
  6516  01B5  3001               	movlw	1
  6517  01B6  0020               	movlb	0	; select bank0
  6518  01B7  07AE               	addwf	_counter,f
  6519  01B8  3000               	movlw	0
  6520  01B9  3DAF               	addwfc	_counter+1,f
  6521                           
  6522                           ;SourceFiles/SunSensor/Led.c: 36:             if(counter > 100)
  6523  01BA  3000               	movlw	0
  6524  01BB  022F               	subwf	_counter+1,w
  6525  01BC  3065               	movlw	101
  6526  01BD  1903               	skipnz
  6527  01BE  022E               	subwf	_counter,w
  6528  01BF  1C03               	skipc
  6529  01C0  29C6               	goto	i1l2786
  6530                           
  6531                           ;SourceFiles/SunSensor/Led.c: 37:             {;SourceFiles/SunSensor/Led.c: 38:        
      +                                   BreathState = 2;
  6532  01C1  3002               	movlw	2
  6533  01C2  00F4               	movwf	??_Led2_PWM
  6534  01C3  0874               	movf	??_Led2_PWM,w
  6535  01C4  00FB               	movwf	_BreathState
  6536                           
  6537                           ;SourceFiles/SunSensor/Led.c: 39:             }
  6538  01C5  2A12               	goto	i1l2812
  6539  01C6                     i1l2786:
  6540                           
  6541                           ;SourceFiles/SunSensor/Led.c: 41:             {;SourceFiles/SunSensor/Led.c: 42:        
      +                                   dutyValue += 8;
  6542  01C6  3008               	movlw	8
  6543  01C7  07AC               	addwf	_dutyValue,f
  6544  01C8  3000               	movlw	0
  6545  01C9  3DAD               	addwfc	_dutyValue+1,f
  6546  01CA  2A12               	goto	i1l2812
  6547  01CB                     i1l2788:
  6548                           
  6549                           ;SourceFiles/SunSensor/Led.c: 46:             counter++;
  6550  01CB  3001               	movlw	1
  6551  01CC  0020               	movlb	0	; select bank0
  6552  01CD  07AE               	addwf	_counter,f
  6553  01CE  3000               	movlw	0
  6554  01CF  3DAF               	addwfc	_counter+1,f
  6555                           
  6556                           ;SourceFiles/SunSensor/Led.c: 47:             if (counter >= (100 + 200))
  6557  01D0  3001               	movlw	1
  6558  01D1  022F               	subwf	_counter+1,w
  6559  01D2  302C               	movlw	44
  6560  01D3  1903               	skipnz
  6561  01D4  022E               	subwf	_counter,w
  6562  01D5  1C03               	skipc
  6563  01D6  29DE               	goto	i1l2794
  6564                           
  6565                           ;SourceFiles/SunSensor/Led.c: 48:             {;SourceFiles/SunSensor/Led.c: 49:        
      +                                   BreathState = 3;
  6566  01D7  3003               	movlw	3
  6567  01D8  00F4               	movwf	??_Led2_PWM
  6568  01D9  0874               	movf	??_Led2_PWM,w
  6569  01DA  00FB               	movwf	_BreathState
  6570  01DB                     i1l2792:
  6571                           
  6572                           ;SourceFiles/SunSensor/Led.c: 51:                 dutyValue = 0;
  6573  01DB  01AC               	clrf	_dutyValue
  6574  01DC  01AD               	clrf	_dutyValue+1
  6575                           
  6576                           ;SourceFiles/SunSensor/Led.c: 53:             }
  6577  01DD  2A12               	goto	i1l2812
  6578  01DE                     i1l2794:
  6579                           
  6580                           ;SourceFiles/SunSensor/Led.c: 55:             {;SourceFiles/SunSensor/Led.c: 56:        
      +                                   if (dutyValue > 0)
  6581  01DE  082C               	movf	_dutyValue,w
  6582  01DF  042D               	iorwf	_dutyValue+1,w
  6583  01E0  1903               	btfsc	3,2
  6584  01E1  2A12               	goto	i1l2812
  6585                           
  6586                           ;SourceFiles/SunSensor/Led.c: 57:                 {;SourceFiles/SunSensor/Led.c: 58:    
      +                                           if (dutyValue > 4)
  6587  01E2  3000               	movlw	0
  6588  01E3  022D               	subwf	_dutyValue+1,w
  6589  01E4  3005               	movlw	5
  6590  01E5  1903               	skipnz
  6591  01E6  022C               	subwf	_dutyValue,w
  6592  01E7  1C03               	skipc
  6593  01E8  29DB               	goto	i1l2792
  6594                           
  6595                           ;SourceFiles/SunSensor/Led.c: 59:                     {;SourceFiles/SunSensor/Led.c: 60:
      +                                                   dutyValue-=4;
  6596  01E9  3004               	movlw	4
  6597  01EA  02AC               	subwf	_dutyValue,f
  6598  01EB  3000               	movlw	0
  6599  01EC  3BAD               	subwfb	_dutyValue+1,f
  6600                           
  6601                           ;SourceFiles/SunSensor/Led.c: 61:                     }
  6602  01ED  2A12               	goto	i1l2812
  6603  01EE                     i1l2802:
  6604                           
  6605                           ;SourceFiles/SunSensor/Led.c: 71:             counter++;
  6606  01EE  3001               	movlw	1
  6607  01EF  0020               	movlb	0	; select bank0
  6608  01F0  07AE               	addwf	_counter,f
  6609  01F1  3000               	movlw	0
  6610  01F2  3DAF               	addwfc	_counter+1,f
  6611                           
  6612                           ;SourceFiles/SunSensor/Led.c: 72:             if (counter > (100 + 200 + 100))
  6613  01F3  3001               	movlw	1
  6614  01F4  022F               	subwf	_counter+1,w
  6615  01F5  3091               	movlw	145
  6616  01F6  1903               	skipnz
  6617  01F7  022E               	subwf	_counter,w
  6618  01F8  1C03               	skipc
  6619  01F9  2A12               	goto	i1l2812
  6620                           
  6621                           ;SourceFiles/SunSensor/Led.c: 73:             {;SourceFiles/SunSensor/Led.c: 74:        
      +                                   counter = 0;
  6622  01FA  01AE               	clrf	_counter
  6623  01FB  01AF               	clrf	_counter+1
  6624                           
  6625                           ;SourceFiles/SunSensor/Led.c: 75:                 BreathState = 1;
  6626  01FC  01FB               	clrf	_BreathState
  6627  01FD  0AFB               	incf	_BreathState,f
  6628  01FE  2A12               	goto	i1l2812
  6629  01FF                     i1l2810:
  6630  01FF  087B               	movf	_BreathState,w
  6631  0200  00F4               	movwf	??_Led2_PWM
  6632  0201  01F5               	clrf	??_Led2_PWM+1
  6633                           
  6634                           ; Switch on 2 bytes has been partitioned into a top level switch of size 1, and 1 sub-sw
      +                          itches
  6635                           ; Switch size 1, requested type "simple"
  6636                           ; Number of cases is 1, Range of values is 0 to 0
  6637                           ; switch strategies available:
  6638                           ; Name         Instructions Cycles
  6639                           ; simple_byte            4     3 (average)
  6640                           ; direct_byte            8     6 (fixed)
  6641                           ; jumptable            260     6 (fixed)
  6642                           ;	Chosen strategy is simple_byte
  6643  0202  0875               	movf	??_Led2_PWM+1,w
  6644  0203  3A00               	xorlw	0	; case 0
  6645  0204  1903               	skipnz
  6646  0205  2A07               	goto	i1l4136
  6647  0206  2A12               	goto	i1l2812
  6648  0207                     i1l4136:
  6649                           
  6650                           ; Switch size 1, requested type "simple"
  6651                           ; Number of cases is 3, Range of values is 1 to 3
  6652                           ; switch strategies available:
  6653                           ; Name         Instructions Cycles
  6654                           ; simple_byte           10     6 (average)
  6655                           ; direct_byte           15     9 (fixed)
  6656                           ; jumptable            263     9 (fixed)
  6657                           ;	Chosen strategy is simple_byte
  6658  0207  0874               	movf	??_Led2_PWM,w
  6659  0208  3A01               	xorlw	1	; case 1
  6660  0209  1903               	skipnz
  6661  020A  29B5               	goto	i1l2782
  6662  020B  3A03               	xorlw	3	; case 2
  6663  020C  1903               	skipnz
  6664  020D  29CB               	goto	i1l2788
  6665  020E  3A01               	xorlw	1	; case 3
  6666  020F  1903               	skipnz
  6667  0210  29EE               	goto	i1l2802
  6668  0211  2A12               	goto	i1l2812
  6669  0212                     i1l2812:
  6670                           
  6671                           ;SourceFiles/SunSensor/Led.c: 82:     PWM1_LoadDutyValue(dutyValue);
  6672  0212  0020               	movlb	0	; select bank0
  6673  0213  082D               	movf	_dutyValue+1,w
  6674  0214  00F1               	movwf	PWM1_LoadDutyValue@dutyValue+1
  6675  0215  082C               	movf	_dutyValue,w
  6676  0216  00F0               	movwf	PWM1_LoadDutyValue@dutyValue
  6677  0217  3184  242F         	fcall	_PWM1_LoadDutyValue
  6678  0219  0008               	return
  6679  021A                     __end_of_Led2_PWM:
  6680                           
  6681                           	psect	text32
  6682  0515                     __ptext32:	
  6683 ;; *************** function _TMR2_DefaultInterruptHandler *****************
  6684 ;; Defined at:
  6685 ;;		line 151 in file "mcc_generated_files/tmr2.c"
  6686 ;; Parameters:    Size  Location     Type
  6687 ;;		None
  6688 ;; Auto vars:     Size  Location     Type
  6689 ;;		None
  6690 ;; Return value:  Size  Location     Type
  6691 ;;                  1    wreg      void 
  6692 ;; Registers used:
  6693 ;;		None
  6694 ;; Tracked objects:
  6695 ;;		On entry : 0/0
  6696 ;;		On exit  : 0/0
  6697 ;;		Unchanged: 0/0
  6698 ;; Data sizes:     COMMON   BANK0   BANK1   BANK2   BANK3   BANK4   BANK5   BANK6
  6699 ;;      Params:         0       0       0       0       0       0       0       0
  6700 ;;      Locals:         0       0       0       0       0       0       0       0
  6701 ;;      Temps:          0       0       0       0       0       0       0       0
  6702 ;;      Totals:         0       0       0       0       0       0       0       0
  6703 ;;Total ram usage:        0 bytes
  6704 ;; Hardware stack levels used:    1
  6705 ;; This function calls:
  6706 ;;		Nothing
  6707 ;; This function is called by:
  6708 ;;		_TMR2_Initialize
  6709 ;;		_TMR2_CallBack
  6710 ;; This function uses a non-reentrant model
  6711 ;;
  6712                           
  6713                           
  6714                           ;psect for function _TMR2_DefaultInterruptHandler
  6715  0515                     _TMR2_DefaultInterruptHandler:
  6716                           
  6717                           ;incstack = 0
  6718                           ; Regs used in _TMR2_DefaultInterruptHandler: []
  6719  0515  0008               	return
  6720  0516                     __end_of_TMR2_DefaultInterruptHandler:
  6721                           
  6722                           	psect	text33
  6723  042F                     __ptext33:	
  6724 ;; *************** function _PWM1_LoadDutyValue *****************
  6725 ;; Defined at:
  6726 ;;		line 72 in file "mcc_generated_files/pwm1.c"
  6727 ;; Parameters:    Size  Location     Type
  6728 ;;  dutyValue       2    0[COMMON] unsigned short 
  6729 ;; Auto vars:     Size  Location     Type
  6730 ;;		None
  6731 ;; Return value:  Size  Location     Type
  6732 ;;                  1    wreg      void 
  6733 ;; Registers used:
  6734 ;;		wreg, status,2, status,0
  6735 ;; Tracked objects:
  6736 ;;		On entry : 0/0
  6737 ;;		On exit  : 0/0
  6738 ;;		Unchanged: 0/0
  6739 ;; Data sizes:     COMMON   BANK0   BANK1   BANK2   BANK3   BANK4   BANK5   BANK6
  6740 ;;      Params:         2       0       0       0       0       0       0       0
  6741 ;;      Locals:         0       0       0       0       0       0       0       0
  6742 ;;      Temps:          2       0       0       0       0       0       0       0
  6743 ;;      Totals:         4       0       0       0       0       0       0       0
  6744 ;;Total ram usage:        4 bytes
  6745 ;; Hardware stack levels used:    1
  6746 ;; This function calls:
  6747 ;;		Nothing
  6748 ;; This function is called by:
  6749 ;;		_Led2_PWM
  6750 ;; This function uses a non-reentrant model
  6751 ;;
  6752                           
  6753                           
  6754                           ;psect for function _PWM1_LoadDutyValue
  6755  042F                     _PWM1_LoadDutyValue:
  6756                           
  6757                           ;mcc_generated_files/pwm1.c: 72:  void PWM1_LoadDutyValue(uint16_t dutyValue);mcc_genera
      +                          ted_files/pwm1.c: 73:  {;mcc_generated_files/pwm1.c: 75:      PWM1DCH = (dutyValue & 0x0
      +                          3FC)>>2;
  6758                           
  6759                           ;incstack = 0
  6760                           ; Regs used in _PWM1_LoadDutyValue: [wreg+status,2+status,0]
  6761  042F  0871               	movf	PWM1_LoadDutyValue@dutyValue+1,w
  6762  0430  00F3               	movwf	??_PWM1_LoadDutyValue+1
  6763  0431  0870               	movf	PWM1_LoadDutyValue@dutyValue,w
  6764  0432  00F2               	movwf	??_PWM1_LoadDutyValue
  6765  0433  36F3               	lsrf	??_PWM1_LoadDutyValue+1,f
  6766  0434  0CF2               	rrf	??_PWM1_LoadDutyValue,f
  6767  0435  36F3               	lsrf	??_PWM1_LoadDutyValue+1,f
  6768  0436  0CF2               	rrf	??_PWM1_LoadDutyValue,f
  6769  0437  0872               	movf	??_PWM1_LoadDutyValue,w
  6770  0438  002C               	movlb	12	; select bank12
  6771  0439  0092               	movwf	18	;volatile
  6772                           
  6773                           ;mcc_generated_files/pwm1.c: 78:      PWM1DCL = (dutyValue & 0x0003)<<6;
  6774  043A  0870               	movf	PWM1_LoadDutyValue@dutyValue,w
  6775  043B  3903               	andlw	3
  6776  043C  00F2               	movwf	??_PWM1_LoadDutyValue
  6777  043D  3005               	movlw	5
  6778  043E                     u100_25:
  6779  043E  35F2               	lslf	??_PWM1_LoadDutyValue,f
  6780  043F  3EFF               	addlw	-1
  6781  0440  1D03               	skipz
  6782  0441  2C3E               	goto	u100_25
  6783  0442  3572               	lslf	??_PWM1_LoadDutyValue,w
  6784  0443  0091               	movwf	17	;volatile
  6785  0444  0008               	return
  6786  0445                     __end_of_PWM1_LoadDutyValue:
  6787  007E                     btemp	set	126	;btemp
  6788  007E                     int$flags	set	126
  6789  007E                     wtemp0	set	126
  6790                           
  6791                           	psect	config
  6792                           
  6793                           ;Config register CONFIG1 @ 0x8007
  6794                           ;	Oscillator Selection Bits
  6795                           ;	FOSC = INTOSC, INTOSC oscillator: I/O function on CLKIN pin
  6796                           ;	Watchdog Timer Enable
  6797                           ;	WDTE = OFF, WDT disabled
  6798                           ;	Power-up Timer Enable
  6799                           ;	PWRTE = OFF, PWRT disabled
  6800                           ;	MCLR Pin Function Select
  6801                           ;	MCLRE = ON, MCLR/VPP pin function is MCLR
  6802                           ;	Flash Program Memory Code Protection
  6803                           ;	CP = OFF, Program memory code protection is disabled
  6804                           ;	Brown-out Reset Enable
  6805                           ;	BOREN = ON, Brown-out Reset enabled
  6806                           ;	Clock Out Enable
  6807                           ;	CLKOUTEN = OFF, CLKOUT function is disabled. I/O or oscillator function on the CLKOUT 
      +                          pin
  6808                           ;	Internal/External Switchover Mode
  6809                           ;	IESO = ON, Internal/External Switchover Mode is enabled
  6810                           ;	Fail-Safe Clock Monitor Enable
  6811                           ;	FCMEN = ON, Fail-Safe Clock Monitor is enabled
  6812  8007                     	org	32775
  6813  8007  3FE4               	dw	16356
  6814                           
  6815                           ;Config register CONFIG2 @ 0x8008
  6816                           ;	Flash Memory Self-Write Protection
  6817                           ;	WRT = OFF, Write protection off
  6818                           ;	Stack Overflow/Underflow Reset Enable
  6819                           ;	STVREN = ON, Stack Overflow or Underflow will cause a Reset
  6820                           ;	Brown-out Reset Voltage Selection
  6821                           ;	BORV = LO, Brown-out Reset Voltage (Vbor), low trip point selected.
  6822                           ;	Low-Power Brown Out Reset
  6823                           ;	LPBOR = OFF, Low-Power BOR is disabled
  6824                           ;	Low-Voltage Programming Enable
  6825                           ;	LVP = ON, Low-voltage programming enabled
  6826  8008                     	org	32776
  6827  8008  3FFF               	dw	16383

Data Sizes:
    Strings     0
    Constant    44
    Data        3
    BSS         73
    Persistent  42
    Stack       0

Auto Spaces:
    Space          Size  Autos    Used
    COMMON           14      6      12
    BANK0            80     25      76
    BANK1            80      0      29
    BANK2            80      0       0
    BANK3            80      0       0
    BANK4            80      0       0
    BANK5            80      0       0
    BANK6            16      0       0

Pointer List with Targets:

    I2C_Read1ByteRegister@returnValue.data	PTR unsigned char  size(1) Largest target is 0

    I2C_Read2ByteRegister@returnValue.data	PTR unsigned char  size(1) Largest target is 0

    I2C_Write1ByteRegister@data.data	PTR unsigned char  size(1) Largest target is 0

    I2C_Write2ByteRegister@data.data	PTR unsigned char  size(1) Largest target is 0

    I2C_DO_TX$2127$0	PTR void  size(1) Largest target is 4
		 -> I2C_ReadDataBlock@bufferBlock(COMMON[3]), I2C_Write2ByteRegister@data(COMMON[2]), I2C_Write1ByteRegister@data(COMMON[1]), I2C_Read2ByteRegister@returnValue(COMMON[2]), 
		 -> I2C_Read1ByteRegister@returnValue(COMMON[1]), NULL(NULL[0]), 

    cb$0	PTR void  size(1) Largest target is 4
		 -> I2C_ReadDataBlock@bufferBlock(COMMON[3]), I2C_Write2ByteRegister@data(COMMON[2]), I2C_Write1ByteRegister@data(COMMON[1]), I2C_Read2ByteRegister@returnValue(COMMON[2]), 
		 -> I2C_Read1ByteRegister@returnValue(COMMON[1]), NULL(NULL[0]), 

    cb$0	PTR void  size(1) Largest target is 4
		 -> I2C_ReadDataBlock@bufferBlock(COMMON[3]), I2C_Write2ByteRegister@data(COMMON[2]), I2C_Write1ByteRegister@data(COMMON[1]), I2C_Read2ByteRegister@returnValue(COMMON[2]), 
		 -> I2C_Read1ByteRegister@returnValue(COMMON[1]), NULL(NULL[0]), 

    S931$0$0	PTR void  size(1) Largest target is 4
		 -> I2C_ReadDataBlock@bufferBlock(COMMON[3]), I2C_Write2ByteRegister@data(COMMON[2]), I2C_Write1ByteRegister@data(COMMON[1]), I2C_Read2ByteRegister@returnValue(COMMON[2]), 
		 -> I2C_Read1ByteRegister@returnValue(COMMON[1]), NULL(NULL[0]), 

    ADC_InterruptHandler	PTR FTN()void  size(2) Largest target is 1
		 -> Absolute function(), 

    rdBlkRegCompleteHandler@ptr.data	PTR unsigned char  size(1) Largest target is 0

    S1466$data	PTR unsigned char  size(1) Largest target is 0

    bufferBlock.data	PTR unsigned char  size(1) Largest target is 0

    MSSP_InterruptHandler	PTR FTN()void  size(2) Largest target is 1
		 -> I2C_MasterIsr(), Absolute function(), 

    S931$data_ptr	PTR unsigned char  size(1) Largest target is 4
		 -> I2C_ReadDataBlock@reg(COMMON[1]), I2C_ReadDataBlock@bufferBlock(COMMON[3]), I2C_Write2ByteRegister@reg(COMMON[1]), I2C_Write2ByteRegister@data(COMMON[2]), 
		 -> I2C_Write1ByteRegister@reg(COMMON[1]), I2C_Write1ByteRegister@data(COMMON[1]), I2C_Read2ByteRegister@reg(COMMON[1]), I2C_Read2ByteRegister@returnValue(COMMON[2]), 
		 -> I2C_Read1ByteRegister@reg(COMMON[1]), I2C_Read1ByteRegister@returnValue(COMMON[1]), NULL(NULL[0]), 

    I2C_Status.data_ptr	PTR unsigned char  size(1) Largest target is 4
		 -> I2C_ReadDataBlock@reg(COMMON[1]), I2C_ReadDataBlock@bufferBlock(COMMON[3]), I2C_Write2ByteRegister@reg(COMMON[1]), I2C_Write2ByteRegister@data(COMMON[2]), 
		 -> I2C_Write1ByteRegister@reg(COMMON[1]), I2C_Write1ByteRegister@data(COMMON[1]), I2C_Read2ByteRegister@reg(COMMON[1]), I2C_Read2ByteRegister@returnValue(COMMON[2]), 
		 -> I2C_Read1ByteRegister@reg(COMMON[1]), I2C_Read1ByteRegister@returnValue(COMMON[1]), NULL(NULL[0]), 

    S931$callbackPayload	PTR void [6] size(1) Largest target is 4
		 -> I2C_ReadDataBlock@bufferBlock(COMMON[3]), I2C_Write2ByteRegister@data(COMMON[2]), I2C_Write1ByteRegister@data(COMMON[1]), I2C_Read2ByteRegister@returnValue(COMMON[2]), 
		 -> I2C_Read1ByteRegister@returnValue(COMMON[1]), NULL(NULL[0]), 

    I2C_Status.callbackPayload	PTR void [6] size(1) Largest target is 4
		 -> I2C_ReadDataBlock@bufferBlock(COMMON[3]), I2C_Write2ByteRegister@data(COMMON[2]), I2C_Write1ByteRegister@data(COMMON[1]), I2C_Read2ByteRegister@returnValue(COMMON[2]), 
		 -> I2C_Read1ByteRegister@returnValue(COMMON[1]), NULL(NULL[0]), 

    S931$callbackTable	PTR FTN(PTR void ,)enum E358[6] size(2) Largest target is 1
		 -> rdBlkRegCompleteHandler(), wr2RegCompleteHandler(), wr1RegCompleteHandler(), rd2RegCompleteHandler(), 
		 -> rd1RegCompleteHandler(), I2C_CallbackReturnReset(), I2C_CallbackReturnStop(), Absolute function(), 

    I2C_Status.callbackTable	PTR FTN(PTR void ,)enum E358[6] size(2) Largest target is 1
		 -> rdBlkRegCompleteHandler(), wr2RegCompleteHandler(), wr1RegCompleteHandler(), rd2RegCompleteHandler(), 
		 -> rd1RegCompleteHandler(), I2C_CallbackReturnReset(), I2C_CallbackReturnStop(), Absolute function(), 

    fsmStateTable	const PTR FTN()enum E3880[16] size(2) Largest target is 1
		 -> I2C_DO_ADDRESS_NACK(), I2C_DO_RESET(), I2C_DO_RX_NACK_RESTART(), I2C_DO_RX_NACK_STOP(), 
		 -> I2C_DO_RX_ACK(), I2C_DO_SEND_STOP(), I2C_DO_SEND_RESTART(), I2C_DO_SEND_RESTART_WRITE(), 
		 -> I2C_DO_SEND_RESTART_READ(), I2C_DO_TX_EMPTY(), I2C_DO_RCEN(), I2C_DO_RX(), 
		 -> I2C_DO_TX(), I2C_DO_SEND_ADR_WRITE(), I2C_DO_SEND_ADR_READ(), I2C_DO_IDLE(), 

    EUSART_SetErrorHandler@interruptHandler	PTR FTN()void  size(2) Largest target is 1
		 -> EUSART_DefaultErrorHandler(), 

    EUSART_ErrorHandler	PTR FTN()void  size(2) Largest target is 1
		 -> EUSART_DefaultErrorHandler(), Absolute function(), 

    EUSART_SetOverrunErrorHandler@interruptHandler	PTR FTN()void  size(2) Largest target is 1
		 -> EUSART_DefaultOverrunErrorHandler(), 

    EUSART_OverrunErrorHandler	PTR FTN()void  size(2) Largest target is 1
		 -> EUSART_DefaultOverrunErrorHandler(), Absolute function(), 

    EUSART_SetFramingErrorHandler@interruptHandler	PTR FTN()void  size(2) Largest target is 1
		 -> EUSART_DefaultFramingErrorHandler(), 

    EUSART_FramingErrorHandler	PTR FTN()void  size(2) Largest target is 1
		 -> EUSART_DefaultFramingErrorHandler(), Absolute function(), 

    TMR2_SetInterruptHandler@InterruptHandler	PTR FTN()void  size(2) Largest target is 1
		 -> Led2_PWM(), TMR2_DefaultInterruptHandler(), 

    TMR2_InterruptHandler	PTR FTN()void  size(2) Largest target is 1
		 -> Led2_PWM(), Absolute function(), TMR2_DefaultInterruptHandler(), 

    S30$tptr	PTR FTN()void  size(2) Largest target is 1
		 -> SHT25_StateMachine(), UartDisplay(), 

    COS_tsk.tptr	PTR FTN()void  size(2) Largest target is 1
		 -> SHT25_StateMachine(), UartDisplay(), 


Critical Paths under _main in COMMON

    None.

Critical Paths under _INTERRUPT_InterruptManager in COMMON

    _TMR2_CallBack->_Led2_PWM
    _Led2_PWM->_PWM1_LoadDutyValue

Critical Paths under _main in BANK0

    _main->_COS_TskMan
    _TMR2_Initialize->_TMR2_SetInterruptHandler
    _EUSART_Initialize->_EUSART_SetErrorHandler
    _EUSART_Initialize->_EUSART_SetFramingErrorHandler
    _EUSART_Initialize->_EUSART_SetOverrunErrorHandler
    _COS_TskMan->_SHT25_StateMachine
    _UartDisplay->_EUSART_Write
    _SHT25_StateMachine->_SHT2x_CalcRelativeHumidity
    _SHT25_StateMachine->_SHT2x_CalcTemperatureC
    _SHT2x_CalcTemperatureC->___lmul
    _SHT2x_CalcRelativeHumidity->___lmul

Critical Paths under _INTERRUPT_InterruptManager in BANK0

    None.

Critical Paths under _main in BANK1

    None.

Critical Paths under _INTERRUPT_InterruptManager in BANK1

    None.

Critical Paths under _main in BANK2

    None.

Critical Paths under _INTERRUPT_InterruptManager in BANK2

    None.

Critical Paths under _main in BANK3

    None.

Critical Paths under _INTERRUPT_InterruptManager in BANK3

    None.

Critical Paths under _main in BANK4

    None.

Critical Paths under _INTERRUPT_InterruptManager in BANK4

    None.

Critical Paths under _main in BANK5

    None.

Critical Paths under _INTERRUPT_InterruptManager in BANK5

    None.

Critical Paths under _main in BANK6

    None.

Critical Paths under _INTERRUPT_InterruptManager in BANK6

    None.

Call Graph Tables:

 ---------------------------------------------------------------------------------
 (Depth) Function   	        Calls       Base Space   Used Autos Params    Refs
 ---------------------------------------------------------------------------------
 (0) _main                                                 0     0      0    3896
                           _COS_Init
                     _COS_TmrHandler
                         _COS_TskMan
                  _SYSTEM_Initialize
           _TMR2_SetInterruptHandler
 ---------------------------------------------------------------------------------
 (1) _SYSTEM_Initialize                                    0     0      0     574
                  _EUSART_Initialize
              _OSCILLATOR_Initialize
             _PIN_MANAGER_Initialize
                    _PWM1_Initialize
                    _TMR2_Initialize
 ---------------------------------------------------------------------------------
 (2) _TMR2_Initialize                                      0     0      0     211
           _TMR2_SetInterruptHandler
 ---------------------------------------------------------------------------------
 (1) _TMR2_SetInterruptHandler                             2     0      2     211
                                              0 BANK0      2     0      2
 ---------------------------------------------------------------------------------
 (2) _PWM1_Initialize                                      0     0      0       0
 ---------------------------------------------------------------------------------
 (2) _PIN_MANAGER_Initialize                               0     0      0       0
 ---------------------------------------------------------------------------------
 (2) _OSCILLATOR_Initialize                                0     0      0       0
 ---------------------------------------------------------------------------------
 (2) _EUSART_Initialize                                    0     0      0     363
             _EUSART_SetErrorHandler
      _EUSART_SetFramingErrorHandler
      _EUSART_SetOverrunErrorHandler
 ---------------------------------------------------------------------------------
 (3) _EUSART_SetOverrunErrorHandler                        2     0      2     121
                                              0 BANK0      2     0      2
 ---------------------------------------------------------------------------------
 (3) _EUSART_SetFramingErrorHandler                        2     0      2     121
                                              0 BANK0      2     0      2
 ---------------------------------------------------------------------------------
 (3) _EUSART_SetErrorHandler                               2     0      2     121
                                              0 BANK0      2     0      2
 ---------------------------------------------------------------------------------
 (1) _COS_TskMan                                           2     2      0    2901
                                             23 BANK0      2     2      0
                 _SHT25_StateMachine *
                        _UartDisplay *
                             ___wmul
 ---------------------------------------------------------------------------------
 (2) ___wmul                                               6     2      4    1486
                                              0 BANK0      6     2      4
 ---------------------------------------------------------------------------------
 (2) _UartDisplay                                          0     0      0      31
                       _EUSART_Write
 ---------------------------------------------------------------------------------
 (3) _EUSART_Write                                         1     1      0      31
                                              0 BANK0      1     1      0
 ---------------------------------------------------------------------------------
 (2) _SHT25_StateMachine                                   2     2      0    1384
                                             21 BANK0      2     2      0
                           _I2C_Init
                       _I2C_ReadByte
                 _I2C_StartCondition
                  _I2C_StopCondition
                      _I2C_WriteByte
                    _SHT25_FaultHand
         _SHT2x_CalcRelativeHumidity
             _SHT2x_CalcTemperatureC
 ---------------------------------------------------------------------------------
 (3) _SHT2x_CalcTemperatureC                               9     7      2     607
                                             12 BANK0      9     7      2
                             ___lmul
 ---------------------------------------------------------------------------------
 (3) _SHT2x_CalcRelativeHumidity                           9     7      2     641
                                             12 BANK0      9     7      2
                             ___lmul
 ---------------------------------------------------------------------------------
 (4) ___lmul                                              12     4      8     496
                                              0 BANK0     12     4      8
 ---------------------------------------------------------------------------------
 (3) _SHT25_FaultHand                                      1     1      0       0
                                              0 BANK0      1     1      0
 ---------------------------------------------------------------------------------
 (3) _I2C_WriteByte                                        3     3      0      68
                                              0 BANK0      3     3      0
 ---------------------------------------------------------------------------------
 (3) _I2C_StopCondition                                    0     0      0       0
 ---------------------------------------------------------------------------------
 (3) _I2C_StartCondition                                   0     0      0       0
 ---------------------------------------------------------------------------------
 (3) _I2C_ReadByte                                         3     3      0      68
                                              0 BANK0      3     3      0
 ---------------------------------------------------------------------------------
 (3) _I2C_Init                                             0     0      0       0
 ---------------------------------------------------------------------------------
 (1) _COS_TmrHandler                                       5     5      0     105
                                              0 BANK0      5     5      0
 ---------------------------------------------------------------------------------
 (1) _COS_Init                                             5     5      0     105
                                              0 BANK0      5     5      0
                     _COS_TimerSetup
 ---------------------------------------------------------------------------------
 (2) _COS_TimerSetup                                       0     0      0       0
 ---------------------------------------------------------------------------------
 Estimated maximum stack depth 4
 ---------------------------------------------------------------------------------
 (Depth) Function   	        Calls       Base Space   Used Autos Params    Refs
 ---------------------------------------------------------------------------------
 (5) _INTERRUPT_InterruptManager                           0     0      0     120
                           _TMR2_ISR
 ---------------------------------------------------------------------------------
 (6) _TMR2_ISR                                             0     0      0     120
                      _TMR2_CallBack
 ---------------------------------------------------------------------------------
 (7) _TMR2_CallBack                                        0     0      0     120
                   Absolute function *
                           _Led2_PWM *
       _TMR2_DefaultInterruptHandler *
 ---------------------------------------------------------------------------------
 (8) _TMR2_DefaultInterruptHandler                         0     0      0       0
 ---------------------------------------------------------------------------------
 (8) _Led2_PWM                                             2     2      0     120
                                              4 COMMON     2     2      0
                 _PWM1_LoadDutyValue
 ---------------------------------------------------------------------------------
 (9) _PWM1_LoadDutyValue                                   4     2      2     120
                                              0 COMMON     4     2      2
 ---------------------------------------------------------------------------------
 (8) Absolute function(Fake)                               0     0      0       0
 ---------------------------------------------------------------------------------
 Estimated maximum stack depth 9
 ---------------------------------------------------------------------------------

 Call Graph Graphs:

 _main (ROOT)
   _COS_Init
     _COS_TimerSetup
   _COS_TmrHandler
   _COS_TskMan
     _SHT25_StateMachine *
       _I2C_Init
       _I2C_ReadByte
       _I2C_StartCondition
       _I2C_StopCondition
       _I2C_WriteByte
       _SHT25_FaultHand
       _SHT2x_CalcRelativeHumidity
         ___lmul
       _SHT2x_CalcTemperatureC
         ___lmul
     _UartDisplay *
       _EUSART_Write
     ___wmul *
   _SYSTEM_Initialize
     _EUSART_Initialize
       _EUSART_SetErrorHandler
       _EUSART_SetFramingErrorHandler
       _EUSART_SetOverrunErrorHandler
     _OSCILLATOR_Initialize
     _PIN_MANAGER_Initialize
     _PWM1_Initialize
     _TMR2_Initialize
       _TMR2_SetInterruptHandler
   _TMR2_SetInterruptHandler

 _INTERRUPT_InterruptManager (ROOT)
   _TMR2_ISR
     _TMR2_CallBack
       Absolute function(Fake) *
       _Led2_PWM *
         _PWM1_LoadDutyValue
       _TMR2_DefaultInterruptHandler *

 Address spaces:
Name               Size   Autos  Total    Cost      Usage
BIGRAM             1F0      0       0       0        0.0%
NULL                 0      0       0       0        0.0%
CODE                 0      0       0       0        0.0%
BITCOMMON            E      0       0       1        0.0%
BITSFR0              0      0       0       1        0.0%
SFR0                 0      0       0       1        0.0%
COMMON               E      6       C       2       85.7%
BITSFR1              0      0       0       2        0.0%
SFR1                 0      0       0       2        0.0%
BITSFR2              0      0       0       3        0.0%
SFR2                 0      0       0       3        0.0%
STACK                0      0       0       3        0.0%
BITSFR3              0      0       0       4        0.0%
SFR3                 0      0       0       4        0.0%
ABS                  0      0      75       4        0.0%
BITBANK0            50      0       0       5        0.0%
BITSFR4              0      0       0       5        0.0%
SFR4                 0      0       0       5        0.0%
BANK0               50     19      4C       6       95.0%
BITSFR5              0      0       0       6        0.0%
SFR5                 0      0       0       6        0.0%
BITBANK1            50      0       0       7        0.0%
BITSFR6              0      0       0       7        0.0%
SFR6                 0      0       0       7        0.0%
BANK1               50      0      1D       8       36.2%
BITSFR7              0      0       0       8        0.0%
SFR7                 0      0       0       8        0.0%
BITBANK2            50      0       0       9        0.0%
BITSFR8              0      0       0       9        0.0%
SFR8                 0      0       0       9        0.0%
BANK2               50      0       0      10        0.0%
BITSFR9              0      0       0      10        0.0%
SFR9                 0      0       0      10        0.0%
BITBANK3            50      0       0      11        0.0%
BITSFR10             0      0       0      11        0.0%
SFR10                0      0       0      11        0.0%
BANK3               50      0       0      12        0.0%
BITSFR11             0      0       0      12        0.0%
SFR11                0      0       0      12        0.0%
BITBANK4            50      0       0      13        0.0%
BITSFR12             0      0       0      13        0.0%
SFR12                0      0       0      13        0.0%
BANK4               50      0       0      14        0.0%
BITSFR13             0      0       0      14        0.0%
SFR13                0      0       0      14        0.0%
BITBANK5            50      0       0      15        0.0%
BITSFR14             0      0       0      15        0.0%
SFR14                0      0       0      15        0.0%
BANK5               50      0       0      16        0.0%
BITSFR15             0      0       0      16        0.0%
SFR15                0      0       0      16        0.0%
BITBANK6            10      0       0      17        0.0%
BITSFR16             0      0       0      17        0.0%
SFR16                0      0       0      17        0.0%
BANK6               10      0       0      18        0.0%
BITSFR17             0      0       0      18        0.0%
SFR17                0      0       0      18        0.0%
BITSFR18             0      0       0      19        0.0%
SFR18                0      0       0      19        0.0%
DATA                 0      0      75      19        0.0%
BITSFR19             0      0       0      20        0.0%
SFR19                0      0       0      20        0.0%
BITSFR20             0      0       0      21        0.0%
SFR20                0      0       0      21        0.0%
BITSFR21             0      0       0      22        0.0%
SFR21                0      0       0      22        0.0%
BITSFR22             0      0       0      23        0.0%
SFR22                0      0       0      23        0.0%
BITSFR23             0      0       0      24        0.0%
SFR23                0      0       0      24        0.0%
BITSFR24             0      0       0      25        0.0%
SFR24                0      0       0      25        0.0%
BITSFR25             0      0       0      26        0.0%
SFR25                0      0       0      26        0.0%
BITSFR26             0      0       0      27        0.0%
SFR26                0      0       0      27        0.0%
BITSFR27             0      0       0      28        0.0%
SFR27                0      0       0      28        0.0%
BITSFR28             0      0       0      29        0.0%
SFR28                0      0       0      29        0.0%
BITSFR29             0      0       0      30        0.0%
SFR29                0      0       0      30        0.0%
BITSFR30             0      0       0      31        0.0%
SFR30                0      0       0      31        0.0%
BITSFR31             0      0       0      32        0.0%
SFR31                0      0       0      32        0.0%


Microchip Technology PIC Macro Assembler V2.20 build 20200408173844 
Symbol Table                                                                                   Tue Jun 23 17:55:04 2020

               __end_of_TMR2_SetInterruptHandler 04F4                                               l36 022F  
                                             l29 0333                                               l47 01A7  
                            ___wmul@multiplicand 004A                                      ?_COS_TskMan 0070  
                                            l422 02F5                                              l414 011A  
                                            l503 03C2                                              l416 0144  
                                            l506 03D2                                              l426 02A4  
                                            l507 03D4                                              l427 02C3  
                                            l451 040A                                              l508 03D8  
                                            l269 04E2                                              l485 04C2  
                                            l479 04CB                                              l497 044C  
                                            _PR2 001B                   ?_EUSART_SetFramingErrorHandler 0048  
                                _TMR2_Initialize 046D                                              wreg 0009  
                                   _I2C_DO_RESET 0000                      __size_of_SHT25_StateMachine 010E  
                                           l1100 03E7                                             l4042 0264  
                                           l4134 012D                                             l4056 017D  
                                           l4078 01A8                                             l3742 0352  
                                           l3910 005F                                             l3746 035C  
                                           l3908 005C                                  __end_of_COS_tsk 04A7  
                                           l3950 00C5                                             l3936 00A8  
                                           l3890 0038                                             l3976 010E  
                                           l3896 003F                                             l3984 0124  
                                           l3992 03E1                          __end_of_PWM1_Initialize 04D8  
                                           u2015 02F7                                             u2025 02FF  
                                           u2115 008D                                             u2045 02A6  
                                           _LATA 010C                                             _LATB 010D  
                                           u2055 02AE                                             _LATC 010E  
                                           u2155 00F3                                             u2175 03E8  
                                           u2185 03ED                                             u1905 035D  
                                           u1915 0364                                             _TMR2 001A  
                                           _WPUA 020C                                             _WPUB 020D  
                          __size_of_I2C_ReadByte 0020                                             _main 03FA  
                               __end_of_I2C_Init 049B                                             fsr0h 0005  
                                           indf0 0000                                             fsr0l 0004  
                                           btemp 007E                                             start 0012  
                             _I2C_StartCondition 04C7                                 __end_of_COS_Init 0349  
                                  ?_EUSART_Write 0070                   __size_of_OSCILLATOR_Initialize 0006  
                                  _I2C_DO_RX_ACK 0000                    __end_of_OSCILLATOR_Initialize 04FA  
                                          ?_main 0070                                            _T1CON 0018  
                                          _T2CON 001C                                            i1l131 0010  
                                          _RCREG 0199                              ?_I2C_StartCondition 0070  
                                          _RCSTA 019D                                            _TMR1H 0017  
                                          _TMR1L 0016                                            _TRISA 008C  
                                          _TRISB 008D                                            _TRISC 008E  
                                          _TXREG 019A                                            _TXSTA 019E  
                            ___lmul@multiplicand 004C                                 __end_of_TMR2_ISR 046D  
                                   _I2C_ReadByte 03BE                         __size_of_SHT25_FaultHand 000C  
                                          pclath 000A                                            status 0003  
                               __end_of_Led2_PWM 021A                                            wtemp0 007E  
                           ??_I2C_StartCondition 0048                              __size_of_COS_TskMan 006F  
                __size_of_SHT2x_CalcTemperatureC 0046                                    _fsmStateTable 039E  
                                __initialization 0014                                     __end_of_main 0415  
                              _I2C_StopCondition 04BE                                   ??_EUSART_Write 0048  
                        __end_of_TMR2_Initialize 047F                      ?_INTERRUPT_InterruptManager 0070  
                             ?_I2C_StopCondition 0070                         _TMR2_SetInterruptHandler 04EE  
                                         ??_main 0061                                      _BreathState 007B  
                            ??_I2C_StopCondition 0048                                 _SensirionRH_UBP8 0028  
                                 _COS_TmrHandler 021A                _EUSART_DefaultFramingErrorHandler 0000  
                                         _ADCON0 009D                                           _ADCON1 009E  
                                         _ADCON2 009F                       _EUSART_OverrunErrorHandler 0063  
                         __size_of_I2C_WriteByte 0015                                   _COS_TimerSetup 050C  
                                         _ADRESH 009C                                           _ADRESL 009B  
                                         _APFCON 011D                                           _ANSELA 018C  
                                         _ANSELB 018D                                           _ANSELC 018E  
                                         _BORCON 0116                                           u100_25 043E  
                               ?_PWM1_Initialize 0070                                           i1l4136 0207  
                                         i1l2802 01EE                                           i1l2810 01FF  
                                         i1l2812 0212                                           i1l2782 01B5  
                                         i1l2792 01DB                                           i1l2794 01DE  
                                         i1l2786 01C6                                           i1l2788 01CB  
                                         _PMADRH 0192                                           _PMADRL 0191  
                                         _PMDATH 0194                                           _PMDATL 0193  
                    ?_SHT2x_CalcRelativeHumidity 0054                                           _PMCON2 0196  
                                         _OSCCON 0099                                           _SPBRGH 019C  
                                         _SPBRGL 019B                                           _SSP1IF 008B  
                                         _WDTCON 0097                                    ??_UartDisplay 0049  
                                     _Timer2Flag 0044                        __end_of_I2C_StopCondition 04C7  
                                         ___lmul 0349                                           ___wmul 03DE  
                                  _I2C_MasterIsr 0000                           _SHT2x_CalcTemperatureC 02C8  
                         __end_of_COS_TmrHandler 0277                              _I2C_DO_ADDRESS_NACK 0000  
                                   __pdataCOMMON 007A                                        ?_I2C_Init 0070  
                         __end_of_COS_TimerSetup 0512         TMR2_SetInterruptHandler@InterruptHandler 0048  
         SHT2x_CalcTemperatureC@Temperature_UBP8 0057                              _RelativeHumidityRaw 0022  
                              _SYSTEM_Initialize 047F                          __end_of__initialization 0033  
                               _TemperatureRaw_H 0040                                 _TemperatureRaw_L 003F  
SHT2x_CalcRelativeHumidity@RelativeHumidity_UBP8 0057                                        ?_COS_Init 0070  
                          __end_of_TMR2_CallBack 04BE                                   _NewMessageFlag 0079  
                             ?_SYSTEM_Initialize 0070                      PWM1_LoadDutyValue@dutyValue 0070  
                              ??_SHT25_FaultHand 0048                          _rdBlkRegCompleteHandler 0000  
                                 __pcstackCOMMON 0070                                    _I2C_WriteByte 0445  
                                   __pidataBANK0 0514                           _I2C_CallbackReturnStop 0000  
                            ??_SYSTEM_Initialize 004A                              __end_of_UartDisplay 04E0  
                                      ?_TMR2_ISR 0070                               _PWM1_LoadDutyValue 042F  
                               ?_TMR2_Initialize 0070                                     ??_COS_TskMan 005F  
                                      ?_Led2_PWM 0070                                       ??_I2C_Init 0048  
                                ?_COS_TmrHandler 0070                                   _OPTION_REGbits 0095  
                            ?_PWM1_LoadDutyValue 0070                                  ?_COS_TimerSetup 0070  
                ??_EUSART_SetOverrunErrorHandler 004A                        __end_of_SYSTEM_Initialize 048E  
                                     __pbssBANK0 0020                                       __pbssBANK1 00A0  
                                 _TemperatureRaw 0024                             __end_of_EUSART_Write 04E8  
                                     ??_COS_Init 0048                        _SensirionTemperature_UBP8 002A  
                            _I2C_DO_RX_NACK_STOP 0000                            _rd1RegCompleteHandler 0000  
                             __end_of_COS_TskMan 01B4                             ??_PWM1_LoadDutyValue 0072  
                     __size_of_I2C_StopCondition 0009                            _wr1RegCompleteHandler 0000  
                                     __pmaintext 03FA                                   ?_I2C_WriteByte 0070  
                                _I2C_DO_TX_EMPTY 0000                                          ?___lmul 0048  
                                        ?___wmul 0048                                       ??_TMR2_ISR 0076  
                                     __pintentry 0004                                          _BAUDCON 019F  
                                 ___lmul@product 0050                                       ??_Led2_PWM 0074  
                                        _COS_tsk 049B                       __end_of_SHT25_StateMachine 0145  
                                        _PWM1DCH 0612                                          _PWM1DCL 0611  
                                        _PWM1CON 0613                                          _SSP1ADD 0212  
                                        _SSP1BUF 0211                         ??_EUSART_SetErrorHandler 004A  
                                      _I2C_DO_RX 0000                                        _I2C_DO_TX 0000  
                                        _Command 006B                                        _I2C_Timer 0026  
                                    _UartDisplay 04D8                             _ADC_InterruptHandler 0020  
                     ??_TMR2_SetInterruptHandler 004A                                  __size_of___lmul 0030  
                                __size_of___wmul 001C                                          __ptext1 047F  
                                        __ptext2 046D                                          __ptext3 04EE  
                                        __ptext4 04D0                                          __ptext5 0415  
                                        __ptext6 04F4                                          __ptext7 0379  
                                        __ptext8 04FA                                          __ptext9 0500  
                                        _counter 002E                            _OSCILLATOR_Initialize 04F4  
                                      _T2CONbits 001C                        _counter@UART_Display$F553 0043  
                       ??_PIN_MANAGER_Initialize 0048                       __size_of_SYSTEM_Initialize 000F  
                                        clrloop0 04E9                             end_of_initialization 0033  
          __end_of_EUSART_SetOverrunErrorHandler 0500           __size_of_EUSART_SetOverrunErrorHandler 0006  
                  _EUSART_SetOverrunErrorHandler 04FA                                  _TimeSlotCounter 0045  
                    __size_of_I2C_StartCondition 0009                                _EUSART_Initialize 0379  
                                ??_I2C_WriteByte 0048                               ?_EUSART_Initialize 0070  
                                      _RCSTAbits 019D                                        _U8Message 007A  
                        ?_SHT2x_CalcTemperatureC 0054                              ??_EUSART_Initialize 004A  
                               I2C_WriteByte@ack 004A                            __size_of_EUSART_Write 0008  
                              __size_of_I2C_Init 000D                                  _SHT25_FaultHand 04A7  
                __size_of_EUSART_SetErrorHandler 0006                        __end_of_EUSART_Initialize 039E  
                                    _I2C_DO_IDLE 0000                                      _I2C_DO_RCEN 0000  
                                      _TXSTAbits 019E                         _I2C_DO_SEND_RESTART_READ 0000  
                              __size_of_COS_Init 003B                         __size_of_PWM1_Initialize 0008  
                 __end_of_SHT2x_CalcTemperatureC 030E             __end_of_TMR2_DefaultInterruptHandler 0516  
          __size_of_TMR2_DefaultInterruptHandler 0001                     _TMR2_DefaultInterruptHandler 0515  
                        _I2C_CallbackReturnReset 0000                                   __end_of___lmul 0379  
                     _EUSART_DefaultErrorHandler 0000                                 ??_COS_TmrHandler 0048  
                                 __end_of___wmul 03FA                                    __pidataCOMMON 0512  
                                   _EUSART_Write 04E0                                __size_of_TMR2_ISR 0013  
                               ??_COS_TimerSetup 0048                           ?_OSCILLATOR_Initialize 0070  
                            start_initialization 0014                  __size_of_PIN_MANAGER_Initialize 001A  
                              __size_of_Led2_PWM 0066                                        _ErrorStat 0078  
                         _I2C_DO_RX_NACK_RESTART 0000                               I2C_ReadByte@rxByte 004A  
                 ?_EUSART_SetOverrunErrorHandler 0048                       _EUSART_FramingErrorHandler 0065  
                                       ??___lmul 0050                                         ??___wmul 004C  
                         _EUSART_SetErrorHandler 0506                                     _COS_tcnt_val 0076  
                                   _COS_tcnt_lst 0034                                      __pdataBANK0 006B  
                  ?_TMR2_DefaultInterruptHandler 0070                                 _I2C_DO_SEND_STOP 0000  
          SHT2x_CalcTemperatureC@TemperatureTemp 0059                          __end_of_SHT25_FaultHand 04B3  
                         __size_of_TMR2_CallBack 000B                            _I2C_DO_SEND_ADR_WRITE 0000  
 SHT2x_CalcRelativeHumidity@RelativeHumidityTemp 0059                                      __pbssCOMMON 0076  
                                      ___latbits 0002                                    __pcstackBANK0 0048  
                                  ?_I2C_ReadByte 0070                         __size_of_TMR2_Initialize 0012  
                     __size_of_EUSART_Initialize 0025                        _I2C_DO_SEND_RESTART_WRITE 0000  
                                   ?_UartDisplay 0070                                        __pnvBANK0 0061  
                             _SHT25_StateMachine 0037                            _rd2RegCompleteHandler 0000  
                          __end_of_fsmStateTable 03BE                      __size_of_PWM1_LoadDutyValue 0016  
                         _PIN_MANAGER_Initialize 0415                            _wr2RegCompleteHandler 0000  
                            ?_SHT25_StateMachine 0070                                ??_PWM1_Initialize 0048  
                   ??_INTERRUPT_InterruptManager 0076                                         _I2C_Init 048E  
                                 ??_I2C_ReadByte 0048                                  I2C_ReadByte@ack 0049  
                           ??_SHT25_StateMachine 005D                                        _dutyValue 002C  
                   ??_SHT2x_CalcRelativeHumidity 0056                                   ___wmul@product 004C  
                                       _COS_Init 030E           EUSART_SetErrorHandler@interruptHandler 0048  
                                       _LATCbits 010E                                        clear_ram0 04E8  
                                  _TMR2_CallBack 04B3                                         _PIE1bits 0091  
                              _eusartRxLastError 0046              __size_of_INTERRUPT_InterruptManager 000E  
                                       _PIR1bits 0011                  ??_EUSART_SetFramingErrorHandler 004A  
                                       _PIR2bits 0012                                         _SSP1CON1 0215  
                                       _SSP1CON2 0216                _EUSART_DefaultOverrunErrorHandler 0000  
                                       _TMR2_ISR 045A                                         _SSP1STAT 0214  
                                     _ADCON0bits 009D                                ___wmul@multiplier 0048  
                                       _Led2_PWM 01B4                                 ?_SHT25_FaultHand 0070  
                 ??_TMR2_DefaultInterruptHandler 0070                __size_of_TMR2_SetInterruptHandler 0006  
                      ?_TMR2_SetInterruptHandler 0048              __size_of_SHT2x_CalcRelativeHumidity 0051  
                              ___lmul@multiplier 0048                                COS_Init@tempbyte1 004B  
                              COS_Init@tempbyte2 004C                                       _I2C_Status 00A0  
                     __end_of_I2C_StartCondition 04D0                                ??_TMR2_Initialize 004A  
                                 ?_TMR2_CallBack 0070                                      _COS_sec_tmr 0038  
                          __end_of_I2C_WriteByte 045A                          ??_OSCILLATOR_Initialize 0048  
                            _EUSART_ErrorHandler 0061                                      _COS_tsk_ena 0069  
                                    _COS_tsk_ind 0047                                      _COS_tsk_msk 006A  
                                    _COS_tsk_tmr 0036                             _I2C_DO_SEND_ADR_READ 0000  
                                       _checksum 0041                                         __ptext10 0506  
                                       __ptext11 0145                                         __ptext20 0445  
                                       __ptext12 03DE                                         __ptext21 04BE  
                                       __ptext13 0037                                         __ptext30 04B3  
                                       __ptext22 04C7                                         __ptext14 04D8  
                                       __ptext31 01B4                                         __ptext23 03BE  
                                       __ptext15 04E0                                         __ptext32 0515  
                                       __ptext24 048E                                         __ptext16 02C8  
                                       __ptext33 042F                                         __ptext25 021A  
                                       __ptext17 0277                                         __ptext26 030E  
                                       __ptext18 0349                                         __ptext27 050C  
                                       __ptext19 04A7                                         __ptext29 045A  
                                   _SSP1CON1bits 0215                                     _SSP1CON2bits 0216  
                                    _SHT25_Fault 0042                                      _SHT25_State 003C  
                                  __size_of_main 001B                          ?_EUSART_SetErrorHandler 0048  
                           __size_of_UartDisplay 0008                             __end_of_I2C_ReadByte 03DE  
  EUSART_SetOverrunErrorHandler@interruptHandler 0048                                         int$flags 007E  
             __end_of_INTERRUPT_InterruptManager 0012                       _INTERRUPT_InterruptManager 0004  
          __end_of_EUSART_SetFramingErrorHandler 0506           __size_of_EUSART_SetFramingErrorHandler 0006  
                  _EUSART_SetFramingErrorHandler 0500                                     _SSP1STATbits 0214  
                                     _COS_TskMan 0145                                       _INTCONbits 000B  
                                     _COS_ms_tmr 003A                                         intlevel1 0000  
                                ??_TMR2_CallBack 0076               __end_of_SHT2x_CalcRelativeHumidity 02C8  
                     _SHT2x_CalcRelativeHumidity 0277                                       _PMCON1bits 0195  
                        ?_PIN_MANAGER_Initialize 0070                   __end_of_EUSART_SetErrorHandler 050C  
                            _I2C_DO_SEND_RESTART 0000                                  _PWM1_Initialize 04D0  
  EUSART_SetFramingErrorHandler@interruptHandler 0048                                    __pstringtext1 039E  
                                  __pstringtext2 049B                          COS_TmrHandler@tempbyte1 004B  
                        COS_TmrHandler@tempbyte2 004C                            TMR2_ISR@CountCallBack 0030  
                        __size_of_COS_TmrHandler 005D                              I2C_WriteByte@txByte 0049  
                        __size_of_COS_TimerSetup 0006                               EUSART_Write@txData 0048  
                 __end_of_PIN_MANAGER_Initialize 042F                            _RelativeHumidityRaw_H 003E  
                          _RelativeHumidityRaw_L 003D                       __end_of_PWM1_LoadDutyValue 0445  
                       ??_SHT2x_CalcTemperatureC 0056                            _TMR2_InterruptHandler 0067  
                          _MSSP_InterruptHandler 0032  
